
TFT Library Check.elf:     file format elf32-littlearm

Sections:
Idx Name          Size      VMA       LMA       File off  Algn
  0 .isr_vector   000000c0  08000000  08000000  00010000  2**0
                  CONTENTS, ALLOC, LOAD, READONLY, DATA
  1 .text         0000827c  080000c0  080000c0  000100c0  2**2
                  CONTENTS, ALLOC, LOAD, READONLY, CODE
  2 .rodata       00000720  0800833c  0800833c  0001833c  2**2
                  CONTENTS, ALLOC, LOAD, READONLY, DATA
  3 .ARM.extab    00000000  08008a5c  08008a5c  000200c8  2**0
                  CONTENTS
  4 .ARM          00000000  08008a5c  08008a5c  000200c8  2**0
                  CONTENTS
  5 .preinit_array 00000000  08008a5c  08008a5c  000200c8  2**0
                  CONTENTS, ALLOC, LOAD, DATA
  6 .init_array   00000004  08008a5c  08008a5c  00018a5c  2**2
                  CONTENTS, ALLOC, LOAD, DATA
  7 .fini_array   00000004  08008a60  08008a60  00018a60  2**2
                  CONTENTS, ALLOC, LOAD, DATA
  8 .data         000000c8  20000000  08008a64  00020000  2**2
                  CONTENTS, ALLOC, LOAD, DATA
  9 .bss          00000650  200000c8  08008b2c  000200c8  2**2
                  ALLOC
 10 ._user_heap_stack 00000600  20000718  08008b2c  00020718  2**0
                  ALLOC
 11 .ARM.attributes 00000028  00000000  00000000  000200c8  2**0
                  CONTENTS, READONLY
 12 .debug_info   0000d397  00000000  00000000  000200f0  2**0
                  CONTENTS, READONLY, DEBUGGING, OCTETS
 13 .debug_abbrev 000027ad  00000000  00000000  0002d487  2**0
                  CONTENTS, READONLY, DEBUGGING, OCTETS
 14 .debug_aranges 00000d20  00000000  00000000  0002fc38  2**3
                  CONTENTS, READONLY, DEBUGGING, OCTETS
 15 .debug_ranges 00000be8  00000000  00000000  00030958  2**3
                  CONTENTS, READONLY, DEBUGGING, OCTETS
 16 .debug_macro  0001260e  00000000  00000000  00031540  2**0
                  CONTENTS, READONLY, DEBUGGING, OCTETS
 17 .debug_line   000110a0  00000000  00000000  00043b4e  2**0
                  CONTENTS, READONLY, DEBUGGING, OCTETS
 18 .debug_str    00062c92  00000000  00000000  00054bee  2**0
                  CONTENTS, READONLY, DEBUGGING, OCTETS
 19 .comment      00000050  00000000  00000000  000b7880  2**0
                  CONTENTS, READONLY
 20 .debug_frame  000032b4  00000000  00000000  000b78d0  2**2
                  CONTENTS, READONLY, DEBUGGING, OCTETS

Disassembly of section .text:

080000c0 <__do_global_dtors_aux>:
 80000c0:	b510      	push	{r4, lr}
 80000c2:	4c06      	ldr	r4, [pc, #24]	; (80000dc <__do_global_dtors_aux+0x1c>)
 80000c4:	7823      	ldrb	r3, [r4, #0]
 80000c6:	2b00      	cmp	r3, #0
 80000c8:	d107      	bne.n	80000da <__do_global_dtors_aux+0x1a>
 80000ca:	4b05      	ldr	r3, [pc, #20]	; (80000e0 <__do_global_dtors_aux+0x20>)
 80000cc:	2b00      	cmp	r3, #0
 80000ce:	d002      	beq.n	80000d6 <__do_global_dtors_aux+0x16>
 80000d0:	4804      	ldr	r0, [pc, #16]	; (80000e4 <__do_global_dtors_aux+0x24>)
 80000d2:	e000      	b.n	80000d6 <__do_global_dtors_aux+0x16>
 80000d4:	bf00      	nop
 80000d6:	2301      	movs	r3, #1
 80000d8:	7023      	strb	r3, [r4, #0]
 80000da:	bd10      	pop	{r4, pc}
 80000dc:	200000c8 	.word	0x200000c8
 80000e0:	00000000 	.word	0x00000000
 80000e4:	08008324 	.word	0x08008324

080000e8 <frame_dummy>:
 80000e8:	4b04      	ldr	r3, [pc, #16]	; (80000fc <frame_dummy+0x14>)
 80000ea:	b510      	push	{r4, lr}
 80000ec:	2b00      	cmp	r3, #0
 80000ee:	d003      	beq.n	80000f8 <frame_dummy+0x10>
 80000f0:	4903      	ldr	r1, [pc, #12]	; (8000100 <frame_dummy+0x18>)
 80000f2:	4804      	ldr	r0, [pc, #16]	; (8000104 <frame_dummy+0x1c>)
 80000f4:	e000      	b.n	80000f8 <frame_dummy+0x10>
 80000f6:	bf00      	nop
 80000f8:	bd10      	pop	{r4, pc}
 80000fa:	46c0      	nop			; (mov r8, r8)
 80000fc:	00000000 	.word	0x00000000
 8000100:	200000cc 	.word	0x200000cc
 8000104:	08008324 	.word	0x08008324

08000108 <strlen>:
 8000108:	2300      	movs	r3, #0
 800010a:	5cc2      	ldrb	r2, [r0, r3]
 800010c:	3301      	adds	r3, #1
 800010e:	2a00      	cmp	r2, #0
 8000110:	d1fb      	bne.n	800010a <strlen+0x2>
 8000112:	1e58      	subs	r0, r3, #1
 8000114:	4770      	bx	lr
	...

08000118 <__gnu_thumb1_case_shi>:
 8000118:	b403      	push	{r0, r1}
 800011a:	4671      	mov	r1, lr
 800011c:	0849      	lsrs	r1, r1, #1
 800011e:	0040      	lsls	r0, r0, #1
 8000120:	0049      	lsls	r1, r1, #1
 8000122:	5e09      	ldrsh	r1, [r1, r0]
 8000124:	0049      	lsls	r1, r1, #1
 8000126:	448e      	add	lr, r1
 8000128:	bc03      	pop	{r0, r1}
 800012a:	4770      	bx	lr

0800012c <__udivsi3>:
 800012c:	2200      	movs	r2, #0
 800012e:	0843      	lsrs	r3, r0, #1
 8000130:	428b      	cmp	r3, r1
 8000132:	d374      	bcc.n	800021e <__udivsi3+0xf2>
 8000134:	0903      	lsrs	r3, r0, #4
 8000136:	428b      	cmp	r3, r1
 8000138:	d35f      	bcc.n	80001fa <__udivsi3+0xce>
 800013a:	0a03      	lsrs	r3, r0, #8
 800013c:	428b      	cmp	r3, r1
 800013e:	d344      	bcc.n	80001ca <__udivsi3+0x9e>
 8000140:	0b03      	lsrs	r3, r0, #12
 8000142:	428b      	cmp	r3, r1
 8000144:	d328      	bcc.n	8000198 <__udivsi3+0x6c>
 8000146:	0c03      	lsrs	r3, r0, #16
 8000148:	428b      	cmp	r3, r1
 800014a:	d30d      	bcc.n	8000168 <__udivsi3+0x3c>
 800014c:	22ff      	movs	r2, #255	; 0xff
 800014e:	0209      	lsls	r1, r1, #8
 8000150:	ba12      	rev	r2, r2
 8000152:	0c03      	lsrs	r3, r0, #16
 8000154:	428b      	cmp	r3, r1
 8000156:	d302      	bcc.n	800015e <__udivsi3+0x32>
 8000158:	1212      	asrs	r2, r2, #8
 800015a:	0209      	lsls	r1, r1, #8
 800015c:	d065      	beq.n	800022a <__udivsi3+0xfe>
 800015e:	0b03      	lsrs	r3, r0, #12
 8000160:	428b      	cmp	r3, r1
 8000162:	d319      	bcc.n	8000198 <__udivsi3+0x6c>
 8000164:	e000      	b.n	8000168 <__udivsi3+0x3c>
 8000166:	0a09      	lsrs	r1, r1, #8
 8000168:	0bc3      	lsrs	r3, r0, #15
 800016a:	428b      	cmp	r3, r1
 800016c:	d301      	bcc.n	8000172 <__udivsi3+0x46>
 800016e:	03cb      	lsls	r3, r1, #15
 8000170:	1ac0      	subs	r0, r0, r3
 8000172:	4152      	adcs	r2, r2
 8000174:	0b83      	lsrs	r3, r0, #14
 8000176:	428b      	cmp	r3, r1
 8000178:	d301      	bcc.n	800017e <__udivsi3+0x52>
 800017a:	038b      	lsls	r3, r1, #14
 800017c:	1ac0      	subs	r0, r0, r3
 800017e:	4152      	adcs	r2, r2
 8000180:	0b43      	lsrs	r3, r0, #13
 8000182:	428b      	cmp	r3, r1
 8000184:	d301      	bcc.n	800018a <__udivsi3+0x5e>
 8000186:	034b      	lsls	r3, r1, #13
 8000188:	1ac0      	subs	r0, r0, r3
 800018a:	4152      	adcs	r2, r2
 800018c:	0b03      	lsrs	r3, r0, #12
 800018e:	428b      	cmp	r3, r1
 8000190:	d301      	bcc.n	8000196 <__udivsi3+0x6a>
 8000192:	030b      	lsls	r3, r1, #12
 8000194:	1ac0      	subs	r0, r0, r3
 8000196:	4152      	adcs	r2, r2
 8000198:	0ac3      	lsrs	r3, r0, #11
 800019a:	428b      	cmp	r3, r1
 800019c:	d301      	bcc.n	80001a2 <__udivsi3+0x76>
 800019e:	02cb      	lsls	r3, r1, #11
 80001a0:	1ac0      	subs	r0, r0, r3
 80001a2:	4152      	adcs	r2, r2
 80001a4:	0a83      	lsrs	r3, r0, #10
 80001a6:	428b      	cmp	r3, r1
 80001a8:	d301      	bcc.n	80001ae <__udivsi3+0x82>
 80001aa:	028b      	lsls	r3, r1, #10
 80001ac:	1ac0      	subs	r0, r0, r3
 80001ae:	4152      	adcs	r2, r2
 80001b0:	0a43      	lsrs	r3, r0, #9
 80001b2:	428b      	cmp	r3, r1
 80001b4:	d301      	bcc.n	80001ba <__udivsi3+0x8e>
 80001b6:	024b      	lsls	r3, r1, #9
 80001b8:	1ac0      	subs	r0, r0, r3
 80001ba:	4152      	adcs	r2, r2
 80001bc:	0a03      	lsrs	r3, r0, #8
 80001be:	428b      	cmp	r3, r1
 80001c0:	d301      	bcc.n	80001c6 <__udivsi3+0x9a>
 80001c2:	020b      	lsls	r3, r1, #8
 80001c4:	1ac0      	subs	r0, r0, r3
 80001c6:	4152      	adcs	r2, r2
 80001c8:	d2cd      	bcs.n	8000166 <__udivsi3+0x3a>
 80001ca:	09c3      	lsrs	r3, r0, #7
 80001cc:	428b      	cmp	r3, r1
 80001ce:	d301      	bcc.n	80001d4 <__udivsi3+0xa8>
 80001d0:	01cb      	lsls	r3, r1, #7
 80001d2:	1ac0      	subs	r0, r0, r3
 80001d4:	4152      	adcs	r2, r2
 80001d6:	0983      	lsrs	r3, r0, #6
 80001d8:	428b      	cmp	r3, r1
 80001da:	d301      	bcc.n	80001e0 <__udivsi3+0xb4>
 80001dc:	018b      	lsls	r3, r1, #6
 80001de:	1ac0      	subs	r0, r0, r3
 80001e0:	4152      	adcs	r2, r2
 80001e2:	0943      	lsrs	r3, r0, #5
 80001e4:	428b      	cmp	r3, r1
 80001e6:	d301      	bcc.n	80001ec <__udivsi3+0xc0>
 80001e8:	014b      	lsls	r3, r1, #5
 80001ea:	1ac0      	subs	r0, r0, r3
 80001ec:	4152      	adcs	r2, r2
 80001ee:	0903      	lsrs	r3, r0, #4
 80001f0:	428b      	cmp	r3, r1
 80001f2:	d301      	bcc.n	80001f8 <__udivsi3+0xcc>
 80001f4:	010b      	lsls	r3, r1, #4
 80001f6:	1ac0      	subs	r0, r0, r3
 80001f8:	4152      	adcs	r2, r2
 80001fa:	08c3      	lsrs	r3, r0, #3
 80001fc:	428b      	cmp	r3, r1
 80001fe:	d301      	bcc.n	8000204 <__udivsi3+0xd8>
 8000200:	00cb      	lsls	r3, r1, #3
 8000202:	1ac0      	subs	r0, r0, r3
 8000204:	4152      	adcs	r2, r2
 8000206:	0883      	lsrs	r3, r0, #2
 8000208:	428b      	cmp	r3, r1
 800020a:	d301      	bcc.n	8000210 <__udivsi3+0xe4>
 800020c:	008b      	lsls	r3, r1, #2
 800020e:	1ac0      	subs	r0, r0, r3
 8000210:	4152      	adcs	r2, r2
 8000212:	0843      	lsrs	r3, r0, #1
 8000214:	428b      	cmp	r3, r1
 8000216:	d301      	bcc.n	800021c <__udivsi3+0xf0>
 8000218:	004b      	lsls	r3, r1, #1
 800021a:	1ac0      	subs	r0, r0, r3
 800021c:	4152      	adcs	r2, r2
 800021e:	1a41      	subs	r1, r0, r1
 8000220:	d200      	bcs.n	8000224 <__udivsi3+0xf8>
 8000222:	4601      	mov	r1, r0
 8000224:	4152      	adcs	r2, r2
 8000226:	4610      	mov	r0, r2
 8000228:	4770      	bx	lr
 800022a:	e7ff      	b.n	800022c <__udivsi3+0x100>
 800022c:	b501      	push	{r0, lr}
 800022e:	2000      	movs	r0, #0
 8000230:	f000 f806 	bl	8000240 <__aeabi_idiv0>
 8000234:	bd02      	pop	{r1, pc}
 8000236:	46c0      	nop			; (mov r8, r8)

08000238 <__aeabi_uidivmod>:
 8000238:	2900      	cmp	r1, #0
 800023a:	d0f7      	beq.n	800022c <__udivsi3+0x100>
 800023c:	e776      	b.n	800012c <__udivsi3>
 800023e:	4770      	bx	lr

08000240 <__aeabi_idiv0>:
 8000240:	4770      	bx	lr
 8000242:	46c0      	nop			; (mov r8, r8)

08000244 <main>:

/**
 * @brief  The application entry point.
 * @retval int
 */
int main(void) {
 8000244:	b580      	push	{r7, lr}
 8000246:	b082      	sub	sp, #8
 8000248:	af00      	add	r7, sp, #0
	/* USER CODE END 1 */

	/* MCU Configuration--------------------------------------------------------*/

	/* Reset of all peripherals, Initializes the Flash interface and the Systick. */
	HAL_Init();
 800024a:	f000 fa09 	bl	8000660 <HAL_Init>

	/* USER CODE BEGIN Init */
	RCC_CONFIG_48MHZ();
 800024e:	f002 fdab 	bl	8002da8 <RCC_CONFIG_48MHZ>
	uart_print_config(9600);
 8000252:	2396      	movs	r3, #150	; 0x96
 8000254:	019b      	lsls	r3, r3, #6
 8000256:	0018      	movs	r0, r3
 8000258:	f002 fc8a 	bl	8002b70 <uart_print_config>
	print("Working\n");
 800025c:	4b2e      	ldr	r3, [pc, #184]	; (8000318 <main+0xd4>)
 800025e:	0018      	movs	r0, r3
 8000260:	f002 fc46 	bl	8002af0 <print>
//  SystemClock_Config();
	/* USER CODE BEGIN SysInit */
	/* USER CODE END SysInit */

	/* Initialize all configured peripherals */
	MX_GPIO_Init();
 8000264:	f000 f8ac 	bl	80003c0 <MX_GPIO_Init>
	MX_SPI1_Init();
 8000268:	f000 f86c 	bl	8000344 <MX_SPI1_Init>
	MX_FATFS_Init();
 800026c:	f001 fcf6 	bl	8001c5c <MX_FATFS_Init>
	/* USER CODE BEGIN 2 */
	gpio_write(PORTB, 6, LOW);
 8000270:	4b2a      	ldr	r3, [pc, #168]	; (800031c <main+0xd8>)
 8000272:	2200      	movs	r2, #0
 8000274:	2106      	movs	r1, #6
 8000276:	0018      	movs	r0, r3
 8000278:	f002 fc1a 	bl	8002ab0 <gpio_write>
//		myprintf("f_getfree error (%i)\r\n", fres);
//		while (1)
//			;
//	}

	sd_mount();
 800027c:	f002 fde8 	bl	8002e50 <sd_mount>
	HAL_Delay(500);
 8000280:	23fa      	movs	r3, #250	; 0xfa
 8000282:	005b      	lsls	r3, r3, #1
 8000284:	0018      	movs	r0, r3
 8000286:	f000 fa4f 	bl	8000728 <HAL_Delay>
	sd_space();
 800028a:	f002 fe0b 	bl	8002ea4 <sd_space>
//
//	getBMPImageData("wifi.bmp");

	LCD_Begin();
 800028e:	f003 fc3f 	bl	8003b10 <LCD_Begin>
	LCD_SetRotation(0);
 8000292:	2000      	movs	r0, #0
 8000294:	f003 ffa8 	bl	80041e8 <LCD_SetRotation>
	LCD_FillScreen(BLACK);
 8000298:	2000      	movs	r0, #0
 800029a:	f003 fce9 	bl	8003c70 <LCD_FillScreen>

	displayPic24bit("woof.bmp", 0, 0);
 800029e:	4b20      	ldr	r3, [pc, #128]	; (8000320 <main+0xdc>)
 80002a0:	2200      	movs	r2, #0
 80002a2:	2100      	movs	r1, #0
 80002a4:	0018      	movs	r0, r3
 80002a6:	f002 ff23 	bl	80030f0 <displayPic24bit>
	displayPic32bit("kitchen.bmp", 0, 0);
 80002aa:	4b1e      	ldr	r3, [pc, #120]	; (8000324 <main+0xe0>)
 80002ac:	2200      	movs	r2, #0
 80002ae:	2100      	movs	r1, #0
 80002b0:	0018      	movs	r0, r3
 80002b2:	f003 f939 	bl	8003528 <displayPic32bit>
	displayPic24bit("test.bmp", 0, 0);
 80002b6:	4b1c      	ldr	r3, [pc, #112]	; (8000328 <main+0xe4>)
 80002b8:	2200      	movs	r2, #0
 80002ba:	2100      	movs	r1, #0
 80002bc:	0018      	movs	r0, r3
 80002be:	f002 ff17 	bl	80030f0 <displayPic24bit>

	LCD_FillScreen(BLACK);
 80002c2:	2000      	movs	r0, #0
 80002c4:	f003 fcd4 	bl	8003c70 <LCD_FillScreen>
	displayPic32bit("moonfull.bmp", 0, 0);
 80002c8:	4b18      	ldr	r3, [pc, #96]	; (800032c <main+0xe8>)
 80002ca:	2200      	movs	r2, #0
 80002cc:	2100      	movs	r1, #0
 80002ce:	0018      	movs	r0, r3
 80002d0:	f003 f92a 	bl	8003528 <displayPic32bit>

	LCD_FillScreen(WHITE);
 80002d4:	4b16      	ldr	r3, [pc, #88]	; (8000330 <main+0xec>)
 80002d6:	0018      	movs	r0, r3
 80002d8:	f003 fcca 	bl	8003c70 <LCD_FillScreen>

	displayPic24bit("Heart.bmp", 0, 0);
 80002dc:	4b15      	ldr	r3, [pc, #84]	; (8000334 <main+0xf0>)
 80002de:	2200      	movs	r2, #0
 80002e0:	2100      	movs	r1, #0
 80002e2:	0018      	movs	r0, r3
 80002e4:	f002 ff04 	bl	80030f0 <displayPic24bit>
	displayPic24bit("Temp.bmp", 120, 0);
 80002e8:	4b13      	ldr	r3, [pc, #76]	; (8000338 <main+0xf4>)
 80002ea:	2200      	movs	r2, #0
 80002ec:	2178      	movs	r1, #120	; 0x78
 80002ee:	0018      	movs	r0, r3
 80002f0:	f002 fefe 	bl	80030f0 <displayPic24bit>
	displayPic24bit("T24s1.bmp", 0, 150);
 80002f4:	4b11      	ldr	r3, [pc, #68]	; (800033c <main+0xf8>)
 80002f6:	2296      	movs	r2, #150	; 0x96
 80002f8:	2100      	movs	r1, #0
 80002fa:	0018      	movs	r0, r3
 80002fc:	f002 fef8 	bl	80030f0 <displayPic24bit>
	displayPic32bit("moon.bmp", 120, 150);
 8000300:	4b0f      	ldr	r3, [pc, #60]	; (8000340 <main+0xfc>)
 8000302:	2296      	movs	r2, #150	; 0x96
 8000304:	2178      	movs	r1, #120	; 0x78
 8000306:	0018      	movs	r0, r3
 8000308:	f003 f90e 	bl	8003528 <displayPic32bit>




	sd_deMount();
 800030c:	f002 fee2 	bl	80030d4 <sd_deMount>

	uint8_t len = 0;
 8000310:	1dfb      	adds	r3, r7, #7
 8000312:	2200      	movs	r2, #0
 8000314:	701a      	strb	r2, [r3, #0]

	/* USER CODE END 2 */

	/* Infinite loop */
	/* USER CODE BEGIN WHILE */
	while (1) {
 8000316:	e7fe      	b.n	8000316 <main+0xd2>
 8000318:	0800833c 	.word	0x0800833c
 800031c:	48000400 	.word	0x48000400
 8000320:	08008348 	.word	0x08008348
 8000324:	08008354 	.word	0x08008354
 8000328:	08008360 	.word	0x08008360
 800032c:	0800836c 	.word	0x0800836c
 8000330:	0000ffff 	.word	0x0000ffff
 8000334:	0800837c 	.word	0x0800837c
 8000338:	08008388 	.word	0x08008388
 800033c:	08008394 	.word	0x08008394
 8000340:	080083a0 	.word	0x080083a0

08000344 <MX_SPI1_Init>:
/**
 * @brief SPI1 Initialization Function
 * @param None
 * @retval None
 */
static void MX_SPI1_Init(void) {
 8000344:	b580      	push	{r7, lr}
 8000346:	af00      	add	r7, sp, #0
	/* USER CODE END SPI1_Init 0 */

	/* USER CODE BEGIN SPI1_Init 1 */
	/* USER CODE END SPI1_Init 1 */
	/* SPI1 parameter configuration*/
	hspi1.Instance = SPI1;
 8000348:	4b1b      	ldr	r3, [pc, #108]	; (80003b8 <MX_SPI1_Init+0x74>)
 800034a:	4a1c      	ldr	r2, [pc, #112]	; (80003bc <MX_SPI1_Init+0x78>)
 800034c:	601a      	str	r2, [r3, #0]
	hspi1.Init.Mode = SPI_MODE_MASTER;
 800034e:	4b1a      	ldr	r3, [pc, #104]	; (80003b8 <MX_SPI1_Init+0x74>)
 8000350:	2282      	movs	r2, #130	; 0x82
 8000352:	0052      	lsls	r2, r2, #1
 8000354:	605a      	str	r2, [r3, #4]
	hspi1.Init.Direction = SPI_DIRECTION_2LINES;
 8000356:	4b18      	ldr	r3, [pc, #96]	; (80003b8 <MX_SPI1_Init+0x74>)
 8000358:	2200      	movs	r2, #0
 800035a:	609a      	str	r2, [r3, #8]
	hspi1.Init.DataSize = SPI_DATASIZE_8BIT;
 800035c:	4b16      	ldr	r3, [pc, #88]	; (80003b8 <MX_SPI1_Init+0x74>)
 800035e:	22e0      	movs	r2, #224	; 0xe0
 8000360:	00d2      	lsls	r2, r2, #3
 8000362:	60da      	str	r2, [r3, #12]
	hspi1.Init.CLKPolarity = SPI_POLARITY_LOW;
 8000364:	4b14      	ldr	r3, [pc, #80]	; (80003b8 <MX_SPI1_Init+0x74>)
 8000366:	2200      	movs	r2, #0
 8000368:	611a      	str	r2, [r3, #16]
	hspi1.Init.CLKPhase = SPI_PHASE_1EDGE;
 800036a:	4b13      	ldr	r3, [pc, #76]	; (80003b8 <MX_SPI1_Init+0x74>)
 800036c:	2200      	movs	r2, #0
 800036e:	615a      	str	r2, [r3, #20]
	hspi1.Init.NSS = SPI_NSS_SOFT;
 8000370:	4b11      	ldr	r3, [pc, #68]	; (80003b8 <MX_SPI1_Init+0x74>)
 8000372:	2280      	movs	r2, #128	; 0x80
 8000374:	0092      	lsls	r2, r2, #2
 8000376:	619a      	str	r2, [r3, #24]
	hspi1.Init.BaudRatePrescaler = SPI_BAUDRATEPRESCALER_128;
 8000378:	4b0f      	ldr	r3, [pc, #60]	; (80003b8 <MX_SPI1_Init+0x74>)
 800037a:	2230      	movs	r2, #48	; 0x30
 800037c:	61da      	str	r2, [r3, #28]
	hspi1.Init.FirstBit = SPI_FIRSTBIT_MSB;
 800037e:	4b0e      	ldr	r3, [pc, #56]	; (80003b8 <MX_SPI1_Init+0x74>)
 8000380:	2200      	movs	r2, #0
 8000382:	621a      	str	r2, [r3, #32]
	hspi1.Init.TIMode = SPI_TIMODE_DISABLE;
 8000384:	4b0c      	ldr	r3, [pc, #48]	; (80003b8 <MX_SPI1_Init+0x74>)
 8000386:	2200      	movs	r2, #0
 8000388:	625a      	str	r2, [r3, #36]	; 0x24
	hspi1.Init.CRCCalculation = SPI_CRCCALCULATION_DISABLE;
 800038a:	4b0b      	ldr	r3, [pc, #44]	; (80003b8 <MX_SPI1_Init+0x74>)
 800038c:	2200      	movs	r2, #0
 800038e:	629a      	str	r2, [r3, #40]	; 0x28
	hspi1.Init.CRCPolynomial = 7;
 8000390:	4b09      	ldr	r3, [pc, #36]	; (80003b8 <MX_SPI1_Init+0x74>)
 8000392:	2207      	movs	r2, #7
 8000394:	62da      	str	r2, [r3, #44]	; 0x2c
	hspi1.Init.CRCLength = SPI_CRC_LENGTH_DATASIZE;
 8000396:	4b08      	ldr	r3, [pc, #32]	; (80003b8 <MX_SPI1_Init+0x74>)
 8000398:	2200      	movs	r2, #0
 800039a:	631a      	str	r2, [r3, #48]	; 0x30
	hspi1.Init.NSSPMode = SPI_NSS_PULSE_ENABLE;
 800039c:	4b06      	ldr	r3, [pc, #24]	; (80003b8 <MX_SPI1_Init+0x74>)
 800039e:	2208      	movs	r2, #8
 80003a0:	635a      	str	r2, [r3, #52]	; 0x34
	if (HAL_SPI_Init(&hspi1) != HAL_OK) {
 80003a2:	4b05      	ldr	r3, [pc, #20]	; (80003b8 <MX_SPI1_Init+0x74>)
 80003a4:	0018      	movs	r0, r3
 80003a6:	f001 f859 	bl	800145c <HAL_SPI_Init>
 80003aa:	1e03      	subs	r3, r0, #0
 80003ac:	d001      	beq.n	80003b2 <MX_SPI1_Init+0x6e>
		Error_Handler();
 80003ae:	f000 f861 	bl	8000474 <Error_Handler>
	}
	/* USER CODE BEGIN SPI1_Init 2 */
	/* USER CODE END SPI1_Init 2 */

}
 80003b2:	46c0      	nop			; (mov r8, r8)
 80003b4:	46bd      	mov	sp, r7
 80003b6:	bd80      	pop	{r7, pc}
 80003b8:	200000e4 	.word	0x200000e4
 80003bc:	40013000 	.word	0x40013000

080003c0 <MX_GPIO_Init>:
/**
 * @brief GPIO Initialization Function
 * @param None
 * @retval None
 */
static void MX_GPIO_Init(void) {
 80003c0:	b590      	push	{r4, r7, lr}
 80003c2:	b08b      	sub	sp, #44	; 0x2c
 80003c4:	af02      	add	r7, sp, #8
	GPIO_InitTypeDef GPIO_InitStruct = { 0 };
 80003c6:	240c      	movs	r4, #12
 80003c8:	193b      	adds	r3, r7, r4
 80003ca:	0018      	movs	r0, r3
 80003cc:	2314      	movs	r3, #20
 80003ce:	001a      	movs	r2, r3
 80003d0:	2100      	movs	r1, #0
 80003d2:	f007 fb09 	bl	80079e8 <memset>

	/* GPIO Ports Clock Enable */
	__HAL_RCC_GPIOC_CLK_ENABLE();
 80003d6:	4b24      	ldr	r3, [pc, #144]	; (8000468 <MX_GPIO_Init+0xa8>)
 80003d8:	695a      	ldr	r2, [r3, #20]
 80003da:	4b23      	ldr	r3, [pc, #140]	; (8000468 <MX_GPIO_Init+0xa8>)
 80003dc:	2180      	movs	r1, #128	; 0x80
 80003de:	0309      	lsls	r1, r1, #12
 80003e0:	430a      	orrs	r2, r1
 80003e2:	615a      	str	r2, [r3, #20]
 80003e4:	4b20      	ldr	r3, [pc, #128]	; (8000468 <MX_GPIO_Init+0xa8>)
 80003e6:	695a      	ldr	r2, [r3, #20]
 80003e8:	2380      	movs	r3, #128	; 0x80
 80003ea:	031b      	lsls	r3, r3, #12
 80003ec:	4013      	ands	r3, r2
 80003ee:	60bb      	str	r3, [r7, #8]
 80003f0:	68bb      	ldr	r3, [r7, #8]
	__HAL_RCC_GPIOF_CLK_ENABLE();
 80003f2:	4b1d      	ldr	r3, [pc, #116]	; (8000468 <MX_GPIO_Init+0xa8>)
 80003f4:	695a      	ldr	r2, [r3, #20]
 80003f6:	4b1c      	ldr	r3, [pc, #112]	; (8000468 <MX_GPIO_Init+0xa8>)
 80003f8:	2180      	movs	r1, #128	; 0x80
 80003fa:	03c9      	lsls	r1, r1, #15
 80003fc:	430a      	orrs	r2, r1
 80003fe:	615a      	str	r2, [r3, #20]
 8000400:	4b19      	ldr	r3, [pc, #100]	; (8000468 <MX_GPIO_Init+0xa8>)
 8000402:	695a      	ldr	r2, [r3, #20]
 8000404:	2380      	movs	r3, #128	; 0x80
 8000406:	03db      	lsls	r3, r3, #15
 8000408:	4013      	ands	r3, r2
 800040a:	607b      	str	r3, [r7, #4]
 800040c:	687b      	ldr	r3, [r7, #4]
	__HAL_RCC_GPIOA_CLK_ENABLE();
 800040e:	4b16      	ldr	r3, [pc, #88]	; (8000468 <MX_GPIO_Init+0xa8>)
 8000410:	695a      	ldr	r2, [r3, #20]
 8000412:	4b15      	ldr	r3, [pc, #84]	; (8000468 <MX_GPIO_Init+0xa8>)
 8000414:	2180      	movs	r1, #128	; 0x80
 8000416:	0289      	lsls	r1, r1, #10
 8000418:	430a      	orrs	r2, r1
 800041a:	615a      	str	r2, [r3, #20]
 800041c:	4b12      	ldr	r3, [pc, #72]	; (8000468 <MX_GPIO_Init+0xa8>)
 800041e:	695a      	ldr	r2, [r3, #20]
 8000420:	2380      	movs	r3, #128	; 0x80
 8000422:	029b      	lsls	r3, r3, #10
 8000424:	4013      	ands	r3, r2
 8000426:	603b      	str	r3, [r7, #0]
 8000428:	683b      	ldr	r3, [r7, #0]

	/*Configure GPIO pin : B1_Pin */
	GPIO_InitStruct.Pin = B1_Pin;
 800042a:	193b      	adds	r3, r7, r4
 800042c:	2280      	movs	r2, #128	; 0x80
 800042e:	0192      	lsls	r2, r2, #6
 8000430:	601a      	str	r2, [r3, #0]
	GPIO_InitStruct.Mode = GPIO_MODE_IT_FALLING;
 8000432:	193b      	adds	r3, r7, r4
 8000434:	2284      	movs	r2, #132	; 0x84
 8000436:	0392      	lsls	r2, r2, #14
 8000438:	605a      	str	r2, [r3, #4]
	GPIO_InitStruct.Pull = GPIO_NOPULL;
 800043a:	193b      	adds	r3, r7, r4
 800043c:	2200      	movs	r2, #0
 800043e:	609a      	str	r2, [r3, #8]
	HAL_GPIO_Init(B1_GPIO_Port, &GPIO_InitStruct);
 8000440:	193b      	adds	r3, r7, r4
 8000442:	4a0a      	ldr	r2, [pc, #40]	; (800046c <MX_GPIO_Init+0xac>)
 8000444:	0019      	movs	r1, r3
 8000446:	0010      	movs	r0, r2
 8000448:	f000 fa46 	bl	80008d8 <HAL_GPIO_Init>

	gpio_config(SD_CS_GPIO_Port, SD_CS_Pin, OUTPUT_MODE, HIGH_SPEED, DI_PUPD,
 800044c:	4808      	ldr	r0, [pc, #32]	; (8000470 <MX_GPIO_Init+0xb0>)
 800044e:	2300      	movs	r3, #0
 8000450:	9301      	str	r3, [sp, #4]
 8000452:	2300      	movs	r3, #0
 8000454:	9300      	str	r3, [sp, #0]
 8000456:	2302      	movs	r3, #2
 8000458:	2201      	movs	r2, #1
 800045a:	2106      	movs	r1, #6
 800045c:	f002 fa3c 	bl	80028d8 <gpio_config>
	PHPL);

}
 8000460:	46c0      	nop			; (mov r8, r8)
 8000462:	46bd      	mov	sp, r7
 8000464:	b009      	add	sp, #36	; 0x24
 8000466:	bd90      	pop	{r4, r7, pc}
 8000468:	40021000 	.word	0x40021000
 800046c:	48000800 	.word	0x48000800
 8000470:	48000400 	.word	0x48000400

08000474 <Error_Handler>:

/**
 * @brief  This function is executed in case of error occurrence.
 * @retval None
 */
void Error_Handler(void) {
 8000474:	b580      	push	{r7, lr}
 8000476:	af00      	add	r7, sp, #0
	/* USER CODE BEGIN Error_Handler_Debug */
	/* USER CODE END Error_Handler_Debug */
}
 8000478:	46c0      	nop			; (mov r8, r8)
 800047a:	46bd      	mov	sp, r7
 800047c:	bd80      	pop	{r7, pc}
	...

08000480 <HAL_MspInit>:
/* USER CODE END 0 */
/**
  * Initializes the Global MSP.
  */
void HAL_MspInit(void)
{
 8000480:	b580      	push	{r7, lr}
 8000482:	b082      	sub	sp, #8
 8000484:	af00      	add	r7, sp, #0
  /* USER CODE BEGIN MspInit 0 */

  /* USER CODE END MspInit 0 */

  __HAL_RCC_SYSCFG_CLK_ENABLE();
 8000486:	4b0f      	ldr	r3, [pc, #60]	; (80004c4 <HAL_MspInit+0x44>)
 8000488:	699a      	ldr	r2, [r3, #24]
 800048a:	4b0e      	ldr	r3, [pc, #56]	; (80004c4 <HAL_MspInit+0x44>)
 800048c:	2101      	movs	r1, #1
 800048e:	430a      	orrs	r2, r1
 8000490:	619a      	str	r2, [r3, #24]
 8000492:	4b0c      	ldr	r3, [pc, #48]	; (80004c4 <HAL_MspInit+0x44>)
 8000494:	699b      	ldr	r3, [r3, #24]
 8000496:	2201      	movs	r2, #1
 8000498:	4013      	ands	r3, r2
 800049a:	607b      	str	r3, [r7, #4]
 800049c:	687b      	ldr	r3, [r7, #4]
  __HAL_RCC_PWR_CLK_ENABLE();
 800049e:	4b09      	ldr	r3, [pc, #36]	; (80004c4 <HAL_MspInit+0x44>)
 80004a0:	69da      	ldr	r2, [r3, #28]
 80004a2:	4b08      	ldr	r3, [pc, #32]	; (80004c4 <HAL_MspInit+0x44>)
 80004a4:	2180      	movs	r1, #128	; 0x80
 80004a6:	0549      	lsls	r1, r1, #21
 80004a8:	430a      	orrs	r2, r1
 80004aa:	61da      	str	r2, [r3, #28]
 80004ac:	4b05      	ldr	r3, [pc, #20]	; (80004c4 <HAL_MspInit+0x44>)
 80004ae:	69da      	ldr	r2, [r3, #28]
 80004b0:	2380      	movs	r3, #128	; 0x80
 80004b2:	055b      	lsls	r3, r3, #21
 80004b4:	4013      	ands	r3, r2
 80004b6:	603b      	str	r3, [r7, #0]
 80004b8:	683b      	ldr	r3, [r7, #0]
  /* System interrupt init*/

  /* USER CODE BEGIN MspInit 1 */

  /* USER CODE END MspInit 1 */
}
 80004ba:	46c0      	nop			; (mov r8, r8)
 80004bc:	46bd      	mov	sp, r7
 80004be:	b002      	add	sp, #8
 80004c0:	bd80      	pop	{r7, pc}
 80004c2:	46c0      	nop			; (mov r8, r8)
 80004c4:	40021000 	.word	0x40021000

080004c8 <HAL_SPI_MspInit>:
* This function configures the hardware resources used in this example
* @param hspi: SPI handle pointer
* @retval None
*/
void HAL_SPI_MspInit(SPI_HandleTypeDef* hspi)
{
 80004c8:	b590      	push	{r4, r7, lr}
 80004ca:	b08b      	sub	sp, #44	; 0x2c
 80004cc:	af00      	add	r7, sp, #0
 80004ce:	6078      	str	r0, [r7, #4]
  GPIO_InitTypeDef GPIO_InitStruct = {0};
 80004d0:	2414      	movs	r4, #20
 80004d2:	193b      	adds	r3, r7, r4
 80004d4:	0018      	movs	r0, r3
 80004d6:	2314      	movs	r3, #20
 80004d8:	001a      	movs	r2, r3
 80004da:	2100      	movs	r1, #0
 80004dc:	f007 fa84 	bl	80079e8 <memset>
  if(hspi->Instance==SPI1)
 80004e0:	687b      	ldr	r3, [r7, #4]
 80004e2:	681b      	ldr	r3, [r3, #0]
 80004e4:	4a1c      	ldr	r2, [pc, #112]	; (8000558 <HAL_SPI_MspInit+0x90>)
 80004e6:	4293      	cmp	r3, r2
 80004e8:	d132      	bne.n	8000550 <HAL_SPI_MspInit+0x88>
  {
  /* USER CODE BEGIN SPI1_MspInit 0 */

  /* USER CODE END SPI1_MspInit 0 */
    /* Peripheral clock enable */
    __HAL_RCC_SPI1_CLK_ENABLE();
 80004ea:	4b1c      	ldr	r3, [pc, #112]	; (800055c <HAL_SPI_MspInit+0x94>)
 80004ec:	699a      	ldr	r2, [r3, #24]
 80004ee:	4b1b      	ldr	r3, [pc, #108]	; (800055c <HAL_SPI_MspInit+0x94>)
 80004f0:	2180      	movs	r1, #128	; 0x80
 80004f2:	0149      	lsls	r1, r1, #5
 80004f4:	430a      	orrs	r2, r1
 80004f6:	619a      	str	r2, [r3, #24]
 80004f8:	4b18      	ldr	r3, [pc, #96]	; (800055c <HAL_SPI_MspInit+0x94>)
 80004fa:	699a      	ldr	r2, [r3, #24]
 80004fc:	2380      	movs	r3, #128	; 0x80
 80004fe:	015b      	lsls	r3, r3, #5
 8000500:	4013      	ands	r3, r2
 8000502:	613b      	str	r3, [r7, #16]
 8000504:	693b      	ldr	r3, [r7, #16]

    __HAL_RCC_GPIOA_CLK_ENABLE();
 8000506:	4b15      	ldr	r3, [pc, #84]	; (800055c <HAL_SPI_MspInit+0x94>)
 8000508:	695a      	ldr	r2, [r3, #20]
 800050a:	4b14      	ldr	r3, [pc, #80]	; (800055c <HAL_SPI_MspInit+0x94>)
 800050c:	2180      	movs	r1, #128	; 0x80
 800050e:	0289      	lsls	r1, r1, #10
 8000510:	430a      	orrs	r2, r1
 8000512:	615a      	str	r2, [r3, #20]
 8000514:	4b11      	ldr	r3, [pc, #68]	; (800055c <HAL_SPI_MspInit+0x94>)
 8000516:	695a      	ldr	r2, [r3, #20]
 8000518:	2380      	movs	r3, #128	; 0x80
 800051a:	029b      	lsls	r3, r3, #10
 800051c:	4013      	ands	r3, r2
 800051e:	60fb      	str	r3, [r7, #12]
 8000520:	68fb      	ldr	r3, [r7, #12]
    /**SPI1 GPIO Configuration
    PA5     ------> SPI1_SCK
    PA6     ------> SPI1_MISO
    PA7     ------> SPI1_MOSI
    */
    GPIO_InitStruct.Pin = GPIO_PIN_5|GPIO_PIN_6|GPIO_PIN_7;
 8000522:	0021      	movs	r1, r4
 8000524:	187b      	adds	r3, r7, r1
 8000526:	22e0      	movs	r2, #224	; 0xe0
 8000528:	601a      	str	r2, [r3, #0]
    GPIO_InitStruct.Mode = GPIO_MODE_AF_PP;
 800052a:	187b      	adds	r3, r7, r1
 800052c:	2202      	movs	r2, #2
 800052e:	605a      	str	r2, [r3, #4]
    GPIO_InitStruct.Pull = GPIO_NOPULL;
 8000530:	187b      	adds	r3, r7, r1
 8000532:	2200      	movs	r2, #0
 8000534:	609a      	str	r2, [r3, #8]
    GPIO_InitStruct.Speed = GPIO_SPEED_FREQ_HIGH;
 8000536:	187b      	adds	r3, r7, r1
 8000538:	2203      	movs	r2, #3
 800053a:	60da      	str	r2, [r3, #12]
    GPIO_InitStruct.Alternate = GPIO_AF0_SPI1;
 800053c:	187b      	adds	r3, r7, r1
 800053e:	2200      	movs	r2, #0
 8000540:	611a      	str	r2, [r3, #16]
    HAL_GPIO_Init(GPIOA, &GPIO_InitStruct);
 8000542:	187a      	adds	r2, r7, r1
 8000544:	2390      	movs	r3, #144	; 0x90
 8000546:	05db      	lsls	r3, r3, #23
 8000548:	0011      	movs	r1, r2
 800054a:	0018      	movs	r0, r3
 800054c:	f000 f9c4 	bl	80008d8 <HAL_GPIO_Init>
  /* USER CODE BEGIN SPI1_MspInit 1 */

  /* USER CODE END SPI1_MspInit 1 */
  }

}
 8000550:	46c0      	nop			; (mov r8, r8)
 8000552:	46bd      	mov	sp, r7
 8000554:	b00b      	add	sp, #44	; 0x2c
 8000556:	bd90      	pop	{r4, r7, pc}
 8000558:	40013000 	.word	0x40013000
 800055c:	40021000 	.word	0x40021000

08000560 <NMI_Handler>:
/******************************************************************************/
/**
  * @brief This function handles Non maskable interrupt.
  */
void NMI_Handler(void)
{
 8000560:	b580      	push	{r7, lr}
 8000562:	af00      	add	r7, sp, #0
  /* USER CODE BEGIN NonMaskableInt_IRQn 0 */

  /* USER CODE END NonMaskableInt_IRQn 0 */
  /* USER CODE BEGIN NonMaskableInt_IRQn 1 */
  while (1)
 8000564:	e7fe      	b.n	8000564 <NMI_Handler+0x4>

08000566 <HardFault_Handler>:

/**
  * @brief This function handles Hard fault interrupt.
  */
void HardFault_Handler(void)
{
 8000566:	b580      	push	{r7, lr}
 8000568:	af00      	add	r7, sp, #0
  /* USER CODE BEGIN HardFault_IRQn 0 */

  /* USER CODE END HardFault_IRQn 0 */
  while (1)
 800056a:	e7fe      	b.n	800056a <HardFault_Handler+0x4>

0800056c <SVC_Handler>:

/**
  * @brief This function handles System service call via SWI instruction.
  */
void SVC_Handler(void)
{
 800056c:	b580      	push	{r7, lr}
 800056e:	af00      	add	r7, sp, #0

  /* USER CODE END SVC_IRQn 0 */
  /* USER CODE BEGIN SVC_IRQn 1 */

  /* USER CODE END SVC_IRQn 1 */
}
 8000570:	46c0      	nop			; (mov r8, r8)
 8000572:	46bd      	mov	sp, r7
 8000574:	bd80      	pop	{r7, pc}

08000576 <PendSV_Handler>:

/**
  * @brief This function handles Pendable request for system service.
  */
void PendSV_Handler(void)
{
 8000576:	b580      	push	{r7, lr}
 8000578:	af00      	add	r7, sp, #0

  /* USER CODE END PendSV_IRQn 0 */
  /* USER CODE BEGIN PendSV_IRQn 1 */

  /* USER CODE END PendSV_IRQn 1 */
}
 800057a:	46c0      	nop			; (mov r8, r8)
 800057c:	46bd      	mov	sp, r7
 800057e:	bd80      	pop	{r7, pc}

08000580 <SysTick_Handler>:

/**
  * @brief This function handles System tick timer.
  */
void SysTick_Handler(void)
{
 8000580:	b580      	push	{r7, lr}
 8000582:	af00      	add	r7, sp, #0
  /* USER CODE BEGIN SysTick_IRQn 0 */
////
  /* USER CODE END SysTick_IRQn 0 */
  HAL_IncTick();
 8000584:	f000 f8b4 	bl	80006f0 <HAL_IncTick>
  sysIncrementTicks();
 8000588:	f002 fb56 	bl	8002c38 <sysIncrementTicks>
  /* USER CODE BEGIN SysTick_IRQn 1 */
////
  /* USER CODE END SysTick_IRQn 1 */
}
 800058c:	46c0      	nop			; (mov r8, r8)
 800058e:	46bd      	mov	sp, r7
 8000590:	bd80      	pop	{r7, pc}
	...

08000594 <_sbrk>:
 *
 * @param incr Memory size
 * @return Pointer to allocated memory
 */
void *_sbrk(ptrdiff_t incr)
{
 8000594:	b580      	push	{r7, lr}
 8000596:	b086      	sub	sp, #24
 8000598:	af00      	add	r7, sp, #0
 800059a:	6078      	str	r0, [r7, #4]
  extern uint8_t _end; /* Symbol defined in the linker script */
  extern uint8_t _estack; /* Symbol defined in the linker script */
  extern uint32_t _Min_Stack_Size; /* Symbol defined in the linker script */
  const uint32_t stack_limit = (uint32_t)&_estack - (uint32_t)&_Min_Stack_Size;
 800059c:	4a14      	ldr	r2, [pc, #80]	; (80005f0 <_sbrk+0x5c>)
 800059e:	4b15      	ldr	r3, [pc, #84]	; (80005f4 <_sbrk+0x60>)
 80005a0:	1ad3      	subs	r3, r2, r3
 80005a2:	617b      	str	r3, [r7, #20]
  const uint8_t *max_heap = (uint8_t *)stack_limit;
 80005a4:	697b      	ldr	r3, [r7, #20]
 80005a6:	613b      	str	r3, [r7, #16]
  uint8_t *prev_heap_end;

  /* Initialize heap end at first call */
  if (NULL == __sbrk_heap_end)
 80005a8:	4b13      	ldr	r3, [pc, #76]	; (80005f8 <_sbrk+0x64>)
 80005aa:	681b      	ldr	r3, [r3, #0]
 80005ac:	2b00      	cmp	r3, #0
 80005ae:	d102      	bne.n	80005b6 <_sbrk+0x22>
  {
    __sbrk_heap_end = &_end;
 80005b0:	4b11      	ldr	r3, [pc, #68]	; (80005f8 <_sbrk+0x64>)
 80005b2:	4a12      	ldr	r2, [pc, #72]	; (80005fc <_sbrk+0x68>)
 80005b4:	601a      	str	r2, [r3, #0]
  }

  /* Protect heap from growing into the reserved MSP stack */
  if (__sbrk_heap_end + incr > max_heap)
 80005b6:	4b10      	ldr	r3, [pc, #64]	; (80005f8 <_sbrk+0x64>)
 80005b8:	681a      	ldr	r2, [r3, #0]
 80005ba:	687b      	ldr	r3, [r7, #4]
 80005bc:	18d3      	adds	r3, r2, r3
 80005be:	693a      	ldr	r2, [r7, #16]
 80005c0:	429a      	cmp	r2, r3
 80005c2:	d207      	bcs.n	80005d4 <_sbrk+0x40>
  {
    errno = ENOMEM;
 80005c4:	f007 f9e6 	bl	8007994 <__errno>
 80005c8:	0003      	movs	r3, r0
 80005ca:	220c      	movs	r2, #12
 80005cc:	601a      	str	r2, [r3, #0]
    return (void *)-1;
 80005ce:	2301      	movs	r3, #1
 80005d0:	425b      	negs	r3, r3
 80005d2:	e009      	b.n	80005e8 <_sbrk+0x54>
  }

  prev_heap_end = __sbrk_heap_end;
 80005d4:	4b08      	ldr	r3, [pc, #32]	; (80005f8 <_sbrk+0x64>)
 80005d6:	681b      	ldr	r3, [r3, #0]
 80005d8:	60fb      	str	r3, [r7, #12]
  __sbrk_heap_end += incr;
 80005da:	4b07      	ldr	r3, [pc, #28]	; (80005f8 <_sbrk+0x64>)
 80005dc:	681a      	ldr	r2, [r3, #0]
 80005de:	687b      	ldr	r3, [r7, #4]
 80005e0:	18d2      	adds	r2, r2, r3
 80005e2:	4b05      	ldr	r3, [pc, #20]	; (80005f8 <_sbrk+0x64>)
 80005e4:	601a      	str	r2, [r3, #0]

  return (void *)prev_heap_end;
 80005e6:	68fb      	ldr	r3, [r7, #12]
}
 80005e8:	0018      	movs	r0, r3
 80005ea:	46bd      	mov	sp, r7
 80005ec:	b006      	add	sp, #24
 80005ee:	bd80      	pop	{r7, pc}
 80005f0:	20004000 	.word	0x20004000
 80005f4:	00000400 	.word	0x00000400
 80005f8:	20000148 	.word	0x20000148
 80005fc:	20000718 	.word	0x20000718

08000600 <SystemInit>:
  * @brief  Setup the microcontroller system
  * @param  None
  * @retval None
  */
void SystemInit(void)
{
 8000600:	b580      	push	{r7, lr}
 8000602:	af00      	add	r7, sp, #0
                         before branch to main program. This call is made inside
                         the "startup_stm32f0xx.s" file.
                         User can setups the default system clock (System clock source, PLL Multiplier
                         and Divider factors, AHB/APBx prescalers and Flash settings).
   */
}
 8000604:	46c0      	nop			; (mov r8, r8)
 8000606:	46bd      	mov	sp, r7
 8000608:	bd80      	pop	{r7, pc}
	...

0800060c <Reset_Handler>:

  .section .text.Reset_Handler
  .weak Reset_Handler
  .type Reset_Handler, %function
Reset_Handler:
  ldr   r0, =_estack
 800060c:	480d      	ldr	r0, [pc, #52]	; (8000644 <LoopForever+0x2>)
  mov   sp, r0          /* set stack pointer */
 800060e:	4685      	mov	sp, r0

/* Copy the data segment initializers from flash to SRAM */
  ldr r0, =_sdata
 8000610:	480d      	ldr	r0, [pc, #52]	; (8000648 <LoopForever+0x6>)
  ldr r1, =_edata
 8000612:	490e      	ldr	r1, [pc, #56]	; (800064c <LoopForever+0xa>)
  ldr r2, =_sidata
 8000614:	4a0e      	ldr	r2, [pc, #56]	; (8000650 <LoopForever+0xe>)
  movs r3, #0
 8000616:	2300      	movs	r3, #0
  b LoopCopyDataInit
 8000618:	e002      	b.n	8000620 <LoopCopyDataInit>

0800061a <CopyDataInit>:

CopyDataInit:
  ldr r4, [r2, r3]
 800061a:	58d4      	ldr	r4, [r2, r3]
  str r4, [r0, r3]
 800061c:	50c4      	str	r4, [r0, r3]
  adds r3, r3, #4
 800061e:	3304      	adds	r3, #4

08000620 <LoopCopyDataInit>:

LoopCopyDataInit:
  adds r4, r0, r3
 8000620:	18c4      	adds	r4, r0, r3
  cmp r4, r1
 8000622:	428c      	cmp	r4, r1
  bcc CopyDataInit
 8000624:	d3f9      	bcc.n	800061a <CopyDataInit>
  
/* Zero fill the bss segment. */
  ldr r2, =_sbss
 8000626:	4a0b      	ldr	r2, [pc, #44]	; (8000654 <LoopForever+0x12>)
  ldr r4, =_ebss
 8000628:	4c0b      	ldr	r4, [pc, #44]	; (8000658 <LoopForever+0x16>)
  movs r3, #0
 800062a:	2300      	movs	r3, #0
  b LoopFillZerobss
 800062c:	e001      	b.n	8000632 <LoopFillZerobss>

0800062e <FillZerobss>:

FillZerobss:
  str  r3, [r2]
 800062e:	6013      	str	r3, [r2, #0]
  adds r2, r2, #4
 8000630:	3204      	adds	r2, #4

08000632 <LoopFillZerobss>:

LoopFillZerobss:
  cmp r2, r4
 8000632:	42a2      	cmp	r2, r4
  bcc FillZerobss
 8000634:	d3fb      	bcc.n	800062e <FillZerobss>

/* Call the clock system intitialization function.*/
  bl  SystemInit
 8000636:	f7ff ffe3 	bl	8000600 <SystemInit>
/* Call static constructors */
  bl __libc_init_array
 800063a:	f007 f9b1 	bl	80079a0 <__libc_init_array>
/* Call the application's entry point.*/
  bl main
 800063e:	f7ff fe01 	bl	8000244 <main>

08000642 <LoopForever>:

LoopForever:
    b LoopForever
 8000642:	e7fe      	b.n	8000642 <LoopForever>
  ldr   r0, =_estack
 8000644:	20004000 	.word	0x20004000
  ldr r0, =_sdata
 8000648:	20000000 	.word	0x20000000
  ldr r1, =_edata
 800064c:	200000c8 	.word	0x200000c8
  ldr r2, =_sidata
 8000650:	08008a64 	.word	0x08008a64
  ldr r2, =_sbss
 8000654:	200000c8 	.word	0x200000c8
  ldr r4, =_ebss
 8000658:	20000718 	.word	0x20000718

0800065c <ADC1_IRQHandler>:
 * @retval : None
*/
    .section .text.Default_Handler,"ax",%progbits
Default_Handler:
Infinite_Loop:
  b Infinite_Loop
 800065c:	e7fe      	b.n	800065c <ADC1_IRQHandler>
	...

08000660 <HAL_Init>:
  *       In the default implementation,Systick is used as source of time base.
  *       The tick variable is incremented each 1ms in its ISR.
  * @retval HAL status
  */
HAL_StatusTypeDef HAL_Init(void)
{
 8000660:	b580      	push	{r7, lr}
 8000662:	af00      	add	r7, sp, #0
  /* Configure Flash prefetch */ 
#if (PREFETCH_ENABLE != 0)
  __HAL_FLASH_PREFETCH_BUFFER_ENABLE();
 8000664:	4b07      	ldr	r3, [pc, #28]	; (8000684 <HAL_Init+0x24>)
 8000666:	681a      	ldr	r2, [r3, #0]
 8000668:	4b06      	ldr	r3, [pc, #24]	; (8000684 <HAL_Init+0x24>)
 800066a:	2110      	movs	r1, #16
 800066c:	430a      	orrs	r2, r1
 800066e:	601a      	str	r2, [r3, #0]
#endif /* PREFETCH_ENABLE */

  /* Use systick as time base source and configure 1ms tick (default clock after Reset is HSI) */

  HAL_InitTick(TICK_INT_PRIORITY);
 8000670:	2000      	movs	r0, #0
 8000672:	f000 f809 	bl	8000688 <HAL_InitTick>

  /* Init the low level hardware */
  HAL_MspInit();
 8000676:	f7ff ff03 	bl	8000480 <HAL_MspInit>

  /* Return function status */
  return HAL_OK;
 800067a:	2300      	movs	r3, #0
}
 800067c:	0018      	movs	r0, r3
 800067e:	46bd      	mov	sp, r7
 8000680:	bd80      	pop	{r7, pc}
 8000682:	46c0      	nop			; (mov r8, r8)
 8000684:	40022000 	.word	0x40022000

08000688 <HAL_InitTick>:
  *       implementation  in user file.
  * @param TickPriority Tick interrupt priority.
  * @retval HAL status
  */
__weak HAL_StatusTypeDef HAL_InitTick(uint32_t TickPriority)
{
 8000688:	b590      	push	{r4, r7, lr}
 800068a:	b083      	sub	sp, #12
 800068c:	af00      	add	r7, sp, #0
 800068e:	6078      	str	r0, [r7, #4]
  /*Configure the SysTick to have interrupt in 1ms time basis*/
  if (HAL_SYSTICK_Config(SystemCoreClock / (1000U / uwTickFreq)) > 0U)
 8000690:	4b14      	ldr	r3, [pc, #80]	; (80006e4 <HAL_InitTick+0x5c>)
 8000692:	681c      	ldr	r4, [r3, #0]
 8000694:	4b14      	ldr	r3, [pc, #80]	; (80006e8 <HAL_InitTick+0x60>)
 8000696:	781b      	ldrb	r3, [r3, #0]
 8000698:	0019      	movs	r1, r3
 800069a:	23fa      	movs	r3, #250	; 0xfa
 800069c:	0098      	lsls	r0, r3, #2
 800069e:	f7ff fd45 	bl	800012c <__udivsi3>
 80006a2:	0003      	movs	r3, r0
 80006a4:	0019      	movs	r1, r3
 80006a6:	0020      	movs	r0, r4
 80006a8:	f7ff fd40 	bl	800012c <__udivsi3>
 80006ac:	0003      	movs	r3, r0
 80006ae:	0018      	movs	r0, r3
 80006b0:	f000 f905 	bl	80008be <HAL_SYSTICK_Config>
 80006b4:	1e03      	subs	r3, r0, #0
 80006b6:	d001      	beq.n	80006bc <HAL_InitTick+0x34>
  {
    return HAL_ERROR;
 80006b8:	2301      	movs	r3, #1
 80006ba:	e00f      	b.n	80006dc <HAL_InitTick+0x54>
  }

  /* Configure the SysTick IRQ priority */
  if (TickPriority < (1UL << __NVIC_PRIO_BITS))
 80006bc:	687b      	ldr	r3, [r7, #4]
 80006be:	2b03      	cmp	r3, #3
 80006c0:	d80b      	bhi.n	80006da <HAL_InitTick+0x52>
  {
    HAL_NVIC_SetPriority(SysTick_IRQn, TickPriority, 0U);
 80006c2:	6879      	ldr	r1, [r7, #4]
 80006c4:	2301      	movs	r3, #1
 80006c6:	425b      	negs	r3, r3
 80006c8:	2200      	movs	r2, #0
 80006ca:	0018      	movs	r0, r3
 80006cc:	f000 f8e2 	bl	8000894 <HAL_NVIC_SetPriority>
    uwTickPrio = TickPriority;
 80006d0:	4b06      	ldr	r3, [pc, #24]	; (80006ec <HAL_InitTick+0x64>)
 80006d2:	687a      	ldr	r2, [r7, #4]
 80006d4:	601a      	str	r2, [r3, #0]
  {
    return HAL_ERROR;
  }

   /* Return function status */
  return HAL_OK;
 80006d6:	2300      	movs	r3, #0
 80006d8:	e000      	b.n	80006dc <HAL_InitTick+0x54>
    return HAL_ERROR;
 80006da:	2301      	movs	r3, #1
}
 80006dc:	0018      	movs	r0, r3
 80006de:	46bd      	mov	sp, r7
 80006e0:	b003      	add	sp, #12
 80006e2:	bd90      	pop	{r4, r7, pc}
 80006e4:	20000000 	.word	0x20000000
 80006e8:	20000008 	.word	0x20000008
 80006ec:	20000004 	.word	0x20000004

080006f0 <HAL_IncTick>:
  * @note This function is declared as __weak to be overwritten in case of other 
  *       implementations in user file.
  * @retval None
  */
__weak void HAL_IncTick(void)
{
 80006f0:	b580      	push	{r7, lr}
 80006f2:	af00      	add	r7, sp, #0
  uwTick += uwTickFreq;
 80006f4:	4b05      	ldr	r3, [pc, #20]	; (800070c <HAL_IncTick+0x1c>)
 80006f6:	781b      	ldrb	r3, [r3, #0]
 80006f8:	001a      	movs	r2, r3
 80006fa:	4b05      	ldr	r3, [pc, #20]	; (8000710 <HAL_IncTick+0x20>)
 80006fc:	681b      	ldr	r3, [r3, #0]
 80006fe:	18d2      	adds	r2, r2, r3
 8000700:	4b03      	ldr	r3, [pc, #12]	; (8000710 <HAL_IncTick+0x20>)
 8000702:	601a      	str	r2, [r3, #0]
}
 8000704:	46c0      	nop			; (mov r8, r8)
 8000706:	46bd      	mov	sp, r7
 8000708:	bd80      	pop	{r7, pc}
 800070a:	46c0      	nop			; (mov r8, r8)
 800070c:	20000008 	.word	0x20000008
 8000710:	2000014c 	.word	0x2000014c

08000714 <HAL_GetTick>:
  * @note   This function is declared as __weak  to be overwritten  in case of other 
  *       implementations in user file.
  * @retval tick value
  */
__weak uint32_t HAL_GetTick(void)
{
 8000714:	b580      	push	{r7, lr}
 8000716:	af00      	add	r7, sp, #0
  return uwTick;
 8000718:	4b02      	ldr	r3, [pc, #8]	; (8000724 <HAL_GetTick+0x10>)
 800071a:	681b      	ldr	r3, [r3, #0]
}
 800071c:	0018      	movs	r0, r3
 800071e:	46bd      	mov	sp, r7
 8000720:	bd80      	pop	{r7, pc}
 8000722:	46c0      	nop			; (mov r8, r8)
 8000724:	2000014c 	.word	0x2000014c

08000728 <HAL_Delay>:
  *       implementations in user file.
  * @param Delay specifies the delay time length, in milliseconds.
  * @retval None
  */
__weak void HAL_Delay(uint32_t Delay)
{
 8000728:	b580      	push	{r7, lr}
 800072a:	b084      	sub	sp, #16
 800072c:	af00      	add	r7, sp, #0
 800072e:	6078      	str	r0, [r7, #4]
  uint32_t tickstart = HAL_GetTick();
 8000730:	f7ff fff0 	bl	8000714 <HAL_GetTick>
 8000734:	0003      	movs	r3, r0
 8000736:	60bb      	str	r3, [r7, #8]
  uint32_t wait = Delay;
 8000738:	687b      	ldr	r3, [r7, #4]
 800073a:	60fb      	str	r3, [r7, #12]
  
  /* Add a freq to guarantee minimum wait */
  if (wait < HAL_MAX_DELAY)
 800073c:	68fb      	ldr	r3, [r7, #12]
 800073e:	3301      	adds	r3, #1
 8000740:	d005      	beq.n	800074e <HAL_Delay+0x26>
  {
    wait += (uint32_t)(uwTickFreq);
 8000742:	4b0a      	ldr	r3, [pc, #40]	; (800076c <HAL_Delay+0x44>)
 8000744:	781b      	ldrb	r3, [r3, #0]
 8000746:	001a      	movs	r2, r3
 8000748:	68fb      	ldr	r3, [r7, #12]
 800074a:	189b      	adds	r3, r3, r2
 800074c:	60fb      	str	r3, [r7, #12]
  }
  
  while((HAL_GetTick() - tickstart) < wait)
 800074e:	46c0      	nop			; (mov r8, r8)
 8000750:	f7ff ffe0 	bl	8000714 <HAL_GetTick>
 8000754:	0002      	movs	r2, r0
 8000756:	68bb      	ldr	r3, [r7, #8]
 8000758:	1ad3      	subs	r3, r2, r3
 800075a:	68fa      	ldr	r2, [r7, #12]
 800075c:	429a      	cmp	r2, r3
 800075e:	d8f7      	bhi.n	8000750 <HAL_Delay+0x28>
  {
  }
}
 8000760:	46c0      	nop			; (mov r8, r8)
 8000762:	46c0      	nop			; (mov r8, r8)
 8000764:	46bd      	mov	sp, r7
 8000766:	b004      	add	sp, #16
 8000768:	bd80      	pop	{r7, pc}
 800076a:	46c0      	nop			; (mov r8, r8)
 800076c:	20000008 	.word	0x20000008

08000770 <__NVIC_SetPriority>:
  \param [in]      IRQn  Interrupt number.
  \param [in]  priority  Priority to set.
  \note    The priority cannot be set for every processor exception.
 */
__STATIC_INLINE void __NVIC_SetPriority(IRQn_Type IRQn, uint32_t priority)
{
 8000770:	b590      	push	{r4, r7, lr}
 8000772:	b083      	sub	sp, #12
 8000774:	af00      	add	r7, sp, #0
 8000776:	0002      	movs	r2, r0
 8000778:	6039      	str	r1, [r7, #0]
 800077a:	1dfb      	adds	r3, r7, #7
 800077c:	701a      	strb	r2, [r3, #0]
  if ((int32_t)(IRQn) >= 0)
 800077e:	1dfb      	adds	r3, r7, #7
 8000780:	781b      	ldrb	r3, [r3, #0]
 8000782:	2b7f      	cmp	r3, #127	; 0x7f
 8000784:	d828      	bhi.n	80007d8 <__NVIC_SetPriority+0x68>
  {
    NVIC->IP[_IP_IDX(IRQn)]  = ((uint32_t)(NVIC->IP[_IP_IDX(IRQn)]  & ~(0xFFUL << _BIT_SHIFT(IRQn))) |
 8000786:	4a2f      	ldr	r2, [pc, #188]	; (8000844 <__NVIC_SetPriority+0xd4>)
 8000788:	1dfb      	adds	r3, r7, #7
 800078a:	781b      	ldrb	r3, [r3, #0]
 800078c:	b25b      	sxtb	r3, r3
 800078e:	089b      	lsrs	r3, r3, #2
 8000790:	33c0      	adds	r3, #192	; 0xc0
 8000792:	009b      	lsls	r3, r3, #2
 8000794:	589b      	ldr	r3, [r3, r2]
 8000796:	1dfa      	adds	r2, r7, #7
 8000798:	7812      	ldrb	r2, [r2, #0]
 800079a:	0011      	movs	r1, r2
 800079c:	2203      	movs	r2, #3
 800079e:	400a      	ands	r2, r1
 80007a0:	00d2      	lsls	r2, r2, #3
 80007a2:	21ff      	movs	r1, #255	; 0xff
 80007a4:	4091      	lsls	r1, r2
 80007a6:	000a      	movs	r2, r1
 80007a8:	43d2      	mvns	r2, r2
 80007aa:	401a      	ands	r2, r3
 80007ac:	0011      	movs	r1, r2
       (((priority << (8U - __NVIC_PRIO_BITS)) & (uint32_t)0xFFUL) << _BIT_SHIFT(IRQn)));
 80007ae:	683b      	ldr	r3, [r7, #0]
 80007b0:	019b      	lsls	r3, r3, #6
 80007b2:	22ff      	movs	r2, #255	; 0xff
 80007b4:	401a      	ands	r2, r3
 80007b6:	1dfb      	adds	r3, r7, #7
 80007b8:	781b      	ldrb	r3, [r3, #0]
 80007ba:	0018      	movs	r0, r3
 80007bc:	2303      	movs	r3, #3
 80007be:	4003      	ands	r3, r0
 80007c0:	00db      	lsls	r3, r3, #3
 80007c2:	409a      	lsls	r2, r3
    NVIC->IP[_IP_IDX(IRQn)]  = ((uint32_t)(NVIC->IP[_IP_IDX(IRQn)]  & ~(0xFFUL << _BIT_SHIFT(IRQn))) |
 80007c4:	481f      	ldr	r0, [pc, #124]	; (8000844 <__NVIC_SetPriority+0xd4>)
 80007c6:	1dfb      	adds	r3, r7, #7
 80007c8:	781b      	ldrb	r3, [r3, #0]
 80007ca:	b25b      	sxtb	r3, r3
 80007cc:	089b      	lsrs	r3, r3, #2
 80007ce:	430a      	orrs	r2, r1
 80007d0:	33c0      	adds	r3, #192	; 0xc0
 80007d2:	009b      	lsls	r3, r3, #2
 80007d4:	501a      	str	r2, [r3, r0]
  else
  {
    SCB->SHP[_SHP_IDX(IRQn)] = ((uint32_t)(SCB->SHP[_SHP_IDX(IRQn)] & ~(0xFFUL << _BIT_SHIFT(IRQn))) |
       (((priority << (8U - __NVIC_PRIO_BITS)) & (uint32_t)0xFFUL) << _BIT_SHIFT(IRQn)));
  }
}
 80007d6:	e031      	b.n	800083c <__NVIC_SetPriority+0xcc>
    SCB->SHP[_SHP_IDX(IRQn)] = ((uint32_t)(SCB->SHP[_SHP_IDX(IRQn)] & ~(0xFFUL << _BIT_SHIFT(IRQn))) |
 80007d8:	4a1b      	ldr	r2, [pc, #108]	; (8000848 <__NVIC_SetPriority+0xd8>)
 80007da:	1dfb      	adds	r3, r7, #7
 80007dc:	781b      	ldrb	r3, [r3, #0]
 80007de:	0019      	movs	r1, r3
 80007e0:	230f      	movs	r3, #15
 80007e2:	400b      	ands	r3, r1
 80007e4:	3b08      	subs	r3, #8
 80007e6:	089b      	lsrs	r3, r3, #2
 80007e8:	3306      	adds	r3, #6
 80007ea:	009b      	lsls	r3, r3, #2
 80007ec:	18d3      	adds	r3, r2, r3
 80007ee:	3304      	adds	r3, #4
 80007f0:	681b      	ldr	r3, [r3, #0]
 80007f2:	1dfa      	adds	r2, r7, #7
 80007f4:	7812      	ldrb	r2, [r2, #0]
 80007f6:	0011      	movs	r1, r2
 80007f8:	2203      	movs	r2, #3
 80007fa:	400a      	ands	r2, r1
 80007fc:	00d2      	lsls	r2, r2, #3
 80007fe:	21ff      	movs	r1, #255	; 0xff
 8000800:	4091      	lsls	r1, r2
 8000802:	000a      	movs	r2, r1
 8000804:	43d2      	mvns	r2, r2
 8000806:	401a      	ands	r2, r3
 8000808:	0011      	movs	r1, r2
       (((priority << (8U - __NVIC_PRIO_BITS)) & (uint32_t)0xFFUL) << _BIT_SHIFT(IRQn)));
 800080a:	683b      	ldr	r3, [r7, #0]
 800080c:	019b      	lsls	r3, r3, #6
 800080e:	22ff      	movs	r2, #255	; 0xff
 8000810:	401a      	ands	r2, r3
 8000812:	1dfb      	adds	r3, r7, #7
 8000814:	781b      	ldrb	r3, [r3, #0]
 8000816:	0018      	movs	r0, r3
 8000818:	2303      	movs	r3, #3
 800081a:	4003      	ands	r3, r0
 800081c:	00db      	lsls	r3, r3, #3
 800081e:	409a      	lsls	r2, r3
    SCB->SHP[_SHP_IDX(IRQn)] = ((uint32_t)(SCB->SHP[_SHP_IDX(IRQn)] & ~(0xFFUL << _BIT_SHIFT(IRQn))) |
 8000820:	4809      	ldr	r0, [pc, #36]	; (8000848 <__NVIC_SetPriority+0xd8>)
 8000822:	1dfb      	adds	r3, r7, #7
 8000824:	781b      	ldrb	r3, [r3, #0]
 8000826:	001c      	movs	r4, r3
 8000828:	230f      	movs	r3, #15
 800082a:	4023      	ands	r3, r4
 800082c:	3b08      	subs	r3, #8
 800082e:	089b      	lsrs	r3, r3, #2
 8000830:	430a      	orrs	r2, r1
 8000832:	3306      	adds	r3, #6
 8000834:	009b      	lsls	r3, r3, #2
 8000836:	18c3      	adds	r3, r0, r3
 8000838:	3304      	adds	r3, #4
 800083a:	601a      	str	r2, [r3, #0]
}
 800083c:	46c0      	nop			; (mov r8, r8)
 800083e:	46bd      	mov	sp, r7
 8000840:	b003      	add	sp, #12
 8000842:	bd90      	pop	{r4, r7, pc}
 8000844:	e000e100 	.word	0xe000e100
 8000848:	e000ed00 	.word	0xe000ed00

0800084c <SysTick_Config>:
  \note    When the variable <b>__Vendor_SysTickConfig</b> is set to 1, then the
           function <b>SysTick_Config</b> is not included. In this case, the file <b><i>device</i>.h</b>
           must contain a vendor-specific implementation of this function.
 */
__STATIC_INLINE uint32_t SysTick_Config(uint32_t ticks)
{
 800084c:	b580      	push	{r7, lr}
 800084e:	b082      	sub	sp, #8
 8000850:	af00      	add	r7, sp, #0
 8000852:	6078      	str	r0, [r7, #4]
  if ((ticks - 1UL) > SysTick_LOAD_RELOAD_Msk)
 8000854:	687b      	ldr	r3, [r7, #4]
 8000856:	1e5a      	subs	r2, r3, #1
 8000858:	2380      	movs	r3, #128	; 0x80
 800085a:	045b      	lsls	r3, r3, #17
 800085c:	429a      	cmp	r2, r3
 800085e:	d301      	bcc.n	8000864 <SysTick_Config+0x18>
  {
    return (1UL);                                                   /* Reload value impossible */
 8000860:	2301      	movs	r3, #1
 8000862:	e010      	b.n	8000886 <SysTick_Config+0x3a>
  }

  SysTick->LOAD  = (uint32_t)(ticks - 1UL);                         /* set reload register */
 8000864:	4b0a      	ldr	r3, [pc, #40]	; (8000890 <SysTick_Config+0x44>)
 8000866:	687a      	ldr	r2, [r7, #4]
 8000868:	3a01      	subs	r2, #1
 800086a:	605a      	str	r2, [r3, #4]
  NVIC_SetPriority (SysTick_IRQn, (1UL << __NVIC_PRIO_BITS) - 1UL); /* set Priority for Systick Interrupt */
 800086c:	2301      	movs	r3, #1
 800086e:	425b      	negs	r3, r3
 8000870:	2103      	movs	r1, #3
 8000872:	0018      	movs	r0, r3
 8000874:	f7ff ff7c 	bl	8000770 <__NVIC_SetPriority>
  SysTick->VAL   = 0UL;                                             /* Load the SysTick Counter Value */
 8000878:	4b05      	ldr	r3, [pc, #20]	; (8000890 <SysTick_Config+0x44>)
 800087a:	2200      	movs	r2, #0
 800087c:	609a      	str	r2, [r3, #8]
  SysTick->CTRL  = SysTick_CTRL_CLKSOURCE_Msk |
 800087e:	4b04      	ldr	r3, [pc, #16]	; (8000890 <SysTick_Config+0x44>)
 8000880:	2207      	movs	r2, #7
 8000882:	601a      	str	r2, [r3, #0]
                   SysTick_CTRL_TICKINT_Msk   |
                   SysTick_CTRL_ENABLE_Msk;                         /* Enable SysTick IRQ and SysTick Timer */
  return (0UL);                                                     /* Function successful */
 8000884:	2300      	movs	r3, #0
}
 8000886:	0018      	movs	r0, r3
 8000888:	46bd      	mov	sp, r7
 800088a:	b002      	add	sp, #8
 800088c:	bd80      	pop	{r7, pc}
 800088e:	46c0      	nop			; (mov r8, r8)
 8000890:	e000e010 	.word	0xe000e010

08000894 <HAL_NVIC_SetPriority>:
  *         with stm32f0xx devices, this parameter is a dummy value and it is ignored, because 
  *         no subpriority supported in Cortex M0 based products.   
  * @retval None
  */
void HAL_NVIC_SetPriority(IRQn_Type IRQn, uint32_t PreemptPriority, uint32_t SubPriority)
{ 
 8000894:	b580      	push	{r7, lr}
 8000896:	b084      	sub	sp, #16
 8000898:	af00      	add	r7, sp, #0
 800089a:	60b9      	str	r1, [r7, #8]
 800089c:	607a      	str	r2, [r7, #4]
 800089e:	210f      	movs	r1, #15
 80008a0:	187b      	adds	r3, r7, r1
 80008a2:	1c02      	adds	r2, r0, #0
 80008a4:	701a      	strb	r2, [r3, #0]
  /* Check the parameters */
  assert_param(IS_NVIC_PREEMPTION_PRIORITY(PreemptPriority));
  NVIC_SetPriority(IRQn,PreemptPriority);
 80008a6:	68ba      	ldr	r2, [r7, #8]
 80008a8:	187b      	adds	r3, r7, r1
 80008aa:	781b      	ldrb	r3, [r3, #0]
 80008ac:	b25b      	sxtb	r3, r3
 80008ae:	0011      	movs	r1, r2
 80008b0:	0018      	movs	r0, r3
 80008b2:	f7ff ff5d 	bl	8000770 <__NVIC_SetPriority>
}
 80008b6:	46c0      	nop			; (mov r8, r8)
 80008b8:	46bd      	mov	sp, r7
 80008ba:	b004      	add	sp, #16
 80008bc:	bd80      	pop	{r7, pc}

080008be <HAL_SYSTICK_Config>:
  * @param  TicksNumb Specifies the ticks Number of ticks between two interrupts.
  * @retval status:  - 0  Function succeeded.
  *                  - 1  Function failed.
  */
uint32_t HAL_SYSTICK_Config(uint32_t TicksNumb)
{
 80008be:	b580      	push	{r7, lr}
 80008c0:	b082      	sub	sp, #8
 80008c2:	af00      	add	r7, sp, #0
 80008c4:	6078      	str	r0, [r7, #4]
   return SysTick_Config(TicksNumb);
 80008c6:	687b      	ldr	r3, [r7, #4]
 80008c8:	0018      	movs	r0, r3
 80008ca:	f7ff ffbf 	bl	800084c <SysTick_Config>
 80008ce:	0003      	movs	r3, r0
}
 80008d0:	0018      	movs	r0, r3
 80008d2:	46bd      	mov	sp, r7
 80008d4:	b002      	add	sp, #8
 80008d6:	bd80      	pop	{r7, pc}

080008d8 <HAL_GPIO_Init>:
  * @param  GPIO_Init pointer to a GPIO_InitTypeDef structure that contains
  *         the configuration information for the specified GPIO peripheral.
  * @retval None
  */
void HAL_GPIO_Init(GPIO_TypeDef  *GPIOx, GPIO_InitTypeDef *GPIO_Init)
{
 80008d8:	b580      	push	{r7, lr}
 80008da:	b086      	sub	sp, #24
 80008dc:	af00      	add	r7, sp, #0
 80008de:	6078      	str	r0, [r7, #4]
 80008e0:	6039      	str	r1, [r7, #0]
  uint32_t position = 0x00u;
 80008e2:	2300      	movs	r3, #0
 80008e4:	617b      	str	r3, [r7, #20]
  assert_param(IS_GPIO_ALL_INSTANCE(GPIOx));
  assert_param(IS_GPIO_PIN(GPIO_Init->Pin));
  assert_param(IS_GPIO_MODE(GPIO_Init->Mode));

  /* Configure the port pins */
  while (((GPIO_Init->Pin) >> position) != 0x00u)
 80008e6:	e14f      	b.n	8000b88 <HAL_GPIO_Init+0x2b0>
  {
    /* Get current io position */
    iocurrent = (GPIO_Init->Pin) & (1uL << position);
 80008e8:	683b      	ldr	r3, [r7, #0]
 80008ea:	681b      	ldr	r3, [r3, #0]
 80008ec:	2101      	movs	r1, #1
 80008ee:	697a      	ldr	r2, [r7, #20]
 80008f0:	4091      	lsls	r1, r2
 80008f2:	000a      	movs	r2, r1
 80008f4:	4013      	ands	r3, r2
 80008f6:	60fb      	str	r3, [r7, #12]

    if (iocurrent != 0x00u)
 80008f8:	68fb      	ldr	r3, [r7, #12]
 80008fa:	2b00      	cmp	r3, #0
 80008fc:	d100      	bne.n	8000900 <HAL_GPIO_Init+0x28>
 80008fe:	e140      	b.n	8000b82 <HAL_GPIO_Init+0x2aa>
    {
      /*--------------------- GPIO Mode Configuration ------------------------*/
      /* In case of Output or Alternate function mode selection */
      if(((GPIO_Init->Mode & GPIO_MODE) == MODE_OUTPUT) ||
 8000900:	683b      	ldr	r3, [r7, #0]
 8000902:	685b      	ldr	r3, [r3, #4]
 8000904:	2203      	movs	r2, #3
 8000906:	4013      	ands	r3, r2
 8000908:	2b01      	cmp	r3, #1
 800090a:	d005      	beq.n	8000918 <HAL_GPIO_Init+0x40>
         ((GPIO_Init->Mode & GPIO_MODE) == MODE_AF))
 800090c:	683b      	ldr	r3, [r7, #0]
 800090e:	685b      	ldr	r3, [r3, #4]
 8000910:	2203      	movs	r2, #3
 8000912:	4013      	ands	r3, r2
      if(((GPIO_Init->Mode & GPIO_MODE) == MODE_OUTPUT) ||
 8000914:	2b02      	cmp	r3, #2
 8000916:	d130      	bne.n	800097a <HAL_GPIO_Init+0xa2>
      {
        /* Check the Speed parameter */
        assert_param(IS_GPIO_SPEED(GPIO_Init->Speed));
        /* Configure the IO Speed */
        temp = GPIOx->OSPEEDR;
 8000918:	687b      	ldr	r3, [r7, #4]
 800091a:	689b      	ldr	r3, [r3, #8]
 800091c:	613b      	str	r3, [r7, #16]
        temp &= ~(GPIO_OSPEEDER_OSPEEDR0 << (position * 2u));
 800091e:	697b      	ldr	r3, [r7, #20]
 8000920:	005b      	lsls	r3, r3, #1
 8000922:	2203      	movs	r2, #3
 8000924:	409a      	lsls	r2, r3
 8000926:	0013      	movs	r3, r2
 8000928:	43da      	mvns	r2, r3
 800092a:	693b      	ldr	r3, [r7, #16]
 800092c:	4013      	ands	r3, r2
 800092e:	613b      	str	r3, [r7, #16]
        temp |= (GPIO_Init->Speed << (position * 2u));
 8000930:	683b      	ldr	r3, [r7, #0]
 8000932:	68da      	ldr	r2, [r3, #12]
 8000934:	697b      	ldr	r3, [r7, #20]
 8000936:	005b      	lsls	r3, r3, #1
 8000938:	409a      	lsls	r2, r3
 800093a:	0013      	movs	r3, r2
 800093c:	693a      	ldr	r2, [r7, #16]
 800093e:	4313      	orrs	r3, r2
 8000940:	613b      	str	r3, [r7, #16]
        GPIOx->OSPEEDR = temp;
 8000942:	687b      	ldr	r3, [r7, #4]
 8000944:	693a      	ldr	r2, [r7, #16]
 8000946:	609a      	str	r2, [r3, #8]

        /* Configure the IO Output Type */
        temp = GPIOx->OTYPER;
 8000948:	687b      	ldr	r3, [r7, #4]
 800094a:	685b      	ldr	r3, [r3, #4]
 800094c:	613b      	str	r3, [r7, #16]
        temp &= ~(GPIO_OTYPER_OT_0 << position) ;
 800094e:	2201      	movs	r2, #1
 8000950:	697b      	ldr	r3, [r7, #20]
 8000952:	409a      	lsls	r2, r3
 8000954:	0013      	movs	r3, r2
 8000956:	43da      	mvns	r2, r3
 8000958:	693b      	ldr	r3, [r7, #16]
 800095a:	4013      	ands	r3, r2
 800095c:	613b      	str	r3, [r7, #16]
        temp |= (((GPIO_Init->Mode & OUTPUT_TYPE) >> OUTPUT_TYPE_Pos) << position);
 800095e:	683b      	ldr	r3, [r7, #0]
 8000960:	685b      	ldr	r3, [r3, #4]
 8000962:	091b      	lsrs	r3, r3, #4
 8000964:	2201      	movs	r2, #1
 8000966:	401a      	ands	r2, r3
 8000968:	697b      	ldr	r3, [r7, #20]
 800096a:	409a      	lsls	r2, r3
 800096c:	0013      	movs	r3, r2
 800096e:	693a      	ldr	r2, [r7, #16]
 8000970:	4313      	orrs	r3, r2
 8000972:	613b      	str	r3, [r7, #16]
        GPIOx->OTYPER = temp;
 8000974:	687b      	ldr	r3, [r7, #4]
 8000976:	693a      	ldr	r2, [r7, #16]
 8000978:	605a      	str	r2, [r3, #4]
      }
      
      if((GPIO_Init->Mode & GPIO_MODE) != MODE_ANALOG)
 800097a:	683b      	ldr	r3, [r7, #0]
 800097c:	685b      	ldr	r3, [r3, #4]
 800097e:	2203      	movs	r2, #3
 8000980:	4013      	ands	r3, r2
 8000982:	2b03      	cmp	r3, #3
 8000984:	d017      	beq.n	80009b6 <HAL_GPIO_Init+0xde>
      {
        /* Check the Pull parameter */
        assert_param(IS_GPIO_PULL(GPIO_Init->Pull));

        /* Activate the Pull-up or Pull down resistor for the current IO */
        temp = GPIOx->PUPDR;
 8000986:	687b      	ldr	r3, [r7, #4]
 8000988:	68db      	ldr	r3, [r3, #12]
 800098a:	613b      	str	r3, [r7, #16]
        temp &= ~(GPIO_PUPDR_PUPDR0 << (position * 2u));
 800098c:	697b      	ldr	r3, [r7, #20]
 800098e:	005b      	lsls	r3, r3, #1
 8000990:	2203      	movs	r2, #3
 8000992:	409a      	lsls	r2, r3
 8000994:	0013      	movs	r3, r2
 8000996:	43da      	mvns	r2, r3
 8000998:	693b      	ldr	r3, [r7, #16]
 800099a:	4013      	ands	r3, r2
 800099c:	613b      	str	r3, [r7, #16]
        temp |= ((GPIO_Init->Pull) << (position * 2u));
 800099e:	683b      	ldr	r3, [r7, #0]
 80009a0:	689a      	ldr	r2, [r3, #8]
 80009a2:	697b      	ldr	r3, [r7, #20]
 80009a4:	005b      	lsls	r3, r3, #1
 80009a6:	409a      	lsls	r2, r3
 80009a8:	0013      	movs	r3, r2
 80009aa:	693a      	ldr	r2, [r7, #16]
 80009ac:	4313      	orrs	r3, r2
 80009ae:	613b      	str	r3, [r7, #16]
        GPIOx->PUPDR = temp;
 80009b0:	687b      	ldr	r3, [r7, #4]
 80009b2:	693a      	ldr	r2, [r7, #16]
 80009b4:	60da      	str	r2, [r3, #12]
      }

      /* In case of Alternate function mode selection */
      if((GPIO_Init->Mode & GPIO_MODE) == MODE_AF)
 80009b6:	683b      	ldr	r3, [r7, #0]
 80009b8:	685b      	ldr	r3, [r3, #4]
 80009ba:	2203      	movs	r2, #3
 80009bc:	4013      	ands	r3, r2
 80009be:	2b02      	cmp	r3, #2
 80009c0:	d123      	bne.n	8000a0a <HAL_GPIO_Init+0x132>
        /* Check the Alternate function parameters */
        assert_param(IS_GPIO_AF_INSTANCE(GPIOx));
        assert_param(IS_GPIO_AF(GPIO_Init->Alternate));

        /* Configure Alternate function mapped with the current IO */
        temp = GPIOx->AFR[position >> 3u];
 80009c2:	697b      	ldr	r3, [r7, #20]
 80009c4:	08da      	lsrs	r2, r3, #3
 80009c6:	687b      	ldr	r3, [r7, #4]
 80009c8:	3208      	adds	r2, #8
 80009ca:	0092      	lsls	r2, r2, #2
 80009cc:	58d3      	ldr	r3, [r2, r3]
 80009ce:	613b      	str	r3, [r7, #16]
        temp &= ~(0xFu << ((position & 0x07u) * 4u));
 80009d0:	697b      	ldr	r3, [r7, #20]
 80009d2:	2207      	movs	r2, #7
 80009d4:	4013      	ands	r3, r2
 80009d6:	009b      	lsls	r3, r3, #2
 80009d8:	220f      	movs	r2, #15
 80009da:	409a      	lsls	r2, r3
 80009dc:	0013      	movs	r3, r2
 80009de:	43da      	mvns	r2, r3
 80009e0:	693b      	ldr	r3, [r7, #16]
 80009e2:	4013      	ands	r3, r2
 80009e4:	613b      	str	r3, [r7, #16]
        temp |= ((GPIO_Init->Alternate) << ((position & 0x07u) * 4u));
 80009e6:	683b      	ldr	r3, [r7, #0]
 80009e8:	691a      	ldr	r2, [r3, #16]
 80009ea:	697b      	ldr	r3, [r7, #20]
 80009ec:	2107      	movs	r1, #7
 80009ee:	400b      	ands	r3, r1
 80009f0:	009b      	lsls	r3, r3, #2
 80009f2:	409a      	lsls	r2, r3
 80009f4:	0013      	movs	r3, r2
 80009f6:	693a      	ldr	r2, [r7, #16]
 80009f8:	4313      	orrs	r3, r2
 80009fa:	613b      	str	r3, [r7, #16]
        GPIOx->AFR[position >> 3u] = temp;
 80009fc:	697b      	ldr	r3, [r7, #20]
 80009fe:	08da      	lsrs	r2, r3, #3
 8000a00:	687b      	ldr	r3, [r7, #4]
 8000a02:	3208      	adds	r2, #8
 8000a04:	0092      	lsls	r2, r2, #2
 8000a06:	6939      	ldr	r1, [r7, #16]
 8000a08:	50d1      	str	r1, [r2, r3]
      }

      /* Configure IO Direction mode (Input, Output, Alternate or Analog) */
      temp = GPIOx->MODER;
 8000a0a:	687b      	ldr	r3, [r7, #4]
 8000a0c:	681b      	ldr	r3, [r3, #0]
 8000a0e:	613b      	str	r3, [r7, #16]
      temp &= ~(GPIO_MODER_MODER0 << (position * 2u));
 8000a10:	697b      	ldr	r3, [r7, #20]
 8000a12:	005b      	lsls	r3, r3, #1
 8000a14:	2203      	movs	r2, #3
 8000a16:	409a      	lsls	r2, r3
 8000a18:	0013      	movs	r3, r2
 8000a1a:	43da      	mvns	r2, r3
 8000a1c:	693b      	ldr	r3, [r7, #16]
 8000a1e:	4013      	ands	r3, r2
 8000a20:	613b      	str	r3, [r7, #16]
      temp |= ((GPIO_Init->Mode & GPIO_MODE) << (position * 2u));
 8000a22:	683b      	ldr	r3, [r7, #0]
 8000a24:	685b      	ldr	r3, [r3, #4]
 8000a26:	2203      	movs	r2, #3
 8000a28:	401a      	ands	r2, r3
 8000a2a:	697b      	ldr	r3, [r7, #20]
 8000a2c:	005b      	lsls	r3, r3, #1
 8000a2e:	409a      	lsls	r2, r3
 8000a30:	0013      	movs	r3, r2
 8000a32:	693a      	ldr	r2, [r7, #16]
 8000a34:	4313      	orrs	r3, r2
 8000a36:	613b      	str	r3, [r7, #16]
      GPIOx->MODER = temp;
 8000a38:	687b      	ldr	r3, [r7, #4]
 8000a3a:	693a      	ldr	r2, [r7, #16]
 8000a3c:	601a      	str	r2, [r3, #0]

      /*--------------------- EXTI Mode Configuration ------------------------*/
      /* Configure the External Interrupt or event for the current IO */
      if((GPIO_Init->Mode & EXTI_MODE) != 0x00u)
 8000a3e:	683b      	ldr	r3, [r7, #0]
 8000a40:	685a      	ldr	r2, [r3, #4]
 8000a42:	23c0      	movs	r3, #192	; 0xc0
 8000a44:	029b      	lsls	r3, r3, #10
 8000a46:	4013      	ands	r3, r2
 8000a48:	d100      	bne.n	8000a4c <HAL_GPIO_Init+0x174>
 8000a4a:	e09a      	b.n	8000b82 <HAL_GPIO_Init+0x2aa>
      {
        /* Enable SYSCFG Clock */
        __HAL_RCC_SYSCFG_CLK_ENABLE();
 8000a4c:	4b54      	ldr	r3, [pc, #336]	; (8000ba0 <HAL_GPIO_Init+0x2c8>)
 8000a4e:	699a      	ldr	r2, [r3, #24]
 8000a50:	4b53      	ldr	r3, [pc, #332]	; (8000ba0 <HAL_GPIO_Init+0x2c8>)
 8000a52:	2101      	movs	r1, #1
 8000a54:	430a      	orrs	r2, r1
 8000a56:	619a      	str	r2, [r3, #24]
 8000a58:	4b51      	ldr	r3, [pc, #324]	; (8000ba0 <HAL_GPIO_Init+0x2c8>)
 8000a5a:	699b      	ldr	r3, [r3, #24]
 8000a5c:	2201      	movs	r2, #1
 8000a5e:	4013      	ands	r3, r2
 8000a60:	60bb      	str	r3, [r7, #8]
 8000a62:	68bb      	ldr	r3, [r7, #8]

        temp = SYSCFG->EXTICR[position >> 2u];
 8000a64:	4a4f      	ldr	r2, [pc, #316]	; (8000ba4 <HAL_GPIO_Init+0x2cc>)
 8000a66:	697b      	ldr	r3, [r7, #20]
 8000a68:	089b      	lsrs	r3, r3, #2
 8000a6a:	3302      	adds	r3, #2
 8000a6c:	009b      	lsls	r3, r3, #2
 8000a6e:	589b      	ldr	r3, [r3, r2]
 8000a70:	613b      	str	r3, [r7, #16]
        temp &= ~(0x0FuL << (4u * (position & 0x03u)));
 8000a72:	697b      	ldr	r3, [r7, #20]
 8000a74:	2203      	movs	r2, #3
 8000a76:	4013      	ands	r3, r2
 8000a78:	009b      	lsls	r3, r3, #2
 8000a7a:	220f      	movs	r2, #15
 8000a7c:	409a      	lsls	r2, r3
 8000a7e:	0013      	movs	r3, r2
 8000a80:	43da      	mvns	r2, r3
 8000a82:	693b      	ldr	r3, [r7, #16]
 8000a84:	4013      	ands	r3, r2
 8000a86:	613b      	str	r3, [r7, #16]
        temp |= (GPIO_GET_INDEX(GPIOx) << (4u * (position & 0x03u)));
 8000a88:	687a      	ldr	r2, [r7, #4]
 8000a8a:	2390      	movs	r3, #144	; 0x90
 8000a8c:	05db      	lsls	r3, r3, #23
 8000a8e:	429a      	cmp	r2, r3
 8000a90:	d013      	beq.n	8000aba <HAL_GPIO_Init+0x1e2>
 8000a92:	687b      	ldr	r3, [r7, #4]
 8000a94:	4a44      	ldr	r2, [pc, #272]	; (8000ba8 <HAL_GPIO_Init+0x2d0>)
 8000a96:	4293      	cmp	r3, r2
 8000a98:	d00d      	beq.n	8000ab6 <HAL_GPIO_Init+0x1de>
 8000a9a:	687b      	ldr	r3, [r7, #4]
 8000a9c:	4a43      	ldr	r2, [pc, #268]	; (8000bac <HAL_GPIO_Init+0x2d4>)
 8000a9e:	4293      	cmp	r3, r2
 8000aa0:	d007      	beq.n	8000ab2 <HAL_GPIO_Init+0x1da>
 8000aa2:	687b      	ldr	r3, [r7, #4]
 8000aa4:	4a42      	ldr	r2, [pc, #264]	; (8000bb0 <HAL_GPIO_Init+0x2d8>)
 8000aa6:	4293      	cmp	r3, r2
 8000aa8:	d101      	bne.n	8000aae <HAL_GPIO_Init+0x1d6>
 8000aaa:	2303      	movs	r3, #3
 8000aac:	e006      	b.n	8000abc <HAL_GPIO_Init+0x1e4>
 8000aae:	2305      	movs	r3, #5
 8000ab0:	e004      	b.n	8000abc <HAL_GPIO_Init+0x1e4>
 8000ab2:	2302      	movs	r3, #2
 8000ab4:	e002      	b.n	8000abc <HAL_GPIO_Init+0x1e4>
 8000ab6:	2301      	movs	r3, #1
 8000ab8:	e000      	b.n	8000abc <HAL_GPIO_Init+0x1e4>
 8000aba:	2300      	movs	r3, #0
 8000abc:	697a      	ldr	r2, [r7, #20]
 8000abe:	2103      	movs	r1, #3
 8000ac0:	400a      	ands	r2, r1
 8000ac2:	0092      	lsls	r2, r2, #2
 8000ac4:	4093      	lsls	r3, r2
 8000ac6:	693a      	ldr	r2, [r7, #16]
 8000ac8:	4313      	orrs	r3, r2
 8000aca:	613b      	str	r3, [r7, #16]
        SYSCFG->EXTICR[position >> 2u] = temp;
 8000acc:	4935      	ldr	r1, [pc, #212]	; (8000ba4 <HAL_GPIO_Init+0x2cc>)
 8000ace:	697b      	ldr	r3, [r7, #20]
 8000ad0:	089b      	lsrs	r3, r3, #2
 8000ad2:	3302      	adds	r3, #2
 8000ad4:	009b      	lsls	r3, r3, #2
 8000ad6:	693a      	ldr	r2, [r7, #16]
 8000ad8:	505a      	str	r2, [r3, r1]

        /* Clear EXTI line configuration */
        temp = EXTI->IMR;
 8000ada:	4b36      	ldr	r3, [pc, #216]	; (8000bb4 <HAL_GPIO_Init+0x2dc>)
 8000adc:	681b      	ldr	r3, [r3, #0]
 8000ade:	613b      	str	r3, [r7, #16]
        temp &= ~(iocurrent);
 8000ae0:	68fb      	ldr	r3, [r7, #12]
 8000ae2:	43da      	mvns	r2, r3
 8000ae4:	693b      	ldr	r3, [r7, #16]
 8000ae6:	4013      	ands	r3, r2
 8000ae8:	613b      	str	r3, [r7, #16]
        if((GPIO_Init->Mode & EXTI_IT) != 0x00u)
 8000aea:	683b      	ldr	r3, [r7, #0]
 8000aec:	685a      	ldr	r2, [r3, #4]
 8000aee:	2380      	movs	r3, #128	; 0x80
 8000af0:	025b      	lsls	r3, r3, #9
 8000af2:	4013      	ands	r3, r2
 8000af4:	d003      	beq.n	8000afe <HAL_GPIO_Init+0x226>
        {
          temp |= iocurrent;
 8000af6:	693a      	ldr	r2, [r7, #16]
 8000af8:	68fb      	ldr	r3, [r7, #12]
 8000afa:	4313      	orrs	r3, r2
 8000afc:	613b      	str	r3, [r7, #16]
        }
        EXTI->IMR = temp;
 8000afe:	4b2d      	ldr	r3, [pc, #180]	; (8000bb4 <HAL_GPIO_Init+0x2dc>)
 8000b00:	693a      	ldr	r2, [r7, #16]
 8000b02:	601a      	str	r2, [r3, #0]

        temp = EXTI->EMR;
 8000b04:	4b2b      	ldr	r3, [pc, #172]	; (8000bb4 <HAL_GPIO_Init+0x2dc>)
 8000b06:	685b      	ldr	r3, [r3, #4]
 8000b08:	613b      	str	r3, [r7, #16]
        temp &= ~(iocurrent);
 8000b0a:	68fb      	ldr	r3, [r7, #12]
 8000b0c:	43da      	mvns	r2, r3
 8000b0e:	693b      	ldr	r3, [r7, #16]
 8000b10:	4013      	ands	r3, r2
 8000b12:	613b      	str	r3, [r7, #16]
        if((GPIO_Init->Mode & EXTI_EVT) != 0x00u)
 8000b14:	683b      	ldr	r3, [r7, #0]
 8000b16:	685a      	ldr	r2, [r3, #4]
 8000b18:	2380      	movs	r3, #128	; 0x80
 8000b1a:	029b      	lsls	r3, r3, #10
 8000b1c:	4013      	ands	r3, r2
 8000b1e:	d003      	beq.n	8000b28 <HAL_GPIO_Init+0x250>
        {
          temp |= iocurrent;
 8000b20:	693a      	ldr	r2, [r7, #16]
 8000b22:	68fb      	ldr	r3, [r7, #12]
 8000b24:	4313      	orrs	r3, r2
 8000b26:	613b      	str	r3, [r7, #16]
        }
        EXTI->EMR = temp;
 8000b28:	4b22      	ldr	r3, [pc, #136]	; (8000bb4 <HAL_GPIO_Init+0x2dc>)
 8000b2a:	693a      	ldr	r2, [r7, #16]
 8000b2c:	605a      	str	r2, [r3, #4]

        /* Clear Rising Falling edge configuration */
        temp = EXTI->RTSR;
 8000b2e:	4b21      	ldr	r3, [pc, #132]	; (8000bb4 <HAL_GPIO_Init+0x2dc>)
 8000b30:	689b      	ldr	r3, [r3, #8]
 8000b32:	613b      	str	r3, [r7, #16]
        temp &= ~(iocurrent);
 8000b34:	68fb      	ldr	r3, [r7, #12]
 8000b36:	43da      	mvns	r2, r3
 8000b38:	693b      	ldr	r3, [r7, #16]
 8000b3a:	4013      	ands	r3, r2
 8000b3c:	613b      	str	r3, [r7, #16]
        if((GPIO_Init->Mode & TRIGGER_RISING) != 0x00u)
 8000b3e:	683b      	ldr	r3, [r7, #0]
 8000b40:	685a      	ldr	r2, [r3, #4]
 8000b42:	2380      	movs	r3, #128	; 0x80
 8000b44:	035b      	lsls	r3, r3, #13
 8000b46:	4013      	ands	r3, r2
 8000b48:	d003      	beq.n	8000b52 <HAL_GPIO_Init+0x27a>
        {
          temp |= iocurrent;
 8000b4a:	693a      	ldr	r2, [r7, #16]
 8000b4c:	68fb      	ldr	r3, [r7, #12]
 8000b4e:	4313      	orrs	r3, r2
 8000b50:	613b      	str	r3, [r7, #16]
        }
        EXTI->RTSR = temp;
 8000b52:	4b18      	ldr	r3, [pc, #96]	; (8000bb4 <HAL_GPIO_Init+0x2dc>)
 8000b54:	693a      	ldr	r2, [r7, #16]
 8000b56:	609a      	str	r2, [r3, #8]

        temp = EXTI->FTSR;
 8000b58:	4b16      	ldr	r3, [pc, #88]	; (8000bb4 <HAL_GPIO_Init+0x2dc>)
 8000b5a:	68db      	ldr	r3, [r3, #12]
 8000b5c:	613b      	str	r3, [r7, #16]
        temp &= ~(iocurrent);
 8000b5e:	68fb      	ldr	r3, [r7, #12]
 8000b60:	43da      	mvns	r2, r3
 8000b62:	693b      	ldr	r3, [r7, #16]
 8000b64:	4013      	ands	r3, r2
 8000b66:	613b      	str	r3, [r7, #16]
        if((GPIO_Init->Mode & TRIGGER_FALLING) != 0x00u)
 8000b68:	683b      	ldr	r3, [r7, #0]
 8000b6a:	685a      	ldr	r2, [r3, #4]
 8000b6c:	2380      	movs	r3, #128	; 0x80
 8000b6e:	039b      	lsls	r3, r3, #14
 8000b70:	4013      	ands	r3, r2
 8000b72:	d003      	beq.n	8000b7c <HAL_GPIO_Init+0x2a4>
        {
          temp |= iocurrent;
 8000b74:	693a      	ldr	r2, [r7, #16]
 8000b76:	68fb      	ldr	r3, [r7, #12]
 8000b78:	4313      	orrs	r3, r2
 8000b7a:	613b      	str	r3, [r7, #16]
        }
        EXTI->FTSR = temp;
 8000b7c:	4b0d      	ldr	r3, [pc, #52]	; (8000bb4 <HAL_GPIO_Init+0x2dc>)
 8000b7e:	693a      	ldr	r2, [r7, #16]
 8000b80:	60da      	str	r2, [r3, #12]
      }
    }

    position++;
 8000b82:	697b      	ldr	r3, [r7, #20]
 8000b84:	3301      	adds	r3, #1
 8000b86:	617b      	str	r3, [r7, #20]
  while (((GPIO_Init->Pin) >> position) != 0x00u)
 8000b88:	683b      	ldr	r3, [r7, #0]
 8000b8a:	681a      	ldr	r2, [r3, #0]
 8000b8c:	697b      	ldr	r3, [r7, #20]
 8000b8e:	40da      	lsrs	r2, r3
 8000b90:	1e13      	subs	r3, r2, #0
 8000b92:	d000      	beq.n	8000b96 <HAL_GPIO_Init+0x2be>
 8000b94:	e6a8      	b.n	80008e8 <HAL_GPIO_Init+0x10>
  } 
}
 8000b96:	46c0      	nop			; (mov r8, r8)
 8000b98:	46c0      	nop			; (mov r8, r8)
 8000b9a:	46bd      	mov	sp, r7
 8000b9c:	b006      	add	sp, #24
 8000b9e:	bd80      	pop	{r7, pc}
 8000ba0:	40021000 	.word	0x40021000
 8000ba4:	40010000 	.word	0x40010000
 8000ba8:	48000400 	.word	0x48000400
 8000bac:	48000800 	.word	0x48000800
 8000bb0:	48000c00 	.word	0x48000c00
 8000bb4:	40010400 	.word	0x40010400

08000bb8 <HAL_RCC_OscConfig>:
  *         supported by this macro. User should request a transition to HSE Off
  *         first and then HSE On or HSE Bypass.
  * @retval HAL status
  */
HAL_StatusTypeDef HAL_RCC_OscConfig(RCC_OscInitTypeDef  *RCC_OscInitStruct)
{
 8000bb8:	b580      	push	{r7, lr}
 8000bba:	b088      	sub	sp, #32
 8000bbc:	af00      	add	r7, sp, #0
 8000bbe:	6078      	str	r0, [r7, #4]
  uint32_t tickstart;
  uint32_t pll_config;
  uint32_t pll_config2;

  /* Check Null pointer */
  if(RCC_OscInitStruct == NULL)
 8000bc0:	687b      	ldr	r3, [r7, #4]
 8000bc2:	2b00      	cmp	r3, #0
 8000bc4:	d101      	bne.n	8000bca <HAL_RCC_OscConfig+0x12>
  {
    return HAL_ERROR;
 8000bc6:	2301      	movs	r3, #1
 8000bc8:	e305      	b.n	80011d6 <HAL_RCC_OscConfig+0x61e>

  /* Check the parameters */
  assert_param(IS_RCC_OSCILLATORTYPE(RCC_OscInitStruct->OscillatorType));

  /*------------------------------- HSE Configuration ------------------------*/ 
  if(((RCC_OscInitStruct->OscillatorType) & RCC_OSCILLATORTYPE_HSE) == RCC_OSCILLATORTYPE_HSE)
 8000bca:	687b      	ldr	r3, [r7, #4]
 8000bcc:	681b      	ldr	r3, [r3, #0]
 8000bce:	2201      	movs	r2, #1
 8000bd0:	4013      	ands	r3, r2
 8000bd2:	d100      	bne.n	8000bd6 <HAL_RCC_OscConfig+0x1e>
 8000bd4:	e08d      	b.n	8000cf2 <HAL_RCC_OscConfig+0x13a>
  {
    /* Check the parameters */
    assert_param(IS_RCC_HSE(RCC_OscInitStruct->HSEState));

    /* When the HSE is used as system clock or clock source for PLL in these cases it is not allowed to be disabled */
    if((__HAL_RCC_GET_SYSCLK_SOURCE() == RCC_SYSCLKSOURCE_STATUS_HSE) 
 8000bd6:	4bc5      	ldr	r3, [pc, #788]	; (8000eec <HAL_RCC_OscConfig+0x334>)
 8000bd8:	685b      	ldr	r3, [r3, #4]
 8000bda:	220c      	movs	r2, #12
 8000bdc:	4013      	ands	r3, r2
 8000bde:	2b04      	cmp	r3, #4
 8000be0:	d00e      	beq.n	8000c00 <HAL_RCC_OscConfig+0x48>
       || ((__HAL_RCC_GET_SYSCLK_SOURCE() == RCC_SYSCLKSOURCE_STATUS_PLLCLK) && (__HAL_RCC_GET_PLL_OSCSOURCE() == RCC_PLLSOURCE_HSE)))
 8000be2:	4bc2      	ldr	r3, [pc, #776]	; (8000eec <HAL_RCC_OscConfig+0x334>)
 8000be4:	685b      	ldr	r3, [r3, #4]
 8000be6:	220c      	movs	r2, #12
 8000be8:	4013      	ands	r3, r2
 8000bea:	2b08      	cmp	r3, #8
 8000bec:	d116      	bne.n	8000c1c <HAL_RCC_OscConfig+0x64>
 8000bee:	4bbf      	ldr	r3, [pc, #764]	; (8000eec <HAL_RCC_OscConfig+0x334>)
 8000bf0:	685a      	ldr	r2, [r3, #4]
 8000bf2:	23c0      	movs	r3, #192	; 0xc0
 8000bf4:	025b      	lsls	r3, r3, #9
 8000bf6:	401a      	ands	r2, r3
 8000bf8:	2380      	movs	r3, #128	; 0x80
 8000bfa:	025b      	lsls	r3, r3, #9
 8000bfc:	429a      	cmp	r2, r3
 8000bfe:	d10d      	bne.n	8000c1c <HAL_RCC_OscConfig+0x64>
    {
      if((__HAL_RCC_GET_FLAG(RCC_FLAG_HSERDY) != RESET) && (RCC_OscInitStruct->HSEState == RCC_HSE_OFF))
 8000c00:	4bba      	ldr	r3, [pc, #744]	; (8000eec <HAL_RCC_OscConfig+0x334>)
 8000c02:	681a      	ldr	r2, [r3, #0]
 8000c04:	2380      	movs	r3, #128	; 0x80
 8000c06:	029b      	lsls	r3, r3, #10
 8000c08:	4013      	ands	r3, r2
 8000c0a:	d100      	bne.n	8000c0e <HAL_RCC_OscConfig+0x56>
 8000c0c:	e070      	b.n	8000cf0 <HAL_RCC_OscConfig+0x138>
 8000c0e:	687b      	ldr	r3, [r7, #4]
 8000c10:	685b      	ldr	r3, [r3, #4]
 8000c12:	2b00      	cmp	r3, #0
 8000c14:	d000      	beq.n	8000c18 <HAL_RCC_OscConfig+0x60>
 8000c16:	e06b      	b.n	8000cf0 <HAL_RCC_OscConfig+0x138>
      {
        return HAL_ERROR;
 8000c18:	2301      	movs	r3, #1
 8000c1a:	e2dc      	b.n	80011d6 <HAL_RCC_OscConfig+0x61e>
      }
    }
    else
    {
      /* Set the new HSE configuration ---------------------------------------*/
      __HAL_RCC_HSE_CONFIG(RCC_OscInitStruct->HSEState);
 8000c1c:	687b      	ldr	r3, [r7, #4]
 8000c1e:	685b      	ldr	r3, [r3, #4]
 8000c20:	2b01      	cmp	r3, #1
 8000c22:	d107      	bne.n	8000c34 <HAL_RCC_OscConfig+0x7c>
 8000c24:	4bb1      	ldr	r3, [pc, #708]	; (8000eec <HAL_RCC_OscConfig+0x334>)
 8000c26:	681a      	ldr	r2, [r3, #0]
 8000c28:	4bb0      	ldr	r3, [pc, #704]	; (8000eec <HAL_RCC_OscConfig+0x334>)
 8000c2a:	2180      	movs	r1, #128	; 0x80
 8000c2c:	0249      	lsls	r1, r1, #9
 8000c2e:	430a      	orrs	r2, r1
 8000c30:	601a      	str	r2, [r3, #0]
 8000c32:	e02f      	b.n	8000c94 <HAL_RCC_OscConfig+0xdc>
 8000c34:	687b      	ldr	r3, [r7, #4]
 8000c36:	685b      	ldr	r3, [r3, #4]
 8000c38:	2b00      	cmp	r3, #0
 8000c3a:	d10c      	bne.n	8000c56 <HAL_RCC_OscConfig+0x9e>
 8000c3c:	4bab      	ldr	r3, [pc, #684]	; (8000eec <HAL_RCC_OscConfig+0x334>)
 8000c3e:	681a      	ldr	r2, [r3, #0]
 8000c40:	4baa      	ldr	r3, [pc, #680]	; (8000eec <HAL_RCC_OscConfig+0x334>)
 8000c42:	49ab      	ldr	r1, [pc, #684]	; (8000ef0 <HAL_RCC_OscConfig+0x338>)
 8000c44:	400a      	ands	r2, r1
 8000c46:	601a      	str	r2, [r3, #0]
 8000c48:	4ba8      	ldr	r3, [pc, #672]	; (8000eec <HAL_RCC_OscConfig+0x334>)
 8000c4a:	681a      	ldr	r2, [r3, #0]
 8000c4c:	4ba7      	ldr	r3, [pc, #668]	; (8000eec <HAL_RCC_OscConfig+0x334>)
 8000c4e:	49a9      	ldr	r1, [pc, #676]	; (8000ef4 <HAL_RCC_OscConfig+0x33c>)
 8000c50:	400a      	ands	r2, r1
 8000c52:	601a      	str	r2, [r3, #0]
 8000c54:	e01e      	b.n	8000c94 <HAL_RCC_OscConfig+0xdc>
 8000c56:	687b      	ldr	r3, [r7, #4]
 8000c58:	685b      	ldr	r3, [r3, #4]
 8000c5a:	2b05      	cmp	r3, #5
 8000c5c:	d10e      	bne.n	8000c7c <HAL_RCC_OscConfig+0xc4>
 8000c5e:	4ba3      	ldr	r3, [pc, #652]	; (8000eec <HAL_RCC_OscConfig+0x334>)
 8000c60:	681a      	ldr	r2, [r3, #0]
 8000c62:	4ba2      	ldr	r3, [pc, #648]	; (8000eec <HAL_RCC_OscConfig+0x334>)
 8000c64:	2180      	movs	r1, #128	; 0x80
 8000c66:	02c9      	lsls	r1, r1, #11
 8000c68:	430a      	orrs	r2, r1
 8000c6a:	601a      	str	r2, [r3, #0]
 8000c6c:	4b9f      	ldr	r3, [pc, #636]	; (8000eec <HAL_RCC_OscConfig+0x334>)
 8000c6e:	681a      	ldr	r2, [r3, #0]
 8000c70:	4b9e      	ldr	r3, [pc, #632]	; (8000eec <HAL_RCC_OscConfig+0x334>)
 8000c72:	2180      	movs	r1, #128	; 0x80
 8000c74:	0249      	lsls	r1, r1, #9
 8000c76:	430a      	orrs	r2, r1
 8000c78:	601a      	str	r2, [r3, #0]
 8000c7a:	e00b      	b.n	8000c94 <HAL_RCC_OscConfig+0xdc>
 8000c7c:	4b9b      	ldr	r3, [pc, #620]	; (8000eec <HAL_RCC_OscConfig+0x334>)
 8000c7e:	681a      	ldr	r2, [r3, #0]
 8000c80:	4b9a      	ldr	r3, [pc, #616]	; (8000eec <HAL_RCC_OscConfig+0x334>)
 8000c82:	499b      	ldr	r1, [pc, #620]	; (8000ef0 <HAL_RCC_OscConfig+0x338>)
 8000c84:	400a      	ands	r2, r1
 8000c86:	601a      	str	r2, [r3, #0]
 8000c88:	4b98      	ldr	r3, [pc, #608]	; (8000eec <HAL_RCC_OscConfig+0x334>)
 8000c8a:	681a      	ldr	r2, [r3, #0]
 8000c8c:	4b97      	ldr	r3, [pc, #604]	; (8000eec <HAL_RCC_OscConfig+0x334>)
 8000c8e:	4999      	ldr	r1, [pc, #612]	; (8000ef4 <HAL_RCC_OscConfig+0x33c>)
 8000c90:	400a      	ands	r2, r1
 8000c92:	601a      	str	r2, [r3, #0]
      

       /* Check the HSE State */
      if(RCC_OscInitStruct->HSEState != RCC_HSE_OFF)
 8000c94:	687b      	ldr	r3, [r7, #4]
 8000c96:	685b      	ldr	r3, [r3, #4]
 8000c98:	2b00      	cmp	r3, #0
 8000c9a:	d014      	beq.n	8000cc6 <HAL_RCC_OscConfig+0x10e>
      {
        /* Get Start Tick */
        tickstart = HAL_GetTick();
 8000c9c:	f7ff fd3a 	bl	8000714 <HAL_GetTick>
 8000ca0:	0003      	movs	r3, r0
 8000ca2:	61bb      	str	r3, [r7, #24]
        
        /* Wait till HSE is ready */
        while(__HAL_RCC_GET_FLAG(RCC_FLAG_HSERDY) == RESET)
 8000ca4:	e008      	b.n	8000cb8 <HAL_RCC_OscConfig+0x100>
        {
          if((HAL_GetTick() - tickstart ) > HSE_TIMEOUT_VALUE)
 8000ca6:	f7ff fd35 	bl	8000714 <HAL_GetTick>
 8000caa:	0002      	movs	r2, r0
 8000cac:	69bb      	ldr	r3, [r7, #24]
 8000cae:	1ad3      	subs	r3, r2, r3
 8000cb0:	2b64      	cmp	r3, #100	; 0x64
 8000cb2:	d901      	bls.n	8000cb8 <HAL_RCC_OscConfig+0x100>
          {
            return HAL_TIMEOUT;
 8000cb4:	2303      	movs	r3, #3
 8000cb6:	e28e      	b.n	80011d6 <HAL_RCC_OscConfig+0x61e>
        while(__HAL_RCC_GET_FLAG(RCC_FLAG_HSERDY) == RESET)
 8000cb8:	4b8c      	ldr	r3, [pc, #560]	; (8000eec <HAL_RCC_OscConfig+0x334>)
 8000cba:	681a      	ldr	r2, [r3, #0]
 8000cbc:	2380      	movs	r3, #128	; 0x80
 8000cbe:	029b      	lsls	r3, r3, #10
 8000cc0:	4013      	ands	r3, r2
 8000cc2:	d0f0      	beq.n	8000ca6 <HAL_RCC_OscConfig+0xee>
 8000cc4:	e015      	b.n	8000cf2 <HAL_RCC_OscConfig+0x13a>
        }
      }
      else
      {
        /* Get Start Tick */
        tickstart = HAL_GetTick();
 8000cc6:	f7ff fd25 	bl	8000714 <HAL_GetTick>
 8000cca:	0003      	movs	r3, r0
 8000ccc:	61bb      	str	r3, [r7, #24]
        
        /* Wait till HSE is disabled */
        while(__HAL_RCC_GET_FLAG(RCC_FLAG_HSERDY) != RESET)
 8000cce:	e008      	b.n	8000ce2 <HAL_RCC_OscConfig+0x12a>
        {
           if((HAL_GetTick() - tickstart ) > HSE_TIMEOUT_VALUE)
 8000cd0:	f7ff fd20 	bl	8000714 <HAL_GetTick>
 8000cd4:	0002      	movs	r2, r0
 8000cd6:	69bb      	ldr	r3, [r7, #24]
 8000cd8:	1ad3      	subs	r3, r2, r3
 8000cda:	2b64      	cmp	r3, #100	; 0x64
 8000cdc:	d901      	bls.n	8000ce2 <HAL_RCC_OscConfig+0x12a>
          {
            return HAL_TIMEOUT;
 8000cde:	2303      	movs	r3, #3
 8000ce0:	e279      	b.n	80011d6 <HAL_RCC_OscConfig+0x61e>
        while(__HAL_RCC_GET_FLAG(RCC_FLAG_HSERDY) != RESET)
 8000ce2:	4b82      	ldr	r3, [pc, #520]	; (8000eec <HAL_RCC_OscConfig+0x334>)
 8000ce4:	681a      	ldr	r2, [r3, #0]
 8000ce6:	2380      	movs	r3, #128	; 0x80
 8000ce8:	029b      	lsls	r3, r3, #10
 8000cea:	4013      	ands	r3, r2
 8000cec:	d1f0      	bne.n	8000cd0 <HAL_RCC_OscConfig+0x118>
 8000cee:	e000      	b.n	8000cf2 <HAL_RCC_OscConfig+0x13a>
      if((__HAL_RCC_GET_FLAG(RCC_FLAG_HSERDY) != RESET) && (RCC_OscInitStruct->HSEState == RCC_HSE_OFF))
 8000cf0:	46c0      	nop			; (mov r8, r8)
        }
      }
    }
  }
  /*----------------------------- HSI Configuration --------------------------*/ 
  if(((RCC_OscInitStruct->OscillatorType) & RCC_OSCILLATORTYPE_HSI) == RCC_OSCILLATORTYPE_HSI)
 8000cf2:	687b      	ldr	r3, [r7, #4]
 8000cf4:	681b      	ldr	r3, [r3, #0]
 8000cf6:	2202      	movs	r2, #2
 8000cf8:	4013      	ands	r3, r2
 8000cfa:	d100      	bne.n	8000cfe <HAL_RCC_OscConfig+0x146>
 8000cfc:	e06c      	b.n	8000dd8 <HAL_RCC_OscConfig+0x220>
    /* Check the parameters */
    assert_param(IS_RCC_HSI(RCC_OscInitStruct->HSIState));
    assert_param(IS_RCC_CALIBRATION_VALUE(RCC_OscInitStruct->HSICalibrationValue));
    
    /* Check if HSI is used as system clock or as PLL source when PLL is selected as system clock */ 
    if((__HAL_RCC_GET_SYSCLK_SOURCE() == RCC_SYSCLKSOURCE_STATUS_HSI) 
 8000cfe:	4b7b      	ldr	r3, [pc, #492]	; (8000eec <HAL_RCC_OscConfig+0x334>)
 8000d00:	685b      	ldr	r3, [r3, #4]
 8000d02:	220c      	movs	r2, #12
 8000d04:	4013      	ands	r3, r2
 8000d06:	d00e      	beq.n	8000d26 <HAL_RCC_OscConfig+0x16e>
       || ((__HAL_RCC_GET_SYSCLK_SOURCE() == RCC_SYSCLKSOURCE_STATUS_PLLCLK) && (__HAL_RCC_GET_PLL_OSCSOURCE() == RCC_PLLSOURCE_HSI)))
 8000d08:	4b78      	ldr	r3, [pc, #480]	; (8000eec <HAL_RCC_OscConfig+0x334>)
 8000d0a:	685b      	ldr	r3, [r3, #4]
 8000d0c:	220c      	movs	r2, #12
 8000d0e:	4013      	ands	r3, r2
 8000d10:	2b08      	cmp	r3, #8
 8000d12:	d11f      	bne.n	8000d54 <HAL_RCC_OscConfig+0x19c>
 8000d14:	4b75      	ldr	r3, [pc, #468]	; (8000eec <HAL_RCC_OscConfig+0x334>)
 8000d16:	685a      	ldr	r2, [r3, #4]
 8000d18:	23c0      	movs	r3, #192	; 0xc0
 8000d1a:	025b      	lsls	r3, r3, #9
 8000d1c:	401a      	ands	r2, r3
 8000d1e:	2380      	movs	r3, #128	; 0x80
 8000d20:	021b      	lsls	r3, r3, #8
 8000d22:	429a      	cmp	r2, r3
 8000d24:	d116      	bne.n	8000d54 <HAL_RCC_OscConfig+0x19c>
    {
      /* When HSI is used as system clock it will not disabled */
      if((__HAL_RCC_GET_FLAG(RCC_FLAG_HSIRDY) != RESET) && (RCC_OscInitStruct->HSIState != RCC_HSI_ON))
 8000d26:	4b71      	ldr	r3, [pc, #452]	; (8000eec <HAL_RCC_OscConfig+0x334>)
 8000d28:	681b      	ldr	r3, [r3, #0]
 8000d2a:	2202      	movs	r2, #2
 8000d2c:	4013      	ands	r3, r2
 8000d2e:	d005      	beq.n	8000d3c <HAL_RCC_OscConfig+0x184>
 8000d30:	687b      	ldr	r3, [r7, #4]
 8000d32:	68db      	ldr	r3, [r3, #12]
 8000d34:	2b01      	cmp	r3, #1
 8000d36:	d001      	beq.n	8000d3c <HAL_RCC_OscConfig+0x184>
      {
        return HAL_ERROR;
 8000d38:	2301      	movs	r3, #1
 8000d3a:	e24c      	b.n	80011d6 <HAL_RCC_OscConfig+0x61e>
      }
      /* Otherwise, just the calibration is allowed */
      else
      {
        /* Adjusts the Internal High Speed oscillator (HSI) calibration value.*/
        __HAL_RCC_HSI_CALIBRATIONVALUE_ADJUST(RCC_OscInitStruct->HSICalibrationValue);
 8000d3c:	4b6b      	ldr	r3, [pc, #428]	; (8000eec <HAL_RCC_OscConfig+0x334>)
 8000d3e:	681b      	ldr	r3, [r3, #0]
 8000d40:	22f8      	movs	r2, #248	; 0xf8
 8000d42:	4393      	bics	r3, r2
 8000d44:	0019      	movs	r1, r3
 8000d46:	687b      	ldr	r3, [r7, #4]
 8000d48:	691b      	ldr	r3, [r3, #16]
 8000d4a:	00da      	lsls	r2, r3, #3
 8000d4c:	4b67      	ldr	r3, [pc, #412]	; (8000eec <HAL_RCC_OscConfig+0x334>)
 8000d4e:	430a      	orrs	r2, r1
 8000d50:	601a      	str	r2, [r3, #0]
      if((__HAL_RCC_GET_FLAG(RCC_FLAG_HSIRDY) != RESET) && (RCC_OscInitStruct->HSIState != RCC_HSI_ON))
 8000d52:	e041      	b.n	8000dd8 <HAL_RCC_OscConfig+0x220>
      }
    }
    else
    {
      /* Check the HSI State */
      if(RCC_OscInitStruct->HSIState != RCC_HSI_OFF)
 8000d54:	687b      	ldr	r3, [r7, #4]
 8000d56:	68db      	ldr	r3, [r3, #12]
 8000d58:	2b00      	cmp	r3, #0
 8000d5a:	d024      	beq.n	8000da6 <HAL_RCC_OscConfig+0x1ee>
      {
       /* Enable the Internal High Speed oscillator (HSI). */
        __HAL_RCC_HSI_ENABLE();
 8000d5c:	4b63      	ldr	r3, [pc, #396]	; (8000eec <HAL_RCC_OscConfig+0x334>)
 8000d5e:	681a      	ldr	r2, [r3, #0]
 8000d60:	4b62      	ldr	r3, [pc, #392]	; (8000eec <HAL_RCC_OscConfig+0x334>)
 8000d62:	2101      	movs	r1, #1
 8000d64:	430a      	orrs	r2, r1
 8000d66:	601a      	str	r2, [r3, #0]
        
        /* Get Start Tick */
        tickstart = HAL_GetTick();
 8000d68:	f7ff fcd4 	bl	8000714 <HAL_GetTick>
 8000d6c:	0003      	movs	r3, r0
 8000d6e:	61bb      	str	r3, [r7, #24]
        
        /* Wait till HSI is ready */
        while(__HAL_RCC_GET_FLAG(RCC_FLAG_HSIRDY) == RESET)
 8000d70:	e008      	b.n	8000d84 <HAL_RCC_OscConfig+0x1cc>
        {
          if((HAL_GetTick() - tickstart ) > HSI_TIMEOUT_VALUE)
 8000d72:	f7ff fccf 	bl	8000714 <HAL_GetTick>
 8000d76:	0002      	movs	r2, r0
 8000d78:	69bb      	ldr	r3, [r7, #24]
 8000d7a:	1ad3      	subs	r3, r2, r3
 8000d7c:	2b02      	cmp	r3, #2
 8000d7e:	d901      	bls.n	8000d84 <HAL_RCC_OscConfig+0x1cc>
          {
            return HAL_TIMEOUT;
 8000d80:	2303      	movs	r3, #3
 8000d82:	e228      	b.n	80011d6 <HAL_RCC_OscConfig+0x61e>
        while(__HAL_RCC_GET_FLAG(RCC_FLAG_HSIRDY) == RESET)
 8000d84:	4b59      	ldr	r3, [pc, #356]	; (8000eec <HAL_RCC_OscConfig+0x334>)
 8000d86:	681b      	ldr	r3, [r3, #0]
 8000d88:	2202      	movs	r2, #2
 8000d8a:	4013      	ands	r3, r2
 8000d8c:	d0f1      	beq.n	8000d72 <HAL_RCC_OscConfig+0x1ba>
          }
        }
                
        /* Adjusts the Internal High Speed oscillator (HSI) calibration value.*/
        __HAL_RCC_HSI_CALIBRATIONVALUE_ADJUST(RCC_OscInitStruct->HSICalibrationValue);
 8000d8e:	4b57      	ldr	r3, [pc, #348]	; (8000eec <HAL_RCC_OscConfig+0x334>)
 8000d90:	681b      	ldr	r3, [r3, #0]
 8000d92:	22f8      	movs	r2, #248	; 0xf8
 8000d94:	4393      	bics	r3, r2
 8000d96:	0019      	movs	r1, r3
 8000d98:	687b      	ldr	r3, [r7, #4]
 8000d9a:	691b      	ldr	r3, [r3, #16]
 8000d9c:	00da      	lsls	r2, r3, #3
 8000d9e:	4b53      	ldr	r3, [pc, #332]	; (8000eec <HAL_RCC_OscConfig+0x334>)
 8000da0:	430a      	orrs	r2, r1
 8000da2:	601a      	str	r2, [r3, #0]
 8000da4:	e018      	b.n	8000dd8 <HAL_RCC_OscConfig+0x220>
      }
      else
      {
        /* Disable the Internal High Speed oscillator (HSI). */
        __HAL_RCC_HSI_DISABLE();
 8000da6:	4b51      	ldr	r3, [pc, #324]	; (8000eec <HAL_RCC_OscConfig+0x334>)
 8000da8:	681a      	ldr	r2, [r3, #0]
 8000daa:	4b50      	ldr	r3, [pc, #320]	; (8000eec <HAL_RCC_OscConfig+0x334>)
 8000dac:	2101      	movs	r1, #1
 8000dae:	438a      	bics	r2, r1
 8000db0:	601a      	str	r2, [r3, #0]
        
        /* Get Start Tick */
        tickstart = HAL_GetTick();
 8000db2:	f7ff fcaf 	bl	8000714 <HAL_GetTick>
 8000db6:	0003      	movs	r3, r0
 8000db8:	61bb      	str	r3, [r7, #24]
        
        /* Wait till HSI is disabled */
        while(__HAL_RCC_GET_FLAG(RCC_FLAG_HSIRDY) != RESET)
 8000dba:	e008      	b.n	8000dce <HAL_RCC_OscConfig+0x216>
        {
          if((HAL_GetTick() - tickstart ) > HSI_TIMEOUT_VALUE)
 8000dbc:	f7ff fcaa 	bl	8000714 <HAL_GetTick>
 8000dc0:	0002      	movs	r2, r0
 8000dc2:	69bb      	ldr	r3, [r7, #24]
 8000dc4:	1ad3      	subs	r3, r2, r3
 8000dc6:	2b02      	cmp	r3, #2
 8000dc8:	d901      	bls.n	8000dce <HAL_RCC_OscConfig+0x216>
          {
            return HAL_TIMEOUT;
 8000dca:	2303      	movs	r3, #3
 8000dcc:	e203      	b.n	80011d6 <HAL_RCC_OscConfig+0x61e>
        while(__HAL_RCC_GET_FLAG(RCC_FLAG_HSIRDY) != RESET)
 8000dce:	4b47      	ldr	r3, [pc, #284]	; (8000eec <HAL_RCC_OscConfig+0x334>)
 8000dd0:	681b      	ldr	r3, [r3, #0]
 8000dd2:	2202      	movs	r2, #2
 8000dd4:	4013      	ands	r3, r2
 8000dd6:	d1f1      	bne.n	8000dbc <HAL_RCC_OscConfig+0x204>
        }
      }
    }
  }
  /*------------------------------ LSI Configuration -------------------------*/ 
  if(((RCC_OscInitStruct->OscillatorType) & RCC_OSCILLATORTYPE_LSI) == RCC_OSCILLATORTYPE_LSI)
 8000dd8:	687b      	ldr	r3, [r7, #4]
 8000dda:	681b      	ldr	r3, [r3, #0]
 8000ddc:	2208      	movs	r2, #8
 8000dde:	4013      	ands	r3, r2
 8000de0:	d036      	beq.n	8000e50 <HAL_RCC_OscConfig+0x298>
  {
    /* Check the parameters */
    assert_param(IS_RCC_LSI(RCC_OscInitStruct->LSIState));
    
    /* Check the LSI State */
    if(RCC_OscInitStruct->LSIState != RCC_LSI_OFF)
 8000de2:	687b      	ldr	r3, [r7, #4]
 8000de4:	69db      	ldr	r3, [r3, #28]
 8000de6:	2b00      	cmp	r3, #0
 8000de8:	d019      	beq.n	8000e1e <HAL_RCC_OscConfig+0x266>
    {
      /* Enable the Internal Low Speed oscillator (LSI). */
      __HAL_RCC_LSI_ENABLE();
 8000dea:	4b40      	ldr	r3, [pc, #256]	; (8000eec <HAL_RCC_OscConfig+0x334>)
 8000dec:	6a5a      	ldr	r2, [r3, #36]	; 0x24
 8000dee:	4b3f      	ldr	r3, [pc, #252]	; (8000eec <HAL_RCC_OscConfig+0x334>)
 8000df0:	2101      	movs	r1, #1
 8000df2:	430a      	orrs	r2, r1
 8000df4:	625a      	str	r2, [r3, #36]	; 0x24
      
      /* Get Start Tick */
      tickstart = HAL_GetTick();
 8000df6:	f7ff fc8d 	bl	8000714 <HAL_GetTick>
 8000dfa:	0003      	movs	r3, r0
 8000dfc:	61bb      	str	r3, [r7, #24]
      
      /* Wait till LSI is ready */  
      while(__HAL_RCC_GET_FLAG(RCC_FLAG_LSIRDY) == RESET)
 8000dfe:	e008      	b.n	8000e12 <HAL_RCC_OscConfig+0x25a>
      {
        if((HAL_GetTick() - tickstart ) > LSI_TIMEOUT_VALUE)
 8000e00:	f7ff fc88 	bl	8000714 <HAL_GetTick>
 8000e04:	0002      	movs	r2, r0
 8000e06:	69bb      	ldr	r3, [r7, #24]
 8000e08:	1ad3      	subs	r3, r2, r3
 8000e0a:	2b02      	cmp	r3, #2
 8000e0c:	d901      	bls.n	8000e12 <HAL_RCC_OscConfig+0x25a>
        {
          return HAL_TIMEOUT;
 8000e0e:	2303      	movs	r3, #3
 8000e10:	e1e1      	b.n	80011d6 <HAL_RCC_OscConfig+0x61e>
      while(__HAL_RCC_GET_FLAG(RCC_FLAG_LSIRDY) == RESET)
 8000e12:	4b36      	ldr	r3, [pc, #216]	; (8000eec <HAL_RCC_OscConfig+0x334>)
 8000e14:	6a5b      	ldr	r3, [r3, #36]	; 0x24
 8000e16:	2202      	movs	r2, #2
 8000e18:	4013      	ands	r3, r2
 8000e1a:	d0f1      	beq.n	8000e00 <HAL_RCC_OscConfig+0x248>
 8000e1c:	e018      	b.n	8000e50 <HAL_RCC_OscConfig+0x298>
      }
    }
    else
    {
      /* Disable the Internal Low Speed oscillator (LSI). */
      __HAL_RCC_LSI_DISABLE();
 8000e1e:	4b33      	ldr	r3, [pc, #204]	; (8000eec <HAL_RCC_OscConfig+0x334>)
 8000e20:	6a5a      	ldr	r2, [r3, #36]	; 0x24
 8000e22:	4b32      	ldr	r3, [pc, #200]	; (8000eec <HAL_RCC_OscConfig+0x334>)
 8000e24:	2101      	movs	r1, #1
 8000e26:	438a      	bics	r2, r1
 8000e28:	625a      	str	r2, [r3, #36]	; 0x24
      
      /* Get Start Tick */
      tickstart = HAL_GetTick();
 8000e2a:	f7ff fc73 	bl	8000714 <HAL_GetTick>
 8000e2e:	0003      	movs	r3, r0
 8000e30:	61bb      	str	r3, [r7, #24]
      
      /* Wait till LSI is disabled */  
      while(__HAL_RCC_GET_FLAG(RCC_FLAG_LSIRDY) != RESET)
 8000e32:	e008      	b.n	8000e46 <HAL_RCC_OscConfig+0x28e>
      {
        if((HAL_GetTick() - tickstart ) > LSI_TIMEOUT_VALUE)
 8000e34:	f7ff fc6e 	bl	8000714 <HAL_GetTick>
 8000e38:	0002      	movs	r2, r0
 8000e3a:	69bb      	ldr	r3, [r7, #24]
 8000e3c:	1ad3      	subs	r3, r2, r3
 8000e3e:	2b02      	cmp	r3, #2
 8000e40:	d901      	bls.n	8000e46 <HAL_RCC_OscConfig+0x28e>
        {
          return HAL_TIMEOUT;
 8000e42:	2303      	movs	r3, #3
 8000e44:	e1c7      	b.n	80011d6 <HAL_RCC_OscConfig+0x61e>
      while(__HAL_RCC_GET_FLAG(RCC_FLAG_LSIRDY) != RESET)
 8000e46:	4b29      	ldr	r3, [pc, #164]	; (8000eec <HAL_RCC_OscConfig+0x334>)
 8000e48:	6a5b      	ldr	r3, [r3, #36]	; 0x24
 8000e4a:	2202      	movs	r2, #2
 8000e4c:	4013      	ands	r3, r2
 8000e4e:	d1f1      	bne.n	8000e34 <HAL_RCC_OscConfig+0x27c>
        }
      }
    }
  }
  /*------------------------------ LSE Configuration -------------------------*/ 
  if(((RCC_OscInitStruct->OscillatorType) & RCC_OSCILLATORTYPE_LSE) == RCC_OSCILLATORTYPE_LSE)
 8000e50:	687b      	ldr	r3, [r7, #4]
 8000e52:	681b      	ldr	r3, [r3, #0]
 8000e54:	2204      	movs	r2, #4
 8000e56:	4013      	ands	r3, r2
 8000e58:	d100      	bne.n	8000e5c <HAL_RCC_OscConfig+0x2a4>
 8000e5a:	e0b5      	b.n	8000fc8 <HAL_RCC_OscConfig+0x410>
  {
    FlagStatus       pwrclkchanged = RESET;
 8000e5c:	201f      	movs	r0, #31
 8000e5e:	183b      	adds	r3, r7, r0
 8000e60:	2200      	movs	r2, #0
 8000e62:	701a      	strb	r2, [r3, #0]
    /* Check the parameters */
    assert_param(IS_RCC_LSE(RCC_OscInitStruct->LSEState));

    /* Update LSE configuration in Backup Domain control register    */
    /* Requires to enable write access to Backup Domain of necessary */
    if(__HAL_RCC_PWR_IS_CLK_DISABLED())
 8000e64:	4b21      	ldr	r3, [pc, #132]	; (8000eec <HAL_RCC_OscConfig+0x334>)
 8000e66:	69da      	ldr	r2, [r3, #28]
 8000e68:	2380      	movs	r3, #128	; 0x80
 8000e6a:	055b      	lsls	r3, r3, #21
 8000e6c:	4013      	ands	r3, r2
 8000e6e:	d110      	bne.n	8000e92 <HAL_RCC_OscConfig+0x2da>
    {
      __HAL_RCC_PWR_CLK_ENABLE();
 8000e70:	4b1e      	ldr	r3, [pc, #120]	; (8000eec <HAL_RCC_OscConfig+0x334>)
 8000e72:	69da      	ldr	r2, [r3, #28]
 8000e74:	4b1d      	ldr	r3, [pc, #116]	; (8000eec <HAL_RCC_OscConfig+0x334>)
 8000e76:	2180      	movs	r1, #128	; 0x80
 8000e78:	0549      	lsls	r1, r1, #21
 8000e7a:	430a      	orrs	r2, r1
 8000e7c:	61da      	str	r2, [r3, #28]
 8000e7e:	4b1b      	ldr	r3, [pc, #108]	; (8000eec <HAL_RCC_OscConfig+0x334>)
 8000e80:	69da      	ldr	r2, [r3, #28]
 8000e82:	2380      	movs	r3, #128	; 0x80
 8000e84:	055b      	lsls	r3, r3, #21
 8000e86:	4013      	ands	r3, r2
 8000e88:	60fb      	str	r3, [r7, #12]
 8000e8a:	68fb      	ldr	r3, [r7, #12]
      pwrclkchanged = SET;
 8000e8c:	183b      	adds	r3, r7, r0
 8000e8e:	2201      	movs	r2, #1
 8000e90:	701a      	strb	r2, [r3, #0]
    }
    
    if(HAL_IS_BIT_CLR(PWR->CR, PWR_CR_DBP))
 8000e92:	4b19      	ldr	r3, [pc, #100]	; (8000ef8 <HAL_RCC_OscConfig+0x340>)
 8000e94:	681a      	ldr	r2, [r3, #0]
 8000e96:	2380      	movs	r3, #128	; 0x80
 8000e98:	005b      	lsls	r3, r3, #1
 8000e9a:	4013      	ands	r3, r2
 8000e9c:	d11a      	bne.n	8000ed4 <HAL_RCC_OscConfig+0x31c>
    {
      /* Enable write access to Backup domain */
      SET_BIT(PWR->CR, PWR_CR_DBP);
 8000e9e:	4b16      	ldr	r3, [pc, #88]	; (8000ef8 <HAL_RCC_OscConfig+0x340>)
 8000ea0:	681a      	ldr	r2, [r3, #0]
 8000ea2:	4b15      	ldr	r3, [pc, #84]	; (8000ef8 <HAL_RCC_OscConfig+0x340>)
 8000ea4:	2180      	movs	r1, #128	; 0x80
 8000ea6:	0049      	lsls	r1, r1, #1
 8000ea8:	430a      	orrs	r2, r1
 8000eaa:	601a      	str	r2, [r3, #0]
      
      /* Wait for Backup domain Write protection disable */
      tickstart = HAL_GetTick();
 8000eac:	f7ff fc32 	bl	8000714 <HAL_GetTick>
 8000eb0:	0003      	movs	r3, r0
 8000eb2:	61bb      	str	r3, [r7, #24]

      while(HAL_IS_BIT_CLR(PWR->CR, PWR_CR_DBP))
 8000eb4:	e008      	b.n	8000ec8 <HAL_RCC_OscConfig+0x310>
      {
        if((HAL_GetTick() - tickstart) > RCC_DBP_TIMEOUT_VALUE)
 8000eb6:	f7ff fc2d 	bl	8000714 <HAL_GetTick>
 8000eba:	0002      	movs	r2, r0
 8000ebc:	69bb      	ldr	r3, [r7, #24]
 8000ebe:	1ad3      	subs	r3, r2, r3
 8000ec0:	2b64      	cmp	r3, #100	; 0x64
 8000ec2:	d901      	bls.n	8000ec8 <HAL_RCC_OscConfig+0x310>
        {
          return HAL_TIMEOUT;
 8000ec4:	2303      	movs	r3, #3
 8000ec6:	e186      	b.n	80011d6 <HAL_RCC_OscConfig+0x61e>
      while(HAL_IS_BIT_CLR(PWR->CR, PWR_CR_DBP))
 8000ec8:	4b0b      	ldr	r3, [pc, #44]	; (8000ef8 <HAL_RCC_OscConfig+0x340>)
 8000eca:	681a      	ldr	r2, [r3, #0]
 8000ecc:	2380      	movs	r3, #128	; 0x80
 8000ece:	005b      	lsls	r3, r3, #1
 8000ed0:	4013      	ands	r3, r2
 8000ed2:	d0f0      	beq.n	8000eb6 <HAL_RCC_OscConfig+0x2fe>
        }
      }
    }

    /* Set the new LSE configuration -----------------------------------------*/
    __HAL_RCC_LSE_CONFIG(RCC_OscInitStruct->LSEState);
 8000ed4:	687b      	ldr	r3, [r7, #4]
 8000ed6:	689b      	ldr	r3, [r3, #8]
 8000ed8:	2b01      	cmp	r3, #1
 8000eda:	d10f      	bne.n	8000efc <HAL_RCC_OscConfig+0x344>
 8000edc:	4b03      	ldr	r3, [pc, #12]	; (8000eec <HAL_RCC_OscConfig+0x334>)
 8000ede:	6a1a      	ldr	r2, [r3, #32]
 8000ee0:	4b02      	ldr	r3, [pc, #8]	; (8000eec <HAL_RCC_OscConfig+0x334>)
 8000ee2:	2101      	movs	r1, #1
 8000ee4:	430a      	orrs	r2, r1
 8000ee6:	621a      	str	r2, [r3, #32]
 8000ee8:	e036      	b.n	8000f58 <HAL_RCC_OscConfig+0x3a0>
 8000eea:	46c0      	nop			; (mov r8, r8)
 8000eec:	40021000 	.word	0x40021000
 8000ef0:	fffeffff 	.word	0xfffeffff
 8000ef4:	fffbffff 	.word	0xfffbffff
 8000ef8:	40007000 	.word	0x40007000
 8000efc:	687b      	ldr	r3, [r7, #4]
 8000efe:	689b      	ldr	r3, [r3, #8]
 8000f00:	2b00      	cmp	r3, #0
 8000f02:	d10c      	bne.n	8000f1e <HAL_RCC_OscConfig+0x366>
 8000f04:	4bb6      	ldr	r3, [pc, #728]	; (80011e0 <HAL_RCC_OscConfig+0x628>)
 8000f06:	6a1a      	ldr	r2, [r3, #32]
 8000f08:	4bb5      	ldr	r3, [pc, #724]	; (80011e0 <HAL_RCC_OscConfig+0x628>)
 8000f0a:	2101      	movs	r1, #1
 8000f0c:	438a      	bics	r2, r1
 8000f0e:	621a      	str	r2, [r3, #32]
 8000f10:	4bb3      	ldr	r3, [pc, #716]	; (80011e0 <HAL_RCC_OscConfig+0x628>)
 8000f12:	6a1a      	ldr	r2, [r3, #32]
 8000f14:	4bb2      	ldr	r3, [pc, #712]	; (80011e0 <HAL_RCC_OscConfig+0x628>)
 8000f16:	2104      	movs	r1, #4
 8000f18:	438a      	bics	r2, r1
 8000f1a:	621a      	str	r2, [r3, #32]
 8000f1c:	e01c      	b.n	8000f58 <HAL_RCC_OscConfig+0x3a0>
 8000f1e:	687b      	ldr	r3, [r7, #4]
 8000f20:	689b      	ldr	r3, [r3, #8]
 8000f22:	2b05      	cmp	r3, #5
 8000f24:	d10c      	bne.n	8000f40 <HAL_RCC_OscConfig+0x388>
 8000f26:	4bae      	ldr	r3, [pc, #696]	; (80011e0 <HAL_RCC_OscConfig+0x628>)
 8000f28:	6a1a      	ldr	r2, [r3, #32]
 8000f2a:	4bad      	ldr	r3, [pc, #692]	; (80011e0 <HAL_RCC_OscConfig+0x628>)
 8000f2c:	2104      	movs	r1, #4
 8000f2e:	430a      	orrs	r2, r1
 8000f30:	621a      	str	r2, [r3, #32]
 8000f32:	4bab      	ldr	r3, [pc, #684]	; (80011e0 <HAL_RCC_OscConfig+0x628>)
 8000f34:	6a1a      	ldr	r2, [r3, #32]
 8000f36:	4baa      	ldr	r3, [pc, #680]	; (80011e0 <HAL_RCC_OscConfig+0x628>)
 8000f38:	2101      	movs	r1, #1
 8000f3a:	430a      	orrs	r2, r1
 8000f3c:	621a      	str	r2, [r3, #32]
 8000f3e:	e00b      	b.n	8000f58 <HAL_RCC_OscConfig+0x3a0>
 8000f40:	4ba7      	ldr	r3, [pc, #668]	; (80011e0 <HAL_RCC_OscConfig+0x628>)
 8000f42:	6a1a      	ldr	r2, [r3, #32]
 8000f44:	4ba6      	ldr	r3, [pc, #664]	; (80011e0 <HAL_RCC_OscConfig+0x628>)
 8000f46:	2101      	movs	r1, #1
 8000f48:	438a      	bics	r2, r1
 8000f4a:	621a      	str	r2, [r3, #32]
 8000f4c:	4ba4      	ldr	r3, [pc, #656]	; (80011e0 <HAL_RCC_OscConfig+0x628>)
 8000f4e:	6a1a      	ldr	r2, [r3, #32]
 8000f50:	4ba3      	ldr	r3, [pc, #652]	; (80011e0 <HAL_RCC_OscConfig+0x628>)
 8000f52:	2104      	movs	r1, #4
 8000f54:	438a      	bics	r2, r1
 8000f56:	621a      	str	r2, [r3, #32]
    /* Check the LSE State */
    if(RCC_OscInitStruct->LSEState != RCC_LSE_OFF)
 8000f58:	687b      	ldr	r3, [r7, #4]
 8000f5a:	689b      	ldr	r3, [r3, #8]
 8000f5c:	2b00      	cmp	r3, #0
 8000f5e:	d014      	beq.n	8000f8a <HAL_RCC_OscConfig+0x3d2>
    {
      /* Get Start Tick */
      tickstart = HAL_GetTick();
 8000f60:	f7ff fbd8 	bl	8000714 <HAL_GetTick>
 8000f64:	0003      	movs	r3, r0
 8000f66:	61bb      	str	r3, [r7, #24]
      
      /* Wait till LSE is ready */  
      while(__HAL_RCC_GET_FLAG(RCC_FLAG_LSERDY) == RESET)
 8000f68:	e009      	b.n	8000f7e <HAL_RCC_OscConfig+0x3c6>
      {
        if((HAL_GetTick() - tickstart ) > RCC_LSE_TIMEOUT_VALUE)
 8000f6a:	f7ff fbd3 	bl	8000714 <HAL_GetTick>
 8000f6e:	0002      	movs	r2, r0
 8000f70:	69bb      	ldr	r3, [r7, #24]
 8000f72:	1ad3      	subs	r3, r2, r3
 8000f74:	4a9b      	ldr	r2, [pc, #620]	; (80011e4 <HAL_RCC_OscConfig+0x62c>)
 8000f76:	4293      	cmp	r3, r2
 8000f78:	d901      	bls.n	8000f7e <HAL_RCC_OscConfig+0x3c6>
        {
          return HAL_TIMEOUT;
 8000f7a:	2303      	movs	r3, #3
 8000f7c:	e12b      	b.n	80011d6 <HAL_RCC_OscConfig+0x61e>
      while(__HAL_RCC_GET_FLAG(RCC_FLAG_LSERDY) == RESET)
 8000f7e:	4b98      	ldr	r3, [pc, #608]	; (80011e0 <HAL_RCC_OscConfig+0x628>)
 8000f80:	6a1b      	ldr	r3, [r3, #32]
 8000f82:	2202      	movs	r2, #2
 8000f84:	4013      	ands	r3, r2
 8000f86:	d0f0      	beq.n	8000f6a <HAL_RCC_OscConfig+0x3b2>
 8000f88:	e013      	b.n	8000fb2 <HAL_RCC_OscConfig+0x3fa>
      }
    }
    else
    {
      /* Get Start Tick */
      tickstart = HAL_GetTick();
 8000f8a:	f7ff fbc3 	bl	8000714 <HAL_GetTick>
 8000f8e:	0003      	movs	r3, r0
 8000f90:	61bb      	str	r3, [r7, #24]
      
      /* Wait till LSE is disabled */  
      while(__HAL_RCC_GET_FLAG(RCC_FLAG_LSERDY) != RESET)
 8000f92:	e009      	b.n	8000fa8 <HAL_RCC_OscConfig+0x3f0>
      {
        if((HAL_GetTick() - tickstart ) > RCC_LSE_TIMEOUT_VALUE)
 8000f94:	f7ff fbbe 	bl	8000714 <HAL_GetTick>
 8000f98:	0002      	movs	r2, r0
 8000f9a:	69bb      	ldr	r3, [r7, #24]
 8000f9c:	1ad3      	subs	r3, r2, r3
 8000f9e:	4a91      	ldr	r2, [pc, #580]	; (80011e4 <HAL_RCC_OscConfig+0x62c>)
 8000fa0:	4293      	cmp	r3, r2
 8000fa2:	d901      	bls.n	8000fa8 <HAL_RCC_OscConfig+0x3f0>
        {
          return HAL_TIMEOUT;
 8000fa4:	2303      	movs	r3, #3
 8000fa6:	e116      	b.n	80011d6 <HAL_RCC_OscConfig+0x61e>
      while(__HAL_RCC_GET_FLAG(RCC_FLAG_LSERDY) != RESET)
 8000fa8:	4b8d      	ldr	r3, [pc, #564]	; (80011e0 <HAL_RCC_OscConfig+0x628>)
 8000faa:	6a1b      	ldr	r3, [r3, #32]
 8000fac:	2202      	movs	r2, #2
 8000fae:	4013      	ands	r3, r2
 8000fb0:	d1f0      	bne.n	8000f94 <HAL_RCC_OscConfig+0x3dc>
        }
      }
    }

    /* Require to disable power clock if necessary */
    if(pwrclkchanged == SET)
 8000fb2:	231f      	movs	r3, #31
 8000fb4:	18fb      	adds	r3, r7, r3
 8000fb6:	781b      	ldrb	r3, [r3, #0]
 8000fb8:	2b01      	cmp	r3, #1
 8000fba:	d105      	bne.n	8000fc8 <HAL_RCC_OscConfig+0x410>
    {
      __HAL_RCC_PWR_CLK_DISABLE();
 8000fbc:	4b88      	ldr	r3, [pc, #544]	; (80011e0 <HAL_RCC_OscConfig+0x628>)
 8000fbe:	69da      	ldr	r2, [r3, #28]
 8000fc0:	4b87      	ldr	r3, [pc, #540]	; (80011e0 <HAL_RCC_OscConfig+0x628>)
 8000fc2:	4989      	ldr	r1, [pc, #548]	; (80011e8 <HAL_RCC_OscConfig+0x630>)
 8000fc4:	400a      	ands	r2, r1
 8000fc6:	61da      	str	r2, [r3, #28]
    }
  }

  /*----------------------------- HSI14 Configuration --------------------------*/
  if(((RCC_OscInitStruct->OscillatorType) & RCC_OSCILLATORTYPE_HSI14) == RCC_OSCILLATORTYPE_HSI14)
 8000fc8:	687b      	ldr	r3, [r7, #4]
 8000fca:	681b      	ldr	r3, [r3, #0]
 8000fcc:	2210      	movs	r2, #16
 8000fce:	4013      	ands	r3, r2
 8000fd0:	d063      	beq.n	800109a <HAL_RCC_OscConfig+0x4e2>
    /* Check the parameters */
    assert_param(IS_RCC_HSI14(RCC_OscInitStruct->HSI14State));
    assert_param(IS_RCC_CALIBRATION_VALUE(RCC_OscInitStruct->HSI14CalibrationValue));

    /* Check the HSI14 State */
    if(RCC_OscInitStruct->HSI14State == RCC_HSI14_ON)
 8000fd2:	687b      	ldr	r3, [r7, #4]
 8000fd4:	695b      	ldr	r3, [r3, #20]
 8000fd6:	2b01      	cmp	r3, #1
 8000fd8:	d12a      	bne.n	8001030 <HAL_RCC_OscConfig+0x478>
    {
      /* Disable ADC control of the Internal High Speed oscillator HSI14 */
      __HAL_RCC_HSI14ADC_DISABLE();
 8000fda:	4b81      	ldr	r3, [pc, #516]	; (80011e0 <HAL_RCC_OscConfig+0x628>)
 8000fdc:	6b5a      	ldr	r2, [r3, #52]	; 0x34
 8000fde:	4b80      	ldr	r3, [pc, #512]	; (80011e0 <HAL_RCC_OscConfig+0x628>)
 8000fe0:	2104      	movs	r1, #4
 8000fe2:	430a      	orrs	r2, r1
 8000fe4:	635a      	str	r2, [r3, #52]	; 0x34

      /* Enable the Internal High Speed oscillator (HSI). */
      __HAL_RCC_HSI14_ENABLE();
 8000fe6:	4b7e      	ldr	r3, [pc, #504]	; (80011e0 <HAL_RCC_OscConfig+0x628>)
 8000fe8:	6b5a      	ldr	r2, [r3, #52]	; 0x34
 8000fea:	4b7d      	ldr	r3, [pc, #500]	; (80011e0 <HAL_RCC_OscConfig+0x628>)
 8000fec:	2101      	movs	r1, #1
 8000fee:	430a      	orrs	r2, r1
 8000ff0:	635a      	str	r2, [r3, #52]	; 0x34

      /* Get Start Tick */
      tickstart = HAL_GetTick();
 8000ff2:	f7ff fb8f 	bl	8000714 <HAL_GetTick>
 8000ff6:	0003      	movs	r3, r0
 8000ff8:	61bb      	str	r3, [r7, #24]
      
      /* Wait till HSI is ready */  
      while(__HAL_RCC_GET_FLAG(RCC_FLAG_HSI14RDY) == RESET)
 8000ffa:	e008      	b.n	800100e <HAL_RCC_OscConfig+0x456>
      {
        if((HAL_GetTick() - tickstart) > HSI14_TIMEOUT_VALUE)
 8000ffc:	f7ff fb8a 	bl	8000714 <HAL_GetTick>
 8001000:	0002      	movs	r2, r0
 8001002:	69bb      	ldr	r3, [r7, #24]
 8001004:	1ad3      	subs	r3, r2, r3
 8001006:	2b02      	cmp	r3, #2
 8001008:	d901      	bls.n	800100e <HAL_RCC_OscConfig+0x456>
        {
          return HAL_TIMEOUT;
 800100a:	2303      	movs	r3, #3
 800100c:	e0e3      	b.n	80011d6 <HAL_RCC_OscConfig+0x61e>
      while(__HAL_RCC_GET_FLAG(RCC_FLAG_HSI14RDY) == RESET)
 800100e:	4b74      	ldr	r3, [pc, #464]	; (80011e0 <HAL_RCC_OscConfig+0x628>)
 8001010:	6b5b      	ldr	r3, [r3, #52]	; 0x34
 8001012:	2202      	movs	r2, #2
 8001014:	4013      	ands	r3, r2
 8001016:	d0f1      	beq.n	8000ffc <HAL_RCC_OscConfig+0x444>
        }      
      } 

      /* Adjusts the Internal High Speed oscillator 14Mhz (HSI14) calibration value. */
      __HAL_RCC_HSI14_CALIBRATIONVALUE_ADJUST(RCC_OscInitStruct->HSI14CalibrationValue);
 8001018:	4b71      	ldr	r3, [pc, #452]	; (80011e0 <HAL_RCC_OscConfig+0x628>)
 800101a:	6b5b      	ldr	r3, [r3, #52]	; 0x34
 800101c:	22f8      	movs	r2, #248	; 0xf8
 800101e:	4393      	bics	r3, r2
 8001020:	0019      	movs	r1, r3
 8001022:	687b      	ldr	r3, [r7, #4]
 8001024:	699b      	ldr	r3, [r3, #24]
 8001026:	00da      	lsls	r2, r3, #3
 8001028:	4b6d      	ldr	r3, [pc, #436]	; (80011e0 <HAL_RCC_OscConfig+0x628>)
 800102a:	430a      	orrs	r2, r1
 800102c:	635a      	str	r2, [r3, #52]	; 0x34
 800102e:	e034      	b.n	800109a <HAL_RCC_OscConfig+0x4e2>
    }
    else if(RCC_OscInitStruct->HSI14State == RCC_HSI14_ADC_CONTROL)
 8001030:	687b      	ldr	r3, [r7, #4]
 8001032:	695b      	ldr	r3, [r3, #20]
 8001034:	3305      	adds	r3, #5
 8001036:	d111      	bne.n	800105c <HAL_RCC_OscConfig+0x4a4>
    {
      /* Enable ADC control of the Internal High Speed oscillator HSI14 */
      __HAL_RCC_HSI14ADC_ENABLE();
 8001038:	4b69      	ldr	r3, [pc, #420]	; (80011e0 <HAL_RCC_OscConfig+0x628>)
 800103a:	6b5a      	ldr	r2, [r3, #52]	; 0x34
 800103c:	4b68      	ldr	r3, [pc, #416]	; (80011e0 <HAL_RCC_OscConfig+0x628>)
 800103e:	2104      	movs	r1, #4
 8001040:	438a      	bics	r2, r1
 8001042:	635a      	str	r2, [r3, #52]	; 0x34

      /* Adjusts the Internal High Speed oscillator 14Mhz (HSI14) calibration value. */
      __HAL_RCC_HSI14_CALIBRATIONVALUE_ADJUST(RCC_OscInitStruct->HSI14CalibrationValue);
 8001044:	4b66      	ldr	r3, [pc, #408]	; (80011e0 <HAL_RCC_OscConfig+0x628>)
 8001046:	6b5b      	ldr	r3, [r3, #52]	; 0x34
 8001048:	22f8      	movs	r2, #248	; 0xf8
 800104a:	4393      	bics	r3, r2
 800104c:	0019      	movs	r1, r3
 800104e:	687b      	ldr	r3, [r7, #4]
 8001050:	699b      	ldr	r3, [r3, #24]
 8001052:	00da      	lsls	r2, r3, #3
 8001054:	4b62      	ldr	r3, [pc, #392]	; (80011e0 <HAL_RCC_OscConfig+0x628>)
 8001056:	430a      	orrs	r2, r1
 8001058:	635a      	str	r2, [r3, #52]	; 0x34
 800105a:	e01e      	b.n	800109a <HAL_RCC_OscConfig+0x4e2>
    }
    else
    {
      /* Disable ADC control of the Internal High Speed oscillator HSI14 */
      __HAL_RCC_HSI14ADC_DISABLE();
 800105c:	4b60      	ldr	r3, [pc, #384]	; (80011e0 <HAL_RCC_OscConfig+0x628>)
 800105e:	6b5a      	ldr	r2, [r3, #52]	; 0x34
 8001060:	4b5f      	ldr	r3, [pc, #380]	; (80011e0 <HAL_RCC_OscConfig+0x628>)
 8001062:	2104      	movs	r1, #4
 8001064:	430a      	orrs	r2, r1
 8001066:	635a      	str	r2, [r3, #52]	; 0x34

      /* Disable the Internal High Speed oscillator (HSI). */
      __HAL_RCC_HSI14_DISABLE();
 8001068:	4b5d      	ldr	r3, [pc, #372]	; (80011e0 <HAL_RCC_OscConfig+0x628>)
 800106a:	6b5a      	ldr	r2, [r3, #52]	; 0x34
 800106c:	4b5c      	ldr	r3, [pc, #368]	; (80011e0 <HAL_RCC_OscConfig+0x628>)
 800106e:	2101      	movs	r1, #1
 8001070:	438a      	bics	r2, r1
 8001072:	635a      	str	r2, [r3, #52]	; 0x34

      /* Get Start Tick */
      tickstart = HAL_GetTick();
 8001074:	f7ff fb4e 	bl	8000714 <HAL_GetTick>
 8001078:	0003      	movs	r3, r0
 800107a:	61bb      	str	r3, [r7, #24]
      
      /* Wait till HSI is ready */  
      while(__HAL_RCC_GET_FLAG(RCC_FLAG_HSI14RDY) != RESET)
 800107c:	e008      	b.n	8001090 <HAL_RCC_OscConfig+0x4d8>
      {
        if((HAL_GetTick() - tickstart) > HSI14_TIMEOUT_VALUE)
 800107e:	f7ff fb49 	bl	8000714 <HAL_GetTick>
 8001082:	0002      	movs	r2, r0
 8001084:	69bb      	ldr	r3, [r7, #24]
 8001086:	1ad3      	subs	r3, r2, r3
 8001088:	2b02      	cmp	r3, #2
 800108a:	d901      	bls.n	8001090 <HAL_RCC_OscConfig+0x4d8>
        {
          return HAL_TIMEOUT;
 800108c:	2303      	movs	r3, #3
 800108e:	e0a2      	b.n	80011d6 <HAL_RCC_OscConfig+0x61e>
      while(__HAL_RCC_GET_FLAG(RCC_FLAG_HSI14RDY) != RESET)
 8001090:	4b53      	ldr	r3, [pc, #332]	; (80011e0 <HAL_RCC_OscConfig+0x628>)
 8001092:	6b5b      	ldr	r3, [r3, #52]	; 0x34
 8001094:	2202      	movs	r2, #2
 8001096:	4013      	ands	r3, r2
 8001098:	d1f1      	bne.n	800107e <HAL_RCC_OscConfig+0x4c6>
#endif /* RCC_HSI48_SUPPORT */
       
  /*-------------------------------- PLL Configuration -----------------------*/
  /* Check the parameters */
  assert_param(IS_RCC_PLL(RCC_OscInitStruct->PLL.PLLState));
  if ((RCC_OscInitStruct->PLL.PLLState) != RCC_PLL_NONE)
 800109a:	687b      	ldr	r3, [r7, #4]
 800109c:	6a1b      	ldr	r3, [r3, #32]
 800109e:	2b00      	cmp	r3, #0
 80010a0:	d100      	bne.n	80010a4 <HAL_RCC_OscConfig+0x4ec>
 80010a2:	e097      	b.n	80011d4 <HAL_RCC_OscConfig+0x61c>
  {
    /* Check if the PLL is used as system clock or not */
    if(__HAL_RCC_GET_SYSCLK_SOURCE() != RCC_SYSCLKSOURCE_STATUS_PLLCLK)
 80010a4:	4b4e      	ldr	r3, [pc, #312]	; (80011e0 <HAL_RCC_OscConfig+0x628>)
 80010a6:	685b      	ldr	r3, [r3, #4]
 80010a8:	220c      	movs	r2, #12
 80010aa:	4013      	ands	r3, r2
 80010ac:	2b08      	cmp	r3, #8
 80010ae:	d100      	bne.n	80010b2 <HAL_RCC_OscConfig+0x4fa>
 80010b0:	e06b      	b.n	800118a <HAL_RCC_OscConfig+0x5d2>
    { 
      if((RCC_OscInitStruct->PLL.PLLState) == RCC_PLL_ON)
 80010b2:	687b      	ldr	r3, [r7, #4]
 80010b4:	6a1b      	ldr	r3, [r3, #32]
 80010b6:	2b02      	cmp	r3, #2
 80010b8:	d14c      	bne.n	8001154 <HAL_RCC_OscConfig+0x59c>
        assert_param(IS_RCC_PLLSOURCE(RCC_OscInitStruct->PLL.PLLSource));
        assert_param(IS_RCC_PLL_MUL(RCC_OscInitStruct->PLL.PLLMUL));
        assert_param(IS_RCC_PREDIV(RCC_OscInitStruct->PLL.PREDIV));
  
        /* Disable the main PLL. */
        __HAL_RCC_PLL_DISABLE();
 80010ba:	4b49      	ldr	r3, [pc, #292]	; (80011e0 <HAL_RCC_OscConfig+0x628>)
 80010bc:	681a      	ldr	r2, [r3, #0]
 80010be:	4b48      	ldr	r3, [pc, #288]	; (80011e0 <HAL_RCC_OscConfig+0x628>)
 80010c0:	494a      	ldr	r1, [pc, #296]	; (80011ec <HAL_RCC_OscConfig+0x634>)
 80010c2:	400a      	ands	r2, r1
 80010c4:	601a      	str	r2, [r3, #0]
        
        /* Get Start Tick */
        tickstart = HAL_GetTick();
 80010c6:	f7ff fb25 	bl	8000714 <HAL_GetTick>
 80010ca:	0003      	movs	r3, r0
 80010cc:	61bb      	str	r3, [r7, #24]
        
        /* Wait till PLL is disabled */
        while(__HAL_RCC_GET_FLAG(RCC_FLAG_PLLRDY)  != RESET)
 80010ce:	e008      	b.n	80010e2 <HAL_RCC_OscConfig+0x52a>
        {
          if((HAL_GetTick() - tickstart ) > PLL_TIMEOUT_VALUE)
 80010d0:	f7ff fb20 	bl	8000714 <HAL_GetTick>
 80010d4:	0002      	movs	r2, r0
 80010d6:	69bb      	ldr	r3, [r7, #24]
 80010d8:	1ad3      	subs	r3, r2, r3
 80010da:	2b02      	cmp	r3, #2
 80010dc:	d901      	bls.n	80010e2 <HAL_RCC_OscConfig+0x52a>
          {
            return HAL_TIMEOUT;
 80010de:	2303      	movs	r3, #3
 80010e0:	e079      	b.n	80011d6 <HAL_RCC_OscConfig+0x61e>
        while(__HAL_RCC_GET_FLAG(RCC_FLAG_PLLRDY)  != RESET)
 80010e2:	4b3f      	ldr	r3, [pc, #252]	; (80011e0 <HAL_RCC_OscConfig+0x628>)
 80010e4:	681a      	ldr	r2, [r3, #0]
 80010e6:	2380      	movs	r3, #128	; 0x80
 80010e8:	049b      	lsls	r3, r3, #18
 80010ea:	4013      	ands	r3, r2
 80010ec:	d1f0      	bne.n	80010d0 <HAL_RCC_OscConfig+0x518>
          }
        }

        /* Configure the main PLL clock source, predivider and multiplication factor. */
        __HAL_RCC_PLL_CONFIG(RCC_OscInitStruct->PLL.PLLSource,
 80010ee:	4b3c      	ldr	r3, [pc, #240]	; (80011e0 <HAL_RCC_OscConfig+0x628>)
 80010f0:	6adb      	ldr	r3, [r3, #44]	; 0x2c
 80010f2:	220f      	movs	r2, #15
 80010f4:	4393      	bics	r3, r2
 80010f6:	0019      	movs	r1, r3
 80010f8:	687b      	ldr	r3, [r7, #4]
 80010fa:	6ada      	ldr	r2, [r3, #44]	; 0x2c
 80010fc:	4b38      	ldr	r3, [pc, #224]	; (80011e0 <HAL_RCC_OscConfig+0x628>)
 80010fe:	430a      	orrs	r2, r1
 8001100:	62da      	str	r2, [r3, #44]	; 0x2c
 8001102:	4b37      	ldr	r3, [pc, #220]	; (80011e0 <HAL_RCC_OscConfig+0x628>)
 8001104:	685b      	ldr	r3, [r3, #4]
 8001106:	4a3a      	ldr	r2, [pc, #232]	; (80011f0 <HAL_RCC_OscConfig+0x638>)
 8001108:	4013      	ands	r3, r2
 800110a:	0019      	movs	r1, r3
 800110c:	687b      	ldr	r3, [r7, #4]
 800110e:	6a9a      	ldr	r2, [r3, #40]	; 0x28
 8001110:	687b      	ldr	r3, [r7, #4]
 8001112:	6a5b      	ldr	r3, [r3, #36]	; 0x24
 8001114:	431a      	orrs	r2, r3
 8001116:	4b32      	ldr	r3, [pc, #200]	; (80011e0 <HAL_RCC_OscConfig+0x628>)
 8001118:	430a      	orrs	r2, r1
 800111a:	605a      	str	r2, [r3, #4]
                             RCC_OscInitStruct->PLL.PREDIV,
                             RCC_OscInitStruct->PLL.PLLMUL);
        /* Enable the main PLL. */
        __HAL_RCC_PLL_ENABLE();
 800111c:	4b30      	ldr	r3, [pc, #192]	; (80011e0 <HAL_RCC_OscConfig+0x628>)
 800111e:	681a      	ldr	r2, [r3, #0]
 8001120:	4b2f      	ldr	r3, [pc, #188]	; (80011e0 <HAL_RCC_OscConfig+0x628>)
 8001122:	2180      	movs	r1, #128	; 0x80
 8001124:	0449      	lsls	r1, r1, #17
 8001126:	430a      	orrs	r2, r1
 8001128:	601a      	str	r2, [r3, #0]
        
        /* Get Start Tick */
        tickstart = HAL_GetTick();
 800112a:	f7ff faf3 	bl	8000714 <HAL_GetTick>
 800112e:	0003      	movs	r3, r0
 8001130:	61bb      	str	r3, [r7, #24]
        
        /* Wait till PLL is ready */
        while(__HAL_RCC_GET_FLAG(RCC_FLAG_PLLRDY)  == RESET)
 8001132:	e008      	b.n	8001146 <HAL_RCC_OscConfig+0x58e>
        {
          if((HAL_GetTick() - tickstart ) > PLL_TIMEOUT_VALUE)
 8001134:	f7ff faee 	bl	8000714 <HAL_GetTick>
 8001138:	0002      	movs	r2, r0
 800113a:	69bb      	ldr	r3, [r7, #24]
 800113c:	1ad3      	subs	r3, r2, r3
 800113e:	2b02      	cmp	r3, #2
 8001140:	d901      	bls.n	8001146 <HAL_RCC_OscConfig+0x58e>
          {
            return HAL_TIMEOUT;
 8001142:	2303      	movs	r3, #3
 8001144:	e047      	b.n	80011d6 <HAL_RCC_OscConfig+0x61e>
        while(__HAL_RCC_GET_FLAG(RCC_FLAG_PLLRDY)  == RESET)
 8001146:	4b26      	ldr	r3, [pc, #152]	; (80011e0 <HAL_RCC_OscConfig+0x628>)
 8001148:	681a      	ldr	r2, [r3, #0]
 800114a:	2380      	movs	r3, #128	; 0x80
 800114c:	049b      	lsls	r3, r3, #18
 800114e:	4013      	ands	r3, r2
 8001150:	d0f0      	beq.n	8001134 <HAL_RCC_OscConfig+0x57c>
 8001152:	e03f      	b.n	80011d4 <HAL_RCC_OscConfig+0x61c>
        }
      }
      else
      {
        /* Disable the main PLL. */
        __HAL_RCC_PLL_DISABLE();
 8001154:	4b22      	ldr	r3, [pc, #136]	; (80011e0 <HAL_RCC_OscConfig+0x628>)
 8001156:	681a      	ldr	r2, [r3, #0]
 8001158:	4b21      	ldr	r3, [pc, #132]	; (80011e0 <HAL_RCC_OscConfig+0x628>)
 800115a:	4924      	ldr	r1, [pc, #144]	; (80011ec <HAL_RCC_OscConfig+0x634>)
 800115c:	400a      	ands	r2, r1
 800115e:	601a      	str	r2, [r3, #0]
 
        /* Get Start Tick */
        tickstart = HAL_GetTick();
 8001160:	f7ff fad8 	bl	8000714 <HAL_GetTick>
 8001164:	0003      	movs	r3, r0
 8001166:	61bb      	str	r3, [r7, #24]
        
        /* Wait till PLL is disabled */  
        while(__HAL_RCC_GET_FLAG(RCC_FLAG_PLLRDY)  != RESET)
 8001168:	e008      	b.n	800117c <HAL_RCC_OscConfig+0x5c4>
        {
          if((HAL_GetTick() - tickstart ) > PLL_TIMEOUT_VALUE)
 800116a:	f7ff fad3 	bl	8000714 <HAL_GetTick>
 800116e:	0002      	movs	r2, r0
 8001170:	69bb      	ldr	r3, [r7, #24]
 8001172:	1ad3      	subs	r3, r2, r3
 8001174:	2b02      	cmp	r3, #2
 8001176:	d901      	bls.n	800117c <HAL_RCC_OscConfig+0x5c4>
          {
            return HAL_TIMEOUT;
 8001178:	2303      	movs	r3, #3
 800117a:	e02c      	b.n	80011d6 <HAL_RCC_OscConfig+0x61e>
        while(__HAL_RCC_GET_FLAG(RCC_FLAG_PLLRDY)  != RESET)
 800117c:	4b18      	ldr	r3, [pc, #96]	; (80011e0 <HAL_RCC_OscConfig+0x628>)
 800117e:	681a      	ldr	r2, [r3, #0]
 8001180:	2380      	movs	r3, #128	; 0x80
 8001182:	049b      	lsls	r3, r3, #18
 8001184:	4013      	ands	r3, r2
 8001186:	d1f0      	bne.n	800116a <HAL_RCC_OscConfig+0x5b2>
 8001188:	e024      	b.n	80011d4 <HAL_RCC_OscConfig+0x61c>
      }
    }
    else
    {
      /* Check if there is a request to disable the PLL used as System clock source */
      if((RCC_OscInitStruct->PLL.PLLState) == RCC_PLL_OFF)
 800118a:	687b      	ldr	r3, [r7, #4]
 800118c:	6a1b      	ldr	r3, [r3, #32]
 800118e:	2b01      	cmp	r3, #1
 8001190:	d101      	bne.n	8001196 <HAL_RCC_OscConfig+0x5de>
      {
        return HAL_ERROR;
 8001192:	2301      	movs	r3, #1
 8001194:	e01f      	b.n	80011d6 <HAL_RCC_OscConfig+0x61e>
      }
      else
      {
        /* Do not return HAL_ERROR if request repeats the current configuration */
        pll_config  = RCC->CFGR;
 8001196:	4b12      	ldr	r3, [pc, #72]	; (80011e0 <HAL_RCC_OscConfig+0x628>)
 8001198:	685b      	ldr	r3, [r3, #4]
 800119a:	617b      	str	r3, [r7, #20]
        pll_config2 = RCC->CFGR2;
 800119c:	4b10      	ldr	r3, [pc, #64]	; (80011e0 <HAL_RCC_OscConfig+0x628>)
 800119e:	6adb      	ldr	r3, [r3, #44]	; 0x2c
 80011a0:	613b      	str	r3, [r7, #16]
        if((READ_BIT(pll_config,  RCC_CFGR_PLLSRC)  != RCC_OscInitStruct->PLL.PLLSource) ||
 80011a2:	697a      	ldr	r2, [r7, #20]
 80011a4:	23c0      	movs	r3, #192	; 0xc0
 80011a6:	025b      	lsls	r3, r3, #9
 80011a8:	401a      	ands	r2, r3
 80011aa:	687b      	ldr	r3, [r7, #4]
 80011ac:	6a5b      	ldr	r3, [r3, #36]	; 0x24
 80011ae:	429a      	cmp	r2, r3
 80011b0:	d10e      	bne.n	80011d0 <HAL_RCC_OscConfig+0x618>
           (READ_BIT(pll_config2, RCC_CFGR2_PREDIV) != RCC_OscInitStruct->PLL.PREDIV)    ||
 80011b2:	693b      	ldr	r3, [r7, #16]
 80011b4:	220f      	movs	r2, #15
 80011b6:	401a      	ands	r2, r3
 80011b8:	687b      	ldr	r3, [r7, #4]
 80011ba:	6adb      	ldr	r3, [r3, #44]	; 0x2c
        if((READ_BIT(pll_config,  RCC_CFGR_PLLSRC)  != RCC_OscInitStruct->PLL.PLLSource) ||
 80011bc:	429a      	cmp	r2, r3
 80011be:	d107      	bne.n	80011d0 <HAL_RCC_OscConfig+0x618>
           (READ_BIT(pll_config,  RCC_CFGR_PLLMUL)  != RCC_OscInitStruct->PLL.PLLMUL))
 80011c0:	697a      	ldr	r2, [r7, #20]
 80011c2:	23f0      	movs	r3, #240	; 0xf0
 80011c4:	039b      	lsls	r3, r3, #14
 80011c6:	401a      	ands	r2, r3
 80011c8:	687b      	ldr	r3, [r7, #4]
 80011ca:	6a9b      	ldr	r3, [r3, #40]	; 0x28
           (READ_BIT(pll_config2, RCC_CFGR2_PREDIV) != RCC_OscInitStruct->PLL.PREDIV)    ||
 80011cc:	429a      	cmp	r2, r3
 80011ce:	d001      	beq.n	80011d4 <HAL_RCC_OscConfig+0x61c>
        {
          return HAL_ERROR;
 80011d0:	2301      	movs	r3, #1
 80011d2:	e000      	b.n	80011d6 <HAL_RCC_OscConfig+0x61e>
        }
      }
    }
  }

  return HAL_OK;
 80011d4:	2300      	movs	r3, #0
}
 80011d6:	0018      	movs	r0, r3
 80011d8:	46bd      	mov	sp, r7
 80011da:	b008      	add	sp, #32
 80011dc:	bd80      	pop	{r7, pc}
 80011de:	46c0      	nop			; (mov r8, r8)
 80011e0:	40021000 	.word	0x40021000
 80011e4:	00001388 	.word	0x00001388
 80011e8:	efffffff 	.word	0xefffffff
 80011ec:	feffffff 	.word	0xfeffffff
 80011f0:	ffc27fff 	.word	0xffc27fff

080011f4 <HAL_RCC_ClockConfig>:
  *         You can use @ref HAL_RCC_GetClockConfig() function to know which clock is
  *         currently used as system clock source.
  * @retval HAL status
  */
HAL_StatusTypeDef HAL_RCC_ClockConfig(RCC_ClkInitTypeDef  *RCC_ClkInitStruct, uint32_t FLatency)
{
 80011f4:	b580      	push	{r7, lr}
 80011f6:	b084      	sub	sp, #16
 80011f8:	af00      	add	r7, sp, #0
 80011fa:	6078      	str	r0, [r7, #4]
 80011fc:	6039      	str	r1, [r7, #0]
  uint32_t tickstart;

  /* Check Null pointer */
  if(RCC_ClkInitStruct == NULL)
 80011fe:	687b      	ldr	r3, [r7, #4]
 8001200:	2b00      	cmp	r3, #0
 8001202:	d101      	bne.n	8001208 <HAL_RCC_ClockConfig+0x14>
  {
    return HAL_ERROR;
 8001204:	2301      	movs	r3, #1
 8001206:	e0b3      	b.n	8001370 <HAL_RCC_ClockConfig+0x17c>
  /* To correctly read data from FLASH memory, the number of wait states (LATENCY) 
  must be correctly programmed according to the frequency of the CPU clock 
    (HCLK) of the device. */

  /* Increasing the number of wait states because of higher CPU frequency */
  if(FLatency > __HAL_FLASH_GET_LATENCY())
 8001208:	4b5b      	ldr	r3, [pc, #364]	; (8001378 <HAL_RCC_ClockConfig+0x184>)
 800120a:	681b      	ldr	r3, [r3, #0]
 800120c:	2201      	movs	r2, #1
 800120e:	4013      	ands	r3, r2
 8001210:	683a      	ldr	r2, [r7, #0]
 8001212:	429a      	cmp	r2, r3
 8001214:	d911      	bls.n	800123a <HAL_RCC_ClockConfig+0x46>
  {    
    /* Program the new number of wait states to the LATENCY bits in the FLASH_ACR register */
    __HAL_FLASH_SET_LATENCY(FLatency);
 8001216:	4b58      	ldr	r3, [pc, #352]	; (8001378 <HAL_RCC_ClockConfig+0x184>)
 8001218:	681b      	ldr	r3, [r3, #0]
 800121a:	2201      	movs	r2, #1
 800121c:	4393      	bics	r3, r2
 800121e:	0019      	movs	r1, r3
 8001220:	4b55      	ldr	r3, [pc, #340]	; (8001378 <HAL_RCC_ClockConfig+0x184>)
 8001222:	683a      	ldr	r2, [r7, #0]
 8001224:	430a      	orrs	r2, r1
 8001226:	601a      	str	r2, [r3, #0]
    
    /* Check that the new number of wait states is taken into account to access the Flash
    memory by reading the FLASH_ACR register */
    if(__HAL_FLASH_GET_LATENCY() != FLatency)
 8001228:	4b53      	ldr	r3, [pc, #332]	; (8001378 <HAL_RCC_ClockConfig+0x184>)
 800122a:	681b      	ldr	r3, [r3, #0]
 800122c:	2201      	movs	r2, #1
 800122e:	4013      	ands	r3, r2
 8001230:	683a      	ldr	r2, [r7, #0]
 8001232:	429a      	cmp	r2, r3
 8001234:	d001      	beq.n	800123a <HAL_RCC_ClockConfig+0x46>
    {
      return HAL_ERROR;
 8001236:	2301      	movs	r3, #1
 8001238:	e09a      	b.n	8001370 <HAL_RCC_ClockConfig+0x17c>
    }
  }

  /*-------------------------- HCLK Configuration --------------------------*/
  if(((RCC_ClkInitStruct->ClockType) & RCC_CLOCKTYPE_HCLK) == RCC_CLOCKTYPE_HCLK)
 800123a:	687b      	ldr	r3, [r7, #4]
 800123c:	681b      	ldr	r3, [r3, #0]
 800123e:	2202      	movs	r2, #2
 8001240:	4013      	ands	r3, r2
 8001242:	d015      	beq.n	8001270 <HAL_RCC_ClockConfig+0x7c>
  {
    /* Set the highest APB divider in order to ensure that we do not go through
       a non-spec phase whatever we decrease or increase HCLK. */
    if(((RCC_ClkInitStruct->ClockType) & RCC_CLOCKTYPE_PCLK1) == RCC_CLOCKTYPE_PCLK1)
 8001244:	687b      	ldr	r3, [r7, #4]
 8001246:	681b      	ldr	r3, [r3, #0]
 8001248:	2204      	movs	r2, #4
 800124a:	4013      	ands	r3, r2
 800124c:	d006      	beq.n	800125c <HAL_RCC_ClockConfig+0x68>
    {
      MODIFY_REG(RCC->CFGR, RCC_CFGR_PPRE, RCC_HCLK_DIV16);
 800124e:	4b4b      	ldr	r3, [pc, #300]	; (800137c <HAL_RCC_ClockConfig+0x188>)
 8001250:	685a      	ldr	r2, [r3, #4]
 8001252:	4b4a      	ldr	r3, [pc, #296]	; (800137c <HAL_RCC_ClockConfig+0x188>)
 8001254:	21e0      	movs	r1, #224	; 0xe0
 8001256:	00c9      	lsls	r1, r1, #3
 8001258:	430a      	orrs	r2, r1
 800125a:	605a      	str	r2, [r3, #4]
    }

    /* Set the new HCLK clock divider */
    assert_param(IS_RCC_HCLK(RCC_ClkInitStruct->AHBCLKDivider));
    MODIFY_REG(RCC->CFGR, RCC_CFGR_HPRE, RCC_ClkInitStruct->AHBCLKDivider);
 800125c:	4b47      	ldr	r3, [pc, #284]	; (800137c <HAL_RCC_ClockConfig+0x188>)
 800125e:	685b      	ldr	r3, [r3, #4]
 8001260:	22f0      	movs	r2, #240	; 0xf0
 8001262:	4393      	bics	r3, r2
 8001264:	0019      	movs	r1, r3
 8001266:	687b      	ldr	r3, [r7, #4]
 8001268:	689a      	ldr	r2, [r3, #8]
 800126a:	4b44      	ldr	r3, [pc, #272]	; (800137c <HAL_RCC_ClockConfig+0x188>)
 800126c:	430a      	orrs	r2, r1
 800126e:	605a      	str	r2, [r3, #4]
  }

  /*------------------------- SYSCLK Configuration ---------------------------*/ 
  if(((RCC_ClkInitStruct->ClockType) & RCC_CLOCKTYPE_SYSCLK) == RCC_CLOCKTYPE_SYSCLK)
 8001270:	687b      	ldr	r3, [r7, #4]
 8001272:	681b      	ldr	r3, [r3, #0]
 8001274:	2201      	movs	r2, #1
 8001276:	4013      	ands	r3, r2
 8001278:	d040      	beq.n	80012fc <HAL_RCC_ClockConfig+0x108>
  {
    assert_param(IS_RCC_SYSCLKSOURCE(RCC_ClkInitStruct->SYSCLKSource));
    
    /* HSE is selected as System Clock Source */
    if(RCC_ClkInitStruct->SYSCLKSource == RCC_SYSCLKSOURCE_HSE)
 800127a:	687b      	ldr	r3, [r7, #4]
 800127c:	685b      	ldr	r3, [r3, #4]
 800127e:	2b01      	cmp	r3, #1
 8001280:	d107      	bne.n	8001292 <HAL_RCC_ClockConfig+0x9e>
    {
      /* Check the HSE ready flag */  
      if(__HAL_RCC_GET_FLAG(RCC_FLAG_HSERDY) == RESET)
 8001282:	4b3e      	ldr	r3, [pc, #248]	; (800137c <HAL_RCC_ClockConfig+0x188>)
 8001284:	681a      	ldr	r2, [r3, #0]
 8001286:	2380      	movs	r3, #128	; 0x80
 8001288:	029b      	lsls	r3, r3, #10
 800128a:	4013      	ands	r3, r2
 800128c:	d114      	bne.n	80012b8 <HAL_RCC_ClockConfig+0xc4>
      {
        return HAL_ERROR;
 800128e:	2301      	movs	r3, #1
 8001290:	e06e      	b.n	8001370 <HAL_RCC_ClockConfig+0x17c>
      }
    }
    /* PLL is selected as System Clock Source */
    else if(RCC_ClkInitStruct->SYSCLKSource == RCC_SYSCLKSOURCE_PLLCLK)
 8001292:	687b      	ldr	r3, [r7, #4]
 8001294:	685b      	ldr	r3, [r3, #4]
 8001296:	2b02      	cmp	r3, #2
 8001298:	d107      	bne.n	80012aa <HAL_RCC_ClockConfig+0xb6>
    {
      /* Check the PLL ready flag */  
      if(__HAL_RCC_GET_FLAG(RCC_FLAG_PLLRDY) == RESET)
 800129a:	4b38      	ldr	r3, [pc, #224]	; (800137c <HAL_RCC_ClockConfig+0x188>)
 800129c:	681a      	ldr	r2, [r3, #0]
 800129e:	2380      	movs	r3, #128	; 0x80
 80012a0:	049b      	lsls	r3, r3, #18
 80012a2:	4013      	ands	r3, r2
 80012a4:	d108      	bne.n	80012b8 <HAL_RCC_ClockConfig+0xc4>
      {
        return HAL_ERROR;
 80012a6:	2301      	movs	r3, #1
 80012a8:	e062      	b.n	8001370 <HAL_RCC_ClockConfig+0x17c>
#endif /* RCC_CFGR_SWS_HSI48 */
    /* HSI is selected as System Clock Source */
    else
    {
      /* Check the HSI ready flag */  
      if(__HAL_RCC_GET_FLAG(RCC_FLAG_HSIRDY) == RESET)
 80012aa:	4b34      	ldr	r3, [pc, #208]	; (800137c <HAL_RCC_ClockConfig+0x188>)
 80012ac:	681b      	ldr	r3, [r3, #0]
 80012ae:	2202      	movs	r2, #2
 80012b0:	4013      	ands	r3, r2
 80012b2:	d101      	bne.n	80012b8 <HAL_RCC_ClockConfig+0xc4>
      {
        return HAL_ERROR;
 80012b4:	2301      	movs	r3, #1
 80012b6:	e05b      	b.n	8001370 <HAL_RCC_ClockConfig+0x17c>
      }
    }
    __HAL_RCC_SYSCLK_CONFIG(RCC_ClkInitStruct->SYSCLKSource);
 80012b8:	4b30      	ldr	r3, [pc, #192]	; (800137c <HAL_RCC_ClockConfig+0x188>)
 80012ba:	685b      	ldr	r3, [r3, #4]
 80012bc:	2203      	movs	r2, #3
 80012be:	4393      	bics	r3, r2
 80012c0:	0019      	movs	r1, r3
 80012c2:	687b      	ldr	r3, [r7, #4]
 80012c4:	685a      	ldr	r2, [r3, #4]
 80012c6:	4b2d      	ldr	r3, [pc, #180]	; (800137c <HAL_RCC_ClockConfig+0x188>)
 80012c8:	430a      	orrs	r2, r1
 80012ca:	605a      	str	r2, [r3, #4]

    /* Get Start Tick */
    tickstart = HAL_GetTick();
 80012cc:	f7ff fa22 	bl	8000714 <HAL_GetTick>
 80012d0:	0003      	movs	r3, r0
 80012d2:	60fb      	str	r3, [r7, #12]
    
    while (__HAL_RCC_GET_SYSCLK_SOURCE() != (RCC_ClkInitStruct->SYSCLKSource << RCC_CFGR_SWS_Pos))
 80012d4:	e009      	b.n	80012ea <HAL_RCC_ClockConfig+0xf6>
    {
      if((HAL_GetTick() - tickstart ) > CLOCKSWITCH_TIMEOUT_VALUE)
 80012d6:	f7ff fa1d 	bl	8000714 <HAL_GetTick>
 80012da:	0002      	movs	r2, r0
 80012dc:	68fb      	ldr	r3, [r7, #12]
 80012de:	1ad3      	subs	r3, r2, r3
 80012e0:	4a27      	ldr	r2, [pc, #156]	; (8001380 <HAL_RCC_ClockConfig+0x18c>)
 80012e2:	4293      	cmp	r3, r2
 80012e4:	d901      	bls.n	80012ea <HAL_RCC_ClockConfig+0xf6>
      {
        return HAL_TIMEOUT;
 80012e6:	2303      	movs	r3, #3
 80012e8:	e042      	b.n	8001370 <HAL_RCC_ClockConfig+0x17c>
    while (__HAL_RCC_GET_SYSCLK_SOURCE() != (RCC_ClkInitStruct->SYSCLKSource << RCC_CFGR_SWS_Pos))
 80012ea:	4b24      	ldr	r3, [pc, #144]	; (800137c <HAL_RCC_ClockConfig+0x188>)
 80012ec:	685b      	ldr	r3, [r3, #4]
 80012ee:	220c      	movs	r2, #12
 80012f0:	401a      	ands	r2, r3
 80012f2:	687b      	ldr	r3, [r7, #4]
 80012f4:	685b      	ldr	r3, [r3, #4]
 80012f6:	009b      	lsls	r3, r3, #2
 80012f8:	429a      	cmp	r2, r3
 80012fa:	d1ec      	bne.n	80012d6 <HAL_RCC_ClockConfig+0xe2>
      }
    }
  }

  /* Decreasing the number of wait states because of lower CPU frequency */
  if(FLatency < __HAL_FLASH_GET_LATENCY())
 80012fc:	4b1e      	ldr	r3, [pc, #120]	; (8001378 <HAL_RCC_ClockConfig+0x184>)
 80012fe:	681b      	ldr	r3, [r3, #0]
 8001300:	2201      	movs	r2, #1
 8001302:	4013      	ands	r3, r2
 8001304:	683a      	ldr	r2, [r7, #0]
 8001306:	429a      	cmp	r2, r3
 8001308:	d211      	bcs.n	800132e <HAL_RCC_ClockConfig+0x13a>
  {    
    /* Program the new number of wait states to the LATENCY bits in the FLASH_ACR register */
    __HAL_FLASH_SET_LATENCY(FLatency);
 800130a:	4b1b      	ldr	r3, [pc, #108]	; (8001378 <HAL_RCC_ClockConfig+0x184>)
 800130c:	681b      	ldr	r3, [r3, #0]
 800130e:	2201      	movs	r2, #1
 8001310:	4393      	bics	r3, r2
 8001312:	0019      	movs	r1, r3
 8001314:	4b18      	ldr	r3, [pc, #96]	; (8001378 <HAL_RCC_ClockConfig+0x184>)
 8001316:	683a      	ldr	r2, [r7, #0]
 8001318:	430a      	orrs	r2, r1
 800131a:	601a      	str	r2, [r3, #0]
    
    /* Check that the new number of wait states is taken into account to access the Flash
    memory by reading the FLASH_ACR register */
    if(__HAL_FLASH_GET_LATENCY() != FLatency)
 800131c:	4b16      	ldr	r3, [pc, #88]	; (8001378 <HAL_RCC_ClockConfig+0x184>)
 800131e:	681b      	ldr	r3, [r3, #0]
 8001320:	2201      	movs	r2, #1
 8001322:	4013      	ands	r3, r2
 8001324:	683a      	ldr	r2, [r7, #0]
 8001326:	429a      	cmp	r2, r3
 8001328:	d001      	beq.n	800132e <HAL_RCC_ClockConfig+0x13a>
    {
      return HAL_ERROR;
 800132a:	2301      	movs	r3, #1
 800132c:	e020      	b.n	8001370 <HAL_RCC_ClockConfig+0x17c>
    }
  }    

  /*-------------------------- PCLK1 Configuration ---------------------------*/ 
  if(((RCC_ClkInitStruct->ClockType) & RCC_CLOCKTYPE_PCLK1) == RCC_CLOCKTYPE_PCLK1)
 800132e:	687b      	ldr	r3, [r7, #4]
 8001330:	681b      	ldr	r3, [r3, #0]
 8001332:	2204      	movs	r2, #4
 8001334:	4013      	ands	r3, r2
 8001336:	d009      	beq.n	800134c <HAL_RCC_ClockConfig+0x158>
  {
    assert_param(IS_RCC_PCLK(RCC_ClkInitStruct->APB1CLKDivider));
    MODIFY_REG(RCC->CFGR, RCC_CFGR_PPRE, RCC_ClkInitStruct->APB1CLKDivider);
 8001338:	4b10      	ldr	r3, [pc, #64]	; (800137c <HAL_RCC_ClockConfig+0x188>)
 800133a:	685b      	ldr	r3, [r3, #4]
 800133c:	4a11      	ldr	r2, [pc, #68]	; (8001384 <HAL_RCC_ClockConfig+0x190>)
 800133e:	4013      	ands	r3, r2
 8001340:	0019      	movs	r1, r3
 8001342:	687b      	ldr	r3, [r7, #4]
 8001344:	68da      	ldr	r2, [r3, #12]
 8001346:	4b0d      	ldr	r3, [pc, #52]	; (800137c <HAL_RCC_ClockConfig+0x188>)
 8001348:	430a      	orrs	r2, r1
 800134a:	605a      	str	r2, [r3, #4]
  }
  
  /* Update the SystemCoreClock global variable */
  SystemCoreClock = HAL_RCC_GetSysClockFreq() >> AHBPrescTable[(RCC->CFGR & RCC_CFGR_HPRE)>> RCC_CFGR_HPRE_BITNUMBER];
 800134c:	f000 f820 	bl	8001390 <HAL_RCC_GetSysClockFreq>
 8001350:	0001      	movs	r1, r0
 8001352:	4b0a      	ldr	r3, [pc, #40]	; (800137c <HAL_RCC_ClockConfig+0x188>)
 8001354:	685b      	ldr	r3, [r3, #4]
 8001356:	091b      	lsrs	r3, r3, #4
 8001358:	220f      	movs	r2, #15
 800135a:	4013      	ands	r3, r2
 800135c:	4a0a      	ldr	r2, [pc, #40]	; (8001388 <HAL_RCC_ClockConfig+0x194>)
 800135e:	5cd3      	ldrb	r3, [r2, r3]
 8001360:	000a      	movs	r2, r1
 8001362:	40da      	lsrs	r2, r3
 8001364:	4b09      	ldr	r3, [pc, #36]	; (800138c <HAL_RCC_ClockConfig+0x198>)
 8001366:	601a      	str	r2, [r3, #0]

  /* Configure the source of time base considering new system clocks settings*/
  HAL_InitTick (TICK_INT_PRIORITY);
 8001368:	2000      	movs	r0, #0
 800136a:	f7ff f98d 	bl	8000688 <HAL_InitTick>
  
  return HAL_OK;
 800136e:	2300      	movs	r3, #0
}
 8001370:	0018      	movs	r0, r3
 8001372:	46bd      	mov	sp, r7
 8001374:	b004      	add	sp, #16
 8001376:	bd80      	pop	{r7, pc}
 8001378:	40022000 	.word	0x40022000
 800137c:	40021000 	.word	0x40021000
 8001380:	00001388 	.word	0x00001388
 8001384:	fffff8ff 	.word	0xfffff8ff
 8001388:	08008858 	.word	0x08008858
 800138c:	20000000 	.word	0x20000000

08001390 <HAL_RCC_GetSysClockFreq>:
  *         right SYSCLK value. Otherwise, any configuration based on this function will be incorrect.
  *         
  * @retval SYSCLK frequency
  */
uint32_t HAL_RCC_GetSysClockFreq(void)
{
 8001390:	b590      	push	{r4, r7, lr}
 8001392:	b08f      	sub	sp, #60	; 0x3c
 8001394:	af00      	add	r7, sp, #0
  const uint8_t aPLLMULFactorTable[16] = { 2U,  3U,  4U,  5U,  6U,  7U,  8U,  9U,
 8001396:	2314      	movs	r3, #20
 8001398:	18fb      	adds	r3, r7, r3
 800139a:	4a2c      	ldr	r2, [pc, #176]	; (800144c <HAL_RCC_GetSysClockFreq+0xbc>)
 800139c:	ca13      	ldmia	r2!, {r0, r1, r4}
 800139e:	c313      	stmia	r3!, {r0, r1, r4}
 80013a0:	6812      	ldr	r2, [r2, #0]
 80013a2:	601a      	str	r2, [r3, #0]
                                         10U, 11U, 12U, 13U, 14U, 15U, 16U, 16U};
  const uint8_t aPredivFactorTable[16] = { 1U, 2U,  3U,  4U,  5U,  6U,  7U,  8U,
 80013a4:	1d3b      	adds	r3, r7, #4
 80013a6:	4a2a      	ldr	r2, [pc, #168]	; (8001450 <HAL_RCC_GetSysClockFreq+0xc0>)
 80013a8:	ca13      	ldmia	r2!, {r0, r1, r4}
 80013aa:	c313      	stmia	r3!, {r0, r1, r4}
 80013ac:	6812      	ldr	r2, [r2, #0]
 80013ae:	601a      	str	r2, [r3, #0]
                                           9U,10U, 11U, 12U, 13U, 14U, 15U, 16U};

  uint32_t tmpreg = 0U, prediv = 0U, pllclk = 0U, pllmul = 0U;
 80013b0:	2300      	movs	r3, #0
 80013b2:	62fb      	str	r3, [r7, #44]	; 0x2c
 80013b4:	2300      	movs	r3, #0
 80013b6:	62bb      	str	r3, [r7, #40]	; 0x28
 80013b8:	2300      	movs	r3, #0
 80013ba:	637b      	str	r3, [r7, #52]	; 0x34
 80013bc:	2300      	movs	r3, #0
 80013be:	627b      	str	r3, [r7, #36]	; 0x24
  uint32_t sysclockfreq = 0U;
 80013c0:	2300      	movs	r3, #0
 80013c2:	633b      	str	r3, [r7, #48]	; 0x30
  
  tmpreg = RCC->CFGR;
 80013c4:	4b23      	ldr	r3, [pc, #140]	; (8001454 <HAL_RCC_GetSysClockFreq+0xc4>)
 80013c6:	685b      	ldr	r3, [r3, #4]
 80013c8:	62fb      	str	r3, [r7, #44]	; 0x2c
  
  /* Get SYSCLK source -------------------------------------------------------*/
  switch (tmpreg & RCC_CFGR_SWS)
 80013ca:	6afb      	ldr	r3, [r7, #44]	; 0x2c
 80013cc:	220c      	movs	r2, #12
 80013ce:	4013      	ands	r3, r2
 80013d0:	2b04      	cmp	r3, #4
 80013d2:	d002      	beq.n	80013da <HAL_RCC_GetSysClockFreq+0x4a>
 80013d4:	2b08      	cmp	r3, #8
 80013d6:	d003      	beq.n	80013e0 <HAL_RCC_GetSysClockFreq+0x50>
 80013d8:	e02f      	b.n	800143a <HAL_RCC_GetSysClockFreq+0xaa>
  {
    case RCC_SYSCLKSOURCE_STATUS_HSE:  /* HSE used as system clock */
    {
      sysclockfreq = HSE_VALUE;
 80013da:	4b1f      	ldr	r3, [pc, #124]	; (8001458 <HAL_RCC_GetSysClockFreq+0xc8>)
 80013dc:	633b      	str	r3, [r7, #48]	; 0x30
      break;
 80013de:	e02f      	b.n	8001440 <HAL_RCC_GetSysClockFreq+0xb0>
    }
    case RCC_SYSCLKSOURCE_STATUS_PLLCLK:  /* PLL used as system clock */
    {
      pllmul = aPLLMULFactorTable[(uint32_t)(tmpreg & RCC_CFGR_PLLMUL) >> RCC_CFGR_PLLMUL_BITNUMBER];
 80013e0:	6afb      	ldr	r3, [r7, #44]	; 0x2c
 80013e2:	0c9b      	lsrs	r3, r3, #18
 80013e4:	220f      	movs	r2, #15
 80013e6:	4013      	ands	r3, r2
 80013e8:	2214      	movs	r2, #20
 80013ea:	18ba      	adds	r2, r7, r2
 80013ec:	5cd3      	ldrb	r3, [r2, r3]
 80013ee:	627b      	str	r3, [r7, #36]	; 0x24
      prediv = aPredivFactorTable[(uint32_t)(RCC->CFGR2 & RCC_CFGR2_PREDIV) >> RCC_CFGR2_PREDIV_BITNUMBER];
 80013f0:	4b18      	ldr	r3, [pc, #96]	; (8001454 <HAL_RCC_GetSysClockFreq+0xc4>)
 80013f2:	6adb      	ldr	r3, [r3, #44]	; 0x2c
 80013f4:	220f      	movs	r2, #15
 80013f6:	4013      	ands	r3, r2
 80013f8:	1d3a      	adds	r2, r7, #4
 80013fa:	5cd3      	ldrb	r3, [r2, r3]
 80013fc:	62bb      	str	r3, [r7, #40]	; 0x28
      if ((tmpreg & RCC_CFGR_PLLSRC) == RCC_PLLSOURCE_HSE)
 80013fe:	6afa      	ldr	r2, [r7, #44]	; 0x2c
 8001400:	23c0      	movs	r3, #192	; 0xc0
 8001402:	025b      	lsls	r3, r3, #9
 8001404:	401a      	ands	r2, r3
 8001406:	2380      	movs	r3, #128	; 0x80
 8001408:	025b      	lsls	r3, r3, #9
 800140a:	429a      	cmp	r2, r3
 800140c:	d109      	bne.n	8001422 <HAL_RCC_GetSysClockFreq+0x92>
      {
        /* HSE used as PLL clock source : PLLCLK = HSE/PREDIV * PLLMUL */
        pllclk = (uint32_t)((uint64_t) HSE_VALUE / (uint64_t) (prediv)) * ((uint64_t) pllmul);
 800140e:	6ab9      	ldr	r1, [r7, #40]	; 0x28
 8001410:	4811      	ldr	r0, [pc, #68]	; (8001458 <HAL_RCC_GetSysClockFreq+0xc8>)
 8001412:	f7fe fe8b 	bl	800012c <__udivsi3>
 8001416:	0003      	movs	r3, r0
 8001418:	001a      	movs	r2, r3
 800141a:	6a7b      	ldr	r3, [r7, #36]	; 0x24
 800141c:	4353      	muls	r3, r2
 800141e:	637b      	str	r3, [r7, #52]	; 0x34
 8001420:	e008      	b.n	8001434 <HAL_RCC_GetSysClockFreq+0xa4>
#endif /* RCC_CFGR_PLLSRC_HSI48_PREDIV */
      else
      {
#if  (defined(STM32F042x6) || defined(STM32F048xx) || defined(STM32F070x6) || defined(STM32F071xB) || defined(STM32F072xB) || defined(STM32F078xx) || defined(STM32F070xB) || defined(STM32F091xC) || defined(STM32F098xx) || defined(STM32F030xC))
        /* HSI used as PLL clock source : PLLCLK = HSI/PREDIV * PLLMUL */
        pllclk = (uint32_t)((uint64_t) HSI_VALUE / (uint64_t) (prediv)) * ((uint64_t) pllmul);
 8001422:	6ab9      	ldr	r1, [r7, #40]	; 0x28
 8001424:	480c      	ldr	r0, [pc, #48]	; (8001458 <HAL_RCC_GetSysClockFreq+0xc8>)
 8001426:	f7fe fe81 	bl	800012c <__udivsi3>
 800142a:	0003      	movs	r3, r0
 800142c:	001a      	movs	r2, r3
 800142e:	6a7b      	ldr	r3, [r7, #36]	; 0x24
 8001430:	4353      	muls	r3, r2
 8001432:	637b      	str	r3, [r7, #52]	; 0x34
#else
        /* HSI used as PLL clock source : PLLCLK = HSI/2 * PLLMUL */
        pllclk = (uint32_t)((uint64_t) (HSI_VALUE >> 1U) * ((uint64_t) pllmul));
#endif
      }
      sysclockfreq = pllclk;
 8001434:	6b7b      	ldr	r3, [r7, #52]	; 0x34
 8001436:	633b      	str	r3, [r7, #48]	; 0x30
      break;
 8001438:	e002      	b.n	8001440 <HAL_RCC_GetSysClockFreq+0xb0>
    }
#endif /* RCC_CFGR_SWS_HSI48 */
    case RCC_SYSCLKSOURCE_STATUS_HSI:  /* HSI used as system clock source */
    default: /* HSI used as system clock */
    {
      sysclockfreq = HSI_VALUE;
 800143a:	4b07      	ldr	r3, [pc, #28]	; (8001458 <HAL_RCC_GetSysClockFreq+0xc8>)
 800143c:	633b      	str	r3, [r7, #48]	; 0x30
      break;
 800143e:	46c0      	nop			; (mov r8, r8)
    }
  }
  return sysclockfreq;
 8001440:	6b3b      	ldr	r3, [r7, #48]	; 0x30
}
 8001442:	0018      	movs	r0, r3
 8001444:	46bd      	mov	sp, r7
 8001446:	b00f      	add	sp, #60	; 0x3c
 8001448:	bd90      	pop	{r4, r7, pc}
 800144a:	46c0      	nop			; (mov r8, r8)
 800144c:	080083ac 	.word	0x080083ac
 8001450:	080083bc 	.word	0x080083bc
 8001454:	40021000 	.word	0x40021000
 8001458:	007a1200 	.word	0x007a1200

0800145c <HAL_SPI_Init>:
  * @param  hspi pointer to a SPI_HandleTypeDef structure that contains
  *               the configuration information for SPI module.
  * @retval HAL status
  */
HAL_StatusTypeDef HAL_SPI_Init(SPI_HandleTypeDef *hspi)
{
 800145c:	b580      	push	{r7, lr}
 800145e:	b084      	sub	sp, #16
 8001460:	af00      	add	r7, sp, #0
 8001462:	6078      	str	r0, [r7, #4]
  uint32_t frxth;

  /* Check the SPI handle allocation */
  if (hspi == NULL)
 8001464:	687b      	ldr	r3, [r7, #4]
 8001466:	2b00      	cmp	r3, #0
 8001468:	d101      	bne.n	800146e <HAL_SPI_Init+0x12>
  {
    return HAL_ERROR;
 800146a:	2301      	movs	r3, #1
 800146c:	e0a8      	b.n	80015c0 <HAL_SPI_Init+0x164>
  assert_param(IS_SPI_NSS(hspi->Init.NSS));
  assert_param(IS_SPI_NSSP(hspi->Init.NSSPMode));
  assert_param(IS_SPI_BAUDRATE_PRESCALER(hspi->Init.BaudRatePrescaler));
  assert_param(IS_SPI_FIRST_BIT(hspi->Init.FirstBit));
  assert_param(IS_SPI_TIMODE(hspi->Init.TIMode));
  if (hspi->Init.TIMode == SPI_TIMODE_DISABLE)
 800146e:	687b      	ldr	r3, [r7, #4]
 8001470:	6a5b      	ldr	r3, [r3, #36]	; 0x24
 8001472:	2b00      	cmp	r3, #0
 8001474:	d109      	bne.n	800148a <HAL_SPI_Init+0x2e>
  {
    assert_param(IS_SPI_CPOL(hspi->Init.CLKPolarity));
    assert_param(IS_SPI_CPHA(hspi->Init.CLKPhase));

    if (hspi->Init.Mode == SPI_MODE_MASTER)
 8001476:	687b      	ldr	r3, [r7, #4]
 8001478:	685a      	ldr	r2, [r3, #4]
 800147a:	2382      	movs	r3, #130	; 0x82
 800147c:	005b      	lsls	r3, r3, #1
 800147e:	429a      	cmp	r2, r3
 8001480:	d009      	beq.n	8001496 <HAL_SPI_Init+0x3a>
      assert_param(IS_SPI_BAUDRATE_PRESCALER(hspi->Init.BaudRatePrescaler));
    }
    else
    {
      /* Baudrate prescaler not use in Motoraola Slave mode. force to default value */
      hspi->Init.BaudRatePrescaler = SPI_BAUDRATEPRESCALER_2;
 8001482:	687b      	ldr	r3, [r7, #4]
 8001484:	2200      	movs	r2, #0
 8001486:	61da      	str	r2, [r3, #28]
 8001488:	e005      	b.n	8001496 <HAL_SPI_Init+0x3a>
  else
  {
    assert_param(IS_SPI_BAUDRATE_PRESCALER(hspi->Init.BaudRatePrescaler));

    /* Force polarity and phase to TI protocaol requirements */
    hspi->Init.CLKPolarity = SPI_POLARITY_LOW;
 800148a:	687b      	ldr	r3, [r7, #4]
 800148c:	2200      	movs	r2, #0
 800148e:	611a      	str	r2, [r3, #16]
    hspi->Init.CLKPhase    = SPI_PHASE_1EDGE;
 8001490:	687b      	ldr	r3, [r7, #4]
 8001492:	2200      	movs	r2, #0
 8001494:	615a      	str	r2, [r3, #20]
  {
    assert_param(IS_SPI_CRC_POLYNOMIAL(hspi->Init.CRCPolynomial));
    assert_param(IS_SPI_CRC_LENGTH(hspi->Init.CRCLength));
  }
#else
  hspi->Init.CRCCalculation = SPI_CRCCALCULATION_DISABLE;
 8001496:	687b      	ldr	r3, [r7, #4]
 8001498:	2200      	movs	r2, #0
 800149a:	629a      	str	r2, [r3, #40]	; 0x28
#endif /* USE_SPI_CRC */

  if (hspi->State == HAL_SPI_STATE_RESET)
 800149c:	687b      	ldr	r3, [r7, #4]
 800149e:	225d      	movs	r2, #93	; 0x5d
 80014a0:	5c9b      	ldrb	r3, [r3, r2]
 80014a2:	b2db      	uxtb	r3, r3
 80014a4:	2b00      	cmp	r3, #0
 80014a6:	d107      	bne.n	80014b8 <HAL_SPI_Init+0x5c>
  {
    /* Allocate lock resource and initialize it */
    hspi->Lock = HAL_UNLOCKED;
 80014a8:	687b      	ldr	r3, [r7, #4]
 80014aa:	225c      	movs	r2, #92	; 0x5c
 80014ac:	2100      	movs	r1, #0
 80014ae:	5499      	strb	r1, [r3, r2]

    /* Init the low level hardware : GPIO, CLOCK, NVIC... */
    hspi->MspInitCallback(hspi);
#else
    /* Init the low level hardware : GPIO, CLOCK, NVIC... */
    HAL_SPI_MspInit(hspi);
 80014b0:	687b      	ldr	r3, [r7, #4]
 80014b2:	0018      	movs	r0, r3
 80014b4:	f7ff f808 	bl	80004c8 <HAL_SPI_MspInit>
#endif /* USE_HAL_SPI_REGISTER_CALLBACKS */
  }

  hspi->State = HAL_SPI_STATE_BUSY;
 80014b8:	687b      	ldr	r3, [r7, #4]
 80014ba:	225d      	movs	r2, #93	; 0x5d
 80014bc:	2102      	movs	r1, #2
 80014be:	5499      	strb	r1, [r3, r2]

  /* Disable the selected SPI peripheral */
  __HAL_SPI_DISABLE(hspi);
 80014c0:	687b      	ldr	r3, [r7, #4]
 80014c2:	681b      	ldr	r3, [r3, #0]
 80014c4:	681a      	ldr	r2, [r3, #0]
 80014c6:	687b      	ldr	r3, [r7, #4]
 80014c8:	681b      	ldr	r3, [r3, #0]
 80014ca:	2140      	movs	r1, #64	; 0x40
 80014cc:	438a      	bics	r2, r1
 80014ce:	601a      	str	r2, [r3, #0]

  /* Align by default the rs fifo threshold on the data size */
  if (hspi->Init.DataSize > SPI_DATASIZE_8BIT)
 80014d0:	687b      	ldr	r3, [r7, #4]
 80014d2:	68da      	ldr	r2, [r3, #12]
 80014d4:	23e0      	movs	r3, #224	; 0xe0
 80014d6:	00db      	lsls	r3, r3, #3
 80014d8:	429a      	cmp	r2, r3
 80014da:	d902      	bls.n	80014e2 <HAL_SPI_Init+0x86>
  {
    frxth = SPI_RXFIFO_THRESHOLD_HF;
 80014dc:	2300      	movs	r3, #0
 80014de:	60fb      	str	r3, [r7, #12]
 80014e0:	e002      	b.n	80014e8 <HAL_SPI_Init+0x8c>
  }
  else
  {
    frxth = SPI_RXFIFO_THRESHOLD_QF;
 80014e2:	2380      	movs	r3, #128	; 0x80
 80014e4:	015b      	lsls	r3, r3, #5
 80014e6:	60fb      	str	r3, [r7, #12]
  }

  /* CRC calculation is valid only for 16Bit and 8 Bit */
  if ((hspi->Init.DataSize != SPI_DATASIZE_16BIT) && (hspi->Init.DataSize != SPI_DATASIZE_8BIT))
 80014e8:	687b      	ldr	r3, [r7, #4]
 80014ea:	68da      	ldr	r2, [r3, #12]
 80014ec:	23f0      	movs	r3, #240	; 0xf0
 80014ee:	011b      	lsls	r3, r3, #4
 80014f0:	429a      	cmp	r2, r3
 80014f2:	d008      	beq.n	8001506 <HAL_SPI_Init+0xaa>
 80014f4:	687b      	ldr	r3, [r7, #4]
 80014f6:	68da      	ldr	r2, [r3, #12]
 80014f8:	23e0      	movs	r3, #224	; 0xe0
 80014fa:	00db      	lsls	r3, r3, #3
 80014fc:	429a      	cmp	r2, r3
 80014fe:	d002      	beq.n	8001506 <HAL_SPI_Init+0xaa>
  {
    /* CRC must be disabled */
    hspi->Init.CRCCalculation = SPI_CRCCALCULATION_DISABLE;
 8001500:	687b      	ldr	r3, [r7, #4]
 8001502:	2200      	movs	r2, #0
 8001504:	629a      	str	r2, [r3, #40]	; 0x28
  }

  /*----------------------- SPIx CR1 & CR2 Configuration ---------------------*/
  /* Configure : SPI Mode, Communication Mode, Clock polarity and phase, NSS management,
  Communication speed, First bit and CRC calculation state */
  WRITE_REG(hspi->Instance->CR1, ((hspi->Init.Mode & (SPI_CR1_MSTR | SPI_CR1_SSI)) |
 8001506:	687b      	ldr	r3, [r7, #4]
 8001508:	685a      	ldr	r2, [r3, #4]
 800150a:	2382      	movs	r3, #130	; 0x82
 800150c:	005b      	lsls	r3, r3, #1
 800150e:	401a      	ands	r2, r3
 8001510:	687b      	ldr	r3, [r7, #4]
 8001512:	6899      	ldr	r1, [r3, #8]
 8001514:	2384      	movs	r3, #132	; 0x84
 8001516:	021b      	lsls	r3, r3, #8
 8001518:	400b      	ands	r3, r1
 800151a:	431a      	orrs	r2, r3
 800151c:	687b      	ldr	r3, [r7, #4]
 800151e:	691b      	ldr	r3, [r3, #16]
 8001520:	2102      	movs	r1, #2
 8001522:	400b      	ands	r3, r1
 8001524:	431a      	orrs	r2, r3
 8001526:	687b      	ldr	r3, [r7, #4]
 8001528:	695b      	ldr	r3, [r3, #20]
 800152a:	2101      	movs	r1, #1
 800152c:	400b      	ands	r3, r1
 800152e:	431a      	orrs	r2, r3
 8001530:	687b      	ldr	r3, [r7, #4]
 8001532:	6999      	ldr	r1, [r3, #24]
 8001534:	2380      	movs	r3, #128	; 0x80
 8001536:	009b      	lsls	r3, r3, #2
 8001538:	400b      	ands	r3, r1
 800153a:	431a      	orrs	r2, r3
 800153c:	687b      	ldr	r3, [r7, #4]
 800153e:	69db      	ldr	r3, [r3, #28]
 8001540:	2138      	movs	r1, #56	; 0x38
 8001542:	400b      	ands	r3, r1
 8001544:	431a      	orrs	r2, r3
 8001546:	687b      	ldr	r3, [r7, #4]
 8001548:	6a1b      	ldr	r3, [r3, #32]
 800154a:	2180      	movs	r1, #128	; 0x80
 800154c:	400b      	ands	r3, r1
 800154e:	431a      	orrs	r2, r3
 8001550:	0011      	movs	r1, r2
 8001552:	687b      	ldr	r3, [r7, #4]
 8001554:	6a9a      	ldr	r2, [r3, #40]	; 0x28
 8001556:	2380      	movs	r3, #128	; 0x80
 8001558:	019b      	lsls	r3, r3, #6
 800155a:	401a      	ands	r2, r3
 800155c:	687b      	ldr	r3, [r7, #4]
 800155e:	681b      	ldr	r3, [r3, #0]
 8001560:	430a      	orrs	r2, r1
 8001562:	601a      	str	r2, [r3, #0]
    }
  }
#endif /* USE_SPI_CRC */

  /* Configure : NSS management, TI Mode, NSS Pulse, Data size and Rx Fifo threshold */
  WRITE_REG(hspi->Instance->CR2, (((hspi->Init.NSS >> 16U) & SPI_CR2_SSOE) |
 8001564:	687b      	ldr	r3, [r7, #4]
 8001566:	699b      	ldr	r3, [r3, #24]
 8001568:	0c1b      	lsrs	r3, r3, #16
 800156a:	2204      	movs	r2, #4
 800156c:	401a      	ands	r2, r3
 800156e:	687b      	ldr	r3, [r7, #4]
 8001570:	6a5b      	ldr	r3, [r3, #36]	; 0x24
 8001572:	2110      	movs	r1, #16
 8001574:	400b      	ands	r3, r1
 8001576:	431a      	orrs	r2, r3
 8001578:	687b      	ldr	r3, [r7, #4]
 800157a:	6b5b      	ldr	r3, [r3, #52]	; 0x34
 800157c:	2108      	movs	r1, #8
 800157e:	400b      	ands	r3, r1
 8001580:	431a      	orrs	r2, r3
 8001582:	687b      	ldr	r3, [r7, #4]
 8001584:	68d9      	ldr	r1, [r3, #12]
 8001586:	23f0      	movs	r3, #240	; 0xf0
 8001588:	011b      	lsls	r3, r3, #4
 800158a:	400b      	ands	r3, r1
 800158c:	431a      	orrs	r2, r3
 800158e:	0011      	movs	r1, r2
 8001590:	68fa      	ldr	r2, [r7, #12]
 8001592:	2380      	movs	r3, #128	; 0x80
 8001594:	015b      	lsls	r3, r3, #5
 8001596:	401a      	ands	r2, r3
 8001598:	687b      	ldr	r3, [r7, #4]
 800159a:	681b      	ldr	r3, [r3, #0]
 800159c:	430a      	orrs	r2, r1
 800159e:	605a      	str	r2, [r3, #4]
  }
#endif /* USE_SPI_CRC */

#if defined(SPI_I2SCFGR_I2SMOD)
  /* Activate the SPI mode (Make sure that I2SMOD bit in I2SCFGR register is reset) */
  CLEAR_BIT(hspi->Instance->I2SCFGR, SPI_I2SCFGR_I2SMOD);
 80015a0:	687b      	ldr	r3, [r7, #4]
 80015a2:	681b      	ldr	r3, [r3, #0]
 80015a4:	69da      	ldr	r2, [r3, #28]
 80015a6:	687b      	ldr	r3, [r7, #4]
 80015a8:	681b      	ldr	r3, [r3, #0]
 80015aa:	4907      	ldr	r1, [pc, #28]	; (80015c8 <HAL_SPI_Init+0x16c>)
 80015ac:	400a      	ands	r2, r1
 80015ae:	61da      	str	r2, [r3, #28]
#endif /* SPI_I2SCFGR_I2SMOD */

  hspi->ErrorCode = HAL_SPI_ERROR_NONE;
 80015b0:	687b      	ldr	r3, [r7, #4]
 80015b2:	2200      	movs	r2, #0
 80015b4:	661a      	str	r2, [r3, #96]	; 0x60
  hspi->State     = HAL_SPI_STATE_READY;
 80015b6:	687b      	ldr	r3, [r7, #4]
 80015b8:	225d      	movs	r2, #93	; 0x5d
 80015ba:	2101      	movs	r1, #1
 80015bc:	5499      	strb	r1, [r3, r2]

  return HAL_OK;
 80015be:	2300      	movs	r3, #0
}
 80015c0:	0018      	movs	r0, r3
 80015c2:	46bd      	mov	sp, r7
 80015c4:	b004      	add	sp, #16
 80015c6:	bd80      	pop	{r7, pc}
 80015c8:	fffff7ff 	.word	0xfffff7ff

080015cc <HAL_SPI_TransmitReceive>:
  * @param  Timeout Timeout duration
  * @retval HAL status
  */
HAL_StatusTypeDef HAL_SPI_TransmitReceive(SPI_HandleTypeDef *hspi, uint8_t *pTxData, uint8_t *pRxData, uint16_t Size,
                                          uint32_t Timeout)
{
 80015cc:	b580      	push	{r7, lr}
 80015ce:	b08a      	sub	sp, #40	; 0x28
 80015d0:	af00      	add	r7, sp, #0
 80015d2:	60f8      	str	r0, [r7, #12]
 80015d4:	60b9      	str	r1, [r7, #8]
 80015d6:	607a      	str	r2, [r7, #4]
 80015d8:	001a      	movs	r2, r3
 80015da:	1cbb      	adds	r3, r7, #2
 80015dc:	801a      	strh	r2, [r3, #0]
  __IO uint8_t  * ptmpreg8;
  __IO uint8_t  tmpreg8 = 0;
#endif /* USE_SPI_CRC */

  /* Variable used to alternate Rx and Tx during transfer */
  uint32_t             txallowed = 1U;
 80015de:	2301      	movs	r3, #1
 80015e0:	627b      	str	r3, [r7, #36]	; 0x24
  HAL_StatusTypeDef    errorcode = HAL_OK;
 80015e2:	2323      	movs	r3, #35	; 0x23
 80015e4:	18fb      	adds	r3, r7, r3
 80015e6:	2200      	movs	r2, #0
 80015e8:	701a      	strb	r2, [r3, #0]

  /* Check Direction parameter */
  assert_param(IS_SPI_DIRECTION_2LINES(hspi->Init.Direction));

  /* Process Locked */
  __HAL_LOCK(hspi);
 80015ea:	68fb      	ldr	r3, [r7, #12]
 80015ec:	225c      	movs	r2, #92	; 0x5c
 80015ee:	5c9b      	ldrb	r3, [r3, r2]
 80015f0:	2b01      	cmp	r3, #1
 80015f2:	d101      	bne.n	80015f8 <HAL_SPI_TransmitReceive+0x2c>
 80015f4:	2302      	movs	r3, #2
 80015f6:	e1b5      	b.n	8001964 <HAL_SPI_TransmitReceive+0x398>
 80015f8:	68fb      	ldr	r3, [r7, #12]
 80015fa:	225c      	movs	r2, #92	; 0x5c
 80015fc:	2101      	movs	r1, #1
 80015fe:	5499      	strb	r1, [r3, r2]

  /* Init tickstart for timeout management*/
  tickstart = HAL_GetTick();
 8001600:	f7ff f888 	bl	8000714 <HAL_GetTick>
 8001604:	0003      	movs	r3, r0
 8001606:	61fb      	str	r3, [r7, #28]

  /* Init temporary variables */
  tmp_state           = hspi->State;
 8001608:	201b      	movs	r0, #27
 800160a:	183b      	adds	r3, r7, r0
 800160c:	68fa      	ldr	r2, [r7, #12]
 800160e:	215d      	movs	r1, #93	; 0x5d
 8001610:	5c52      	ldrb	r2, [r2, r1]
 8001612:	701a      	strb	r2, [r3, #0]
  tmp_mode            = hspi->Init.Mode;
 8001614:	68fb      	ldr	r3, [r7, #12]
 8001616:	685b      	ldr	r3, [r3, #4]
 8001618:	617b      	str	r3, [r7, #20]
  initial_TxXferCount = Size;
 800161a:	2312      	movs	r3, #18
 800161c:	18fb      	adds	r3, r7, r3
 800161e:	1cba      	adds	r2, r7, #2
 8001620:	8812      	ldrh	r2, [r2, #0]
 8001622:	801a      	strh	r2, [r3, #0]
#if (USE_SPI_CRC != 0U)
  spi_cr1             = READ_REG(hspi->Instance->CR1);
  spi_cr2             = READ_REG(hspi->Instance->CR2);
#endif /* USE_SPI_CRC */

  if (!((tmp_state == HAL_SPI_STATE_READY) || \
 8001624:	183b      	adds	r3, r7, r0
 8001626:	781b      	ldrb	r3, [r3, #0]
 8001628:	2b01      	cmp	r3, #1
 800162a:	d011      	beq.n	8001650 <HAL_SPI_TransmitReceive+0x84>
 800162c:	697a      	ldr	r2, [r7, #20]
 800162e:	2382      	movs	r3, #130	; 0x82
 8001630:	005b      	lsls	r3, r3, #1
 8001632:	429a      	cmp	r2, r3
 8001634:	d107      	bne.n	8001646 <HAL_SPI_TransmitReceive+0x7a>
        ((tmp_mode == SPI_MODE_MASTER) && (hspi->Init.Direction == SPI_DIRECTION_2LINES) && (tmp_state == HAL_SPI_STATE_BUSY_RX))))
 8001636:	68fb      	ldr	r3, [r7, #12]
 8001638:	689b      	ldr	r3, [r3, #8]
 800163a:	2b00      	cmp	r3, #0
 800163c:	d103      	bne.n	8001646 <HAL_SPI_TransmitReceive+0x7a>
 800163e:	183b      	adds	r3, r7, r0
 8001640:	781b      	ldrb	r3, [r3, #0]
 8001642:	2b04      	cmp	r3, #4
 8001644:	d004      	beq.n	8001650 <HAL_SPI_TransmitReceive+0x84>
  {
    errorcode = HAL_BUSY;
 8001646:	2323      	movs	r3, #35	; 0x23
 8001648:	18fb      	adds	r3, r7, r3
 800164a:	2202      	movs	r2, #2
 800164c:	701a      	strb	r2, [r3, #0]
    goto error;
 800164e:	e17e      	b.n	800194e <HAL_SPI_TransmitReceive+0x382>
  }

  if ((pTxData == NULL) || (pRxData == NULL) || (Size == 0U))
 8001650:	68bb      	ldr	r3, [r7, #8]
 8001652:	2b00      	cmp	r3, #0
 8001654:	d006      	beq.n	8001664 <HAL_SPI_TransmitReceive+0x98>
 8001656:	687b      	ldr	r3, [r7, #4]
 8001658:	2b00      	cmp	r3, #0
 800165a:	d003      	beq.n	8001664 <HAL_SPI_TransmitReceive+0x98>
 800165c:	1cbb      	adds	r3, r7, #2
 800165e:	881b      	ldrh	r3, [r3, #0]
 8001660:	2b00      	cmp	r3, #0
 8001662:	d104      	bne.n	800166e <HAL_SPI_TransmitReceive+0xa2>
  {
    errorcode = HAL_ERROR;
 8001664:	2323      	movs	r3, #35	; 0x23
 8001666:	18fb      	adds	r3, r7, r3
 8001668:	2201      	movs	r2, #1
 800166a:	701a      	strb	r2, [r3, #0]
    goto error;
 800166c:	e16f      	b.n	800194e <HAL_SPI_TransmitReceive+0x382>
  }

  /* Don't overwrite in case of HAL_SPI_STATE_BUSY_RX */
  if (hspi->State != HAL_SPI_STATE_BUSY_RX)
 800166e:	68fb      	ldr	r3, [r7, #12]
 8001670:	225d      	movs	r2, #93	; 0x5d
 8001672:	5c9b      	ldrb	r3, [r3, r2]
 8001674:	b2db      	uxtb	r3, r3
 8001676:	2b04      	cmp	r3, #4
 8001678:	d003      	beq.n	8001682 <HAL_SPI_TransmitReceive+0xb6>
  {
    hspi->State = HAL_SPI_STATE_BUSY_TX_RX;
 800167a:	68fb      	ldr	r3, [r7, #12]
 800167c:	225d      	movs	r2, #93	; 0x5d
 800167e:	2105      	movs	r1, #5
 8001680:	5499      	strb	r1, [r3, r2]
  }

  /* Set the transaction information */
  hspi->ErrorCode   = HAL_SPI_ERROR_NONE;
 8001682:	68fb      	ldr	r3, [r7, #12]
 8001684:	2200      	movs	r2, #0
 8001686:	661a      	str	r2, [r3, #96]	; 0x60
  hspi->pRxBuffPtr  = (uint8_t *)pRxData;
 8001688:	68fb      	ldr	r3, [r7, #12]
 800168a:	687a      	ldr	r2, [r7, #4]
 800168c:	641a      	str	r2, [r3, #64]	; 0x40
  hspi->RxXferCount = Size;
 800168e:	68fb      	ldr	r3, [r7, #12]
 8001690:	1cba      	adds	r2, r7, #2
 8001692:	2146      	movs	r1, #70	; 0x46
 8001694:	8812      	ldrh	r2, [r2, #0]
 8001696:	525a      	strh	r2, [r3, r1]
  hspi->RxXferSize  = Size;
 8001698:	68fb      	ldr	r3, [r7, #12]
 800169a:	1cba      	adds	r2, r7, #2
 800169c:	2144      	movs	r1, #68	; 0x44
 800169e:	8812      	ldrh	r2, [r2, #0]
 80016a0:	525a      	strh	r2, [r3, r1]
  hspi->pTxBuffPtr  = (uint8_t *)pTxData;
 80016a2:	68fb      	ldr	r3, [r7, #12]
 80016a4:	68ba      	ldr	r2, [r7, #8]
 80016a6:	639a      	str	r2, [r3, #56]	; 0x38
  hspi->TxXferCount = Size;
 80016a8:	68fb      	ldr	r3, [r7, #12]
 80016aa:	1cba      	adds	r2, r7, #2
 80016ac:	8812      	ldrh	r2, [r2, #0]
 80016ae:	87da      	strh	r2, [r3, #62]	; 0x3e
  hspi->TxXferSize  = Size;
 80016b0:	68fb      	ldr	r3, [r7, #12]
 80016b2:	1cba      	adds	r2, r7, #2
 80016b4:	8812      	ldrh	r2, [r2, #0]
 80016b6:	879a      	strh	r2, [r3, #60]	; 0x3c

  /*Init field not used in handle to zero */
  hspi->RxISR       = NULL;
 80016b8:	68fb      	ldr	r3, [r7, #12]
 80016ba:	2200      	movs	r2, #0
 80016bc:	64da      	str	r2, [r3, #76]	; 0x4c
  hspi->TxISR       = NULL;
 80016be:	68fb      	ldr	r3, [r7, #12]
 80016c0:	2200      	movs	r2, #0
 80016c2:	651a      	str	r2, [r3, #80]	; 0x50
    SPI_RESET_CRC(hspi);
  }
#endif /* USE_SPI_CRC */

  /* Set the Rx Fifo threshold */
  if (hspi->Init.DataSize > SPI_DATASIZE_8BIT)
 80016c4:	68fb      	ldr	r3, [r7, #12]
 80016c6:	68da      	ldr	r2, [r3, #12]
 80016c8:	23e0      	movs	r3, #224	; 0xe0
 80016ca:	00db      	lsls	r3, r3, #3
 80016cc:	429a      	cmp	r2, r3
 80016ce:	d908      	bls.n	80016e2 <HAL_SPI_TransmitReceive+0x116>
  {
    /* Set fiforxthreshold according the reception data length: 16bit */
    CLEAR_BIT(hspi->Instance->CR2, SPI_RXFIFO_THRESHOLD);
 80016d0:	68fb      	ldr	r3, [r7, #12]
 80016d2:	681b      	ldr	r3, [r3, #0]
 80016d4:	685a      	ldr	r2, [r3, #4]
 80016d6:	68fb      	ldr	r3, [r7, #12]
 80016d8:	681b      	ldr	r3, [r3, #0]
 80016da:	49a4      	ldr	r1, [pc, #656]	; (800196c <HAL_SPI_TransmitReceive+0x3a0>)
 80016dc:	400a      	ands	r2, r1
 80016de:	605a      	str	r2, [r3, #4]
 80016e0:	e008      	b.n	80016f4 <HAL_SPI_TransmitReceive+0x128>
  }
  else
  {
    /* Set fiforxthreshold according the reception data length: 8bit */
    SET_BIT(hspi->Instance->CR2, SPI_RXFIFO_THRESHOLD);
 80016e2:	68fb      	ldr	r3, [r7, #12]
 80016e4:	681b      	ldr	r3, [r3, #0]
 80016e6:	685a      	ldr	r2, [r3, #4]
 80016e8:	68fb      	ldr	r3, [r7, #12]
 80016ea:	681b      	ldr	r3, [r3, #0]
 80016ec:	2180      	movs	r1, #128	; 0x80
 80016ee:	0149      	lsls	r1, r1, #5
 80016f0:	430a      	orrs	r2, r1
 80016f2:	605a      	str	r2, [r3, #4]
  }

  /* Check if the SPI is already enabled */
  if ((hspi->Instance->CR1 & SPI_CR1_SPE) != SPI_CR1_SPE)
 80016f4:	68fb      	ldr	r3, [r7, #12]
 80016f6:	681b      	ldr	r3, [r3, #0]
 80016f8:	681b      	ldr	r3, [r3, #0]
 80016fa:	2240      	movs	r2, #64	; 0x40
 80016fc:	4013      	ands	r3, r2
 80016fe:	2b40      	cmp	r3, #64	; 0x40
 8001700:	d007      	beq.n	8001712 <HAL_SPI_TransmitReceive+0x146>
  {
    /* Enable SPI peripheral */
    __HAL_SPI_ENABLE(hspi);
 8001702:	68fb      	ldr	r3, [r7, #12]
 8001704:	681b      	ldr	r3, [r3, #0]
 8001706:	681a      	ldr	r2, [r3, #0]
 8001708:	68fb      	ldr	r3, [r7, #12]
 800170a:	681b      	ldr	r3, [r3, #0]
 800170c:	2140      	movs	r1, #64	; 0x40
 800170e:	430a      	orrs	r2, r1
 8001710:	601a      	str	r2, [r3, #0]
  }

  /* Transmit and Receive data in 16 Bit mode */
  if (hspi->Init.DataSize > SPI_DATASIZE_8BIT)
 8001712:	68fb      	ldr	r3, [r7, #12]
 8001714:	68da      	ldr	r2, [r3, #12]
 8001716:	23e0      	movs	r3, #224	; 0xe0
 8001718:	00db      	lsls	r3, r3, #3
 800171a:	429a      	cmp	r2, r3
 800171c:	d800      	bhi.n	8001720 <HAL_SPI_TransmitReceive+0x154>
 800171e:	e07f      	b.n	8001820 <HAL_SPI_TransmitReceive+0x254>
  {
    if ((hspi->Init.Mode == SPI_MODE_SLAVE) || (initial_TxXferCount == 0x01U))
 8001720:	68fb      	ldr	r3, [r7, #12]
 8001722:	685b      	ldr	r3, [r3, #4]
 8001724:	2b00      	cmp	r3, #0
 8001726:	d005      	beq.n	8001734 <HAL_SPI_TransmitReceive+0x168>
 8001728:	2312      	movs	r3, #18
 800172a:	18fb      	adds	r3, r7, r3
 800172c:	881b      	ldrh	r3, [r3, #0]
 800172e:	2b01      	cmp	r3, #1
 8001730:	d000      	beq.n	8001734 <HAL_SPI_TransmitReceive+0x168>
 8001732:	e069      	b.n	8001808 <HAL_SPI_TransmitReceive+0x23c>
    {
      hspi->Instance->DR = *((uint16_t *)hspi->pTxBuffPtr);
 8001734:	68fb      	ldr	r3, [r7, #12]
 8001736:	6b9b      	ldr	r3, [r3, #56]	; 0x38
 8001738:	881a      	ldrh	r2, [r3, #0]
 800173a:	68fb      	ldr	r3, [r7, #12]
 800173c:	681b      	ldr	r3, [r3, #0]
 800173e:	60da      	str	r2, [r3, #12]
      hspi->pTxBuffPtr += sizeof(uint16_t);
 8001740:	68fb      	ldr	r3, [r7, #12]
 8001742:	6b9b      	ldr	r3, [r3, #56]	; 0x38
 8001744:	1c9a      	adds	r2, r3, #2
 8001746:	68fb      	ldr	r3, [r7, #12]
 8001748:	639a      	str	r2, [r3, #56]	; 0x38
      hspi->TxXferCount--;
 800174a:	68fb      	ldr	r3, [r7, #12]
 800174c:	8fdb      	ldrh	r3, [r3, #62]	; 0x3e
 800174e:	b29b      	uxth	r3, r3
 8001750:	3b01      	subs	r3, #1
 8001752:	b29a      	uxth	r2, r3
 8001754:	68fb      	ldr	r3, [r7, #12]
 8001756:	87da      	strh	r2, [r3, #62]	; 0x3e
    }
    while ((hspi->TxXferCount > 0U) || (hspi->RxXferCount > 0U))
 8001758:	e056      	b.n	8001808 <HAL_SPI_TransmitReceive+0x23c>
    {
      /* Check TXE flag */
      if ((__HAL_SPI_GET_FLAG(hspi, SPI_FLAG_TXE)) && (hspi->TxXferCount > 0U) && (txallowed == 1U))
 800175a:	68fb      	ldr	r3, [r7, #12]
 800175c:	681b      	ldr	r3, [r3, #0]
 800175e:	689b      	ldr	r3, [r3, #8]
 8001760:	2202      	movs	r2, #2
 8001762:	4013      	ands	r3, r2
 8001764:	2b02      	cmp	r3, #2
 8001766:	d11b      	bne.n	80017a0 <HAL_SPI_TransmitReceive+0x1d4>
 8001768:	68fb      	ldr	r3, [r7, #12]
 800176a:	8fdb      	ldrh	r3, [r3, #62]	; 0x3e
 800176c:	b29b      	uxth	r3, r3
 800176e:	2b00      	cmp	r3, #0
 8001770:	d016      	beq.n	80017a0 <HAL_SPI_TransmitReceive+0x1d4>
 8001772:	6a7b      	ldr	r3, [r7, #36]	; 0x24
 8001774:	2b01      	cmp	r3, #1
 8001776:	d113      	bne.n	80017a0 <HAL_SPI_TransmitReceive+0x1d4>
      {
        hspi->Instance->DR = *((uint16_t *)hspi->pTxBuffPtr);
 8001778:	68fb      	ldr	r3, [r7, #12]
 800177a:	6b9b      	ldr	r3, [r3, #56]	; 0x38
 800177c:	881a      	ldrh	r2, [r3, #0]
 800177e:	68fb      	ldr	r3, [r7, #12]
 8001780:	681b      	ldr	r3, [r3, #0]
 8001782:	60da      	str	r2, [r3, #12]
        hspi->pTxBuffPtr += sizeof(uint16_t);
 8001784:	68fb      	ldr	r3, [r7, #12]
 8001786:	6b9b      	ldr	r3, [r3, #56]	; 0x38
 8001788:	1c9a      	adds	r2, r3, #2
 800178a:	68fb      	ldr	r3, [r7, #12]
 800178c:	639a      	str	r2, [r3, #56]	; 0x38
        hspi->TxXferCount--;
 800178e:	68fb      	ldr	r3, [r7, #12]
 8001790:	8fdb      	ldrh	r3, [r3, #62]	; 0x3e
 8001792:	b29b      	uxth	r3, r3
 8001794:	3b01      	subs	r3, #1
 8001796:	b29a      	uxth	r2, r3
 8001798:	68fb      	ldr	r3, [r7, #12]
 800179a:	87da      	strh	r2, [r3, #62]	; 0x3e
        /* Next Data is a reception (Rx). Tx not allowed */
        txallowed = 0U;
 800179c:	2300      	movs	r3, #0
 800179e:	627b      	str	r3, [r7, #36]	; 0x24
        }
#endif /* USE_SPI_CRC */
      }

      /* Check RXNE flag */
      if ((__HAL_SPI_GET_FLAG(hspi, SPI_FLAG_RXNE)) && (hspi->RxXferCount > 0U))
 80017a0:	68fb      	ldr	r3, [r7, #12]
 80017a2:	681b      	ldr	r3, [r3, #0]
 80017a4:	689b      	ldr	r3, [r3, #8]
 80017a6:	2201      	movs	r2, #1
 80017a8:	4013      	ands	r3, r2
 80017aa:	2b01      	cmp	r3, #1
 80017ac:	d11c      	bne.n	80017e8 <HAL_SPI_TransmitReceive+0x21c>
 80017ae:	68fb      	ldr	r3, [r7, #12]
 80017b0:	2246      	movs	r2, #70	; 0x46
 80017b2:	5a9b      	ldrh	r3, [r3, r2]
 80017b4:	b29b      	uxth	r3, r3
 80017b6:	2b00      	cmp	r3, #0
 80017b8:	d016      	beq.n	80017e8 <HAL_SPI_TransmitReceive+0x21c>
      {
        *((uint16_t *)hspi->pRxBuffPtr) = (uint16_t)hspi->Instance->DR;
 80017ba:	68fb      	ldr	r3, [r7, #12]
 80017bc:	681b      	ldr	r3, [r3, #0]
 80017be:	68da      	ldr	r2, [r3, #12]
 80017c0:	68fb      	ldr	r3, [r7, #12]
 80017c2:	6c1b      	ldr	r3, [r3, #64]	; 0x40
 80017c4:	b292      	uxth	r2, r2
 80017c6:	801a      	strh	r2, [r3, #0]
        hspi->pRxBuffPtr += sizeof(uint16_t);
 80017c8:	68fb      	ldr	r3, [r7, #12]
 80017ca:	6c1b      	ldr	r3, [r3, #64]	; 0x40
 80017cc:	1c9a      	adds	r2, r3, #2
 80017ce:	68fb      	ldr	r3, [r7, #12]
 80017d0:	641a      	str	r2, [r3, #64]	; 0x40
        hspi->RxXferCount--;
 80017d2:	68fb      	ldr	r3, [r7, #12]
 80017d4:	2246      	movs	r2, #70	; 0x46
 80017d6:	5a9b      	ldrh	r3, [r3, r2]
 80017d8:	b29b      	uxth	r3, r3
 80017da:	3b01      	subs	r3, #1
 80017dc:	b299      	uxth	r1, r3
 80017de:	68fb      	ldr	r3, [r7, #12]
 80017e0:	2246      	movs	r2, #70	; 0x46
 80017e2:	5299      	strh	r1, [r3, r2]
        /* Next Data is a Transmission (Tx). Tx is allowed */
        txallowed = 1U;
 80017e4:	2301      	movs	r3, #1
 80017e6:	627b      	str	r3, [r7, #36]	; 0x24
      }
      if (((HAL_GetTick() - tickstart) >=  Timeout) && (Timeout != HAL_MAX_DELAY))
 80017e8:	f7fe ff94 	bl	8000714 <HAL_GetTick>
 80017ec:	0002      	movs	r2, r0
 80017ee:	69fb      	ldr	r3, [r7, #28]
 80017f0:	1ad3      	subs	r3, r2, r3
 80017f2:	6b3a      	ldr	r2, [r7, #48]	; 0x30
 80017f4:	429a      	cmp	r2, r3
 80017f6:	d807      	bhi.n	8001808 <HAL_SPI_TransmitReceive+0x23c>
 80017f8:	6b3b      	ldr	r3, [r7, #48]	; 0x30
 80017fa:	3301      	adds	r3, #1
 80017fc:	d004      	beq.n	8001808 <HAL_SPI_TransmitReceive+0x23c>
      {
        errorcode = HAL_TIMEOUT;
 80017fe:	2323      	movs	r3, #35	; 0x23
 8001800:	18fb      	adds	r3, r7, r3
 8001802:	2203      	movs	r2, #3
 8001804:	701a      	strb	r2, [r3, #0]
        goto error;
 8001806:	e0a2      	b.n	800194e <HAL_SPI_TransmitReceive+0x382>
    while ((hspi->TxXferCount > 0U) || (hspi->RxXferCount > 0U))
 8001808:	68fb      	ldr	r3, [r7, #12]
 800180a:	8fdb      	ldrh	r3, [r3, #62]	; 0x3e
 800180c:	b29b      	uxth	r3, r3
 800180e:	2b00      	cmp	r3, #0
 8001810:	d1a3      	bne.n	800175a <HAL_SPI_TransmitReceive+0x18e>
 8001812:	68fb      	ldr	r3, [r7, #12]
 8001814:	2246      	movs	r2, #70	; 0x46
 8001816:	5a9b      	ldrh	r3, [r3, r2]
 8001818:	b29b      	uxth	r3, r3
 800181a:	2b00      	cmp	r3, #0
 800181c:	d19d      	bne.n	800175a <HAL_SPI_TransmitReceive+0x18e>
 800181e:	e085      	b.n	800192c <HAL_SPI_TransmitReceive+0x360>
    }
  }
  /* Transmit and Receive data in 8 Bit mode */
  else
  {
    if ((hspi->Init.Mode == SPI_MODE_SLAVE) || (initial_TxXferCount == 0x01U))
 8001820:	68fb      	ldr	r3, [r7, #12]
 8001822:	685b      	ldr	r3, [r3, #4]
 8001824:	2b00      	cmp	r3, #0
 8001826:	d005      	beq.n	8001834 <HAL_SPI_TransmitReceive+0x268>
 8001828:	2312      	movs	r3, #18
 800182a:	18fb      	adds	r3, r7, r3
 800182c:	881b      	ldrh	r3, [r3, #0]
 800182e:	2b01      	cmp	r3, #1
 8001830:	d000      	beq.n	8001834 <HAL_SPI_TransmitReceive+0x268>
 8001832:	e070      	b.n	8001916 <HAL_SPI_TransmitReceive+0x34a>
    {
      *((__IO uint8_t *)&hspi->Instance->DR) = (*hspi->pTxBuffPtr);
 8001834:	68fb      	ldr	r3, [r7, #12]
 8001836:	6b9a      	ldr	r2, [r3, #56]	; 0x38
 8001838:	68fb      	ldr	r3, [r7, #12]
 800183a:	681b      	ldr	r3, [r3, #0]
 800183c:	330c      	adds	r3, #12
 800183e:	7812      	ldrb	r2, [r2, #0]
 8001840:	701a      	strb	r2, [r3, #0]
      hspi->pTxBuffPtr += sizeof(uint8_t);
 8001842:	68fb      	ldr	r3, [r7, #12]
 8001844:	6b9b      	ldr	r3, [r3, #56]	; 0x38
 8001846:	1c5a      	adds	r2, r3, #1
 8001848:	68fb      	ldr	r3, [r7, #12]
 800184a:	639a      	str	r2, [r3, #56]	; 0x38
      hspi->TxXferCount--;
 800184c:	68fb      	ldr	r3, [r7, #12]
 800184e:	8fdb      	ldrh	r3, [r3, #62]	; 0x3e
 8001850:	b29b      	uxth	r3, r3
 8001852:	3b01      	subs	r3, #1
 8001854:	b29a      	uxth	r2, r3
 8001856:	68fb      	ldr	r3, [r7, #12]
 8001858:	87da      	strh	r2, [r3, #62]	; 0x3e
    }
    while ((hspi->TxXferCount > 0U) || (hspi->RxXferCount > 0U))
 800185a:	e05c      	b.n	8001916 <HAL_SPI_TransmitReceive+0x34a>
    {
      /* Check TXE flag */
      if ((__HAL_SPI_GET_FLAG(hspi, SPI_FLAG_TXE)) && (hspi->TxXferCount > 0U) && (txallowed == 1U))
 800185c:	68fb      	ldr	r3, [r7, #12]
 800185e:	681b      	ldr	r3, [r3, #0]
 8001860:	689b      	ldr	r3, [r3, #8]
 8001862:	2202      	movs	r2, #2
 8001864:	4013      	ands	r3, r2
 8001866:	2b02      	cmp	r3, #2
 8001868:	d11c      	bne.n	80018a4 <HAL_SPI_TransmitReceive+0x2d8>
 800186a:	68fb      	ldr	r3, [r7, #12]
 800186c:	8fdb      	ldrh	r3, [r3, #62]	; 0x3e
 800186e:	b29b      	uxth	r3, r3
 8001870:	2b00      	cmp	r3, #0
 8001872:	d017      	beq.n	80018a4 <HAL_SPI_TransmitReceive+0x2d8>
 8001874:	6a7b      	ldr	r3, [r7, #36]	; 0x24
 8001876:	2b01      	cmp	r3, #1
 8001878:	d114      	bne.n	80018a4 <HAL_SPI_TransmitReceive+0x2d8>
      {
        *(__IO uint8_t *)&hspi->Instance->DR = (*hspi->pTxBuffPtr);
 800187a:	68fb      	ldr	r3, [r7, #12]
 800187c:	6b9a      	ldr	r2, [r3, #56]	; 0x38
 800187e:	68fb      	ldr	r3, [r7, #12]
 8001880:	681b      	ldr	r3, [r3, #0]
 8001882:	330c      	adds	r3, #12
 8001884:	7812      	ldrb	r2, [r2, #0]
 8001886:	701a      	strb	r2, [r3, #0]
        hspi->pTxBuffPtr++;
 8001888:	68fb      	ldr	r3, [r7, #12]
 800188a:	6b9b      	ldr	r3, [r3, #56]	; 0x38
 800188c:	1c5a      	adds	r2, r3, #1
 800188e:	68fb      	ldr	r3, [r7, #12]
 8001890:	639a      	str	r2, [r3, #56]	; 0x38
        hspi->TxXferCount--;
 8001892:	68fb      	ldr	r3, [r7, #12]
 8001894:	8fdb      	ldrh	r3, [r3, #62]	; 0x3e
 8001896:	b29b      	uxth	r3, r3
 8001898:	3b01      	subs	r3, #1
 800189a:	b29a      	uxth	r2, r3
 800189c:	68fb      	ldr	r3, [r7, #12]
 800189e:	87da      	strh	r2, [r3, #62]	; 0x3e
        /* Next Data is a reception (Rx). Tx not allowed */
        txallowed = 0U;
 80018a0:	2300      	movs	r3, #0
 80018a2:	627b      	str	r3, [r7, #36]	; 0x24
        }
#endif /* USE_SPI_CRC */
      }

      /* Wait until RXNE flag is reset */
      if ((__HAL_SPI_GET_FLAG(hspi, SPI_FLAG_RXNE)) && (hspi->RxXferCount > 0U))
 80018a4:	68fb      	ldr	r3, [r7, #12]
 80018a6:	681b      	ldr	r3, [r3, #0]
 80018a8:	689b      	ldr	r3, [r3, #8]
 80018aa:	2201      	movs	r2, #1
 80018ac:	4013      	ands	r3, r2
 80018ae:	2b01      	cmp	r3, #1
 80018b0:	d11e      	bne.n	80018f0 <HAL_SPI_TransmitReceive+0x324>
 80018b2:	68fb      	ldr	r3, [r7, #12]
 80018b4:	2246      	movs	r2, #70	; 0x46
 80018b6:	5a9b      	ldrh	r3, [r3, r2]
 80018b8:	b29b      	uxth	r3, r3
 80018ba:	2b00      	cmp	r3, #0
 80018bc:	d018      	beq.n	80018f0 <HAL_SPI_TransmitReceive+0x324>
      {
        (*(uint8_t *)hspi->pRxBuffPtr) = *(__IO uint8_t *)&hspi->Instance->DR;
 80018be:	68fb      	ldr	r3, [r7, #12]
 80018c0:	681b      	ldr	r3, [r3, #0]
 80018c2:	330c      	adds	r3, #12
 80018c4:	001a      	movs	r2, r3
 80018c6:	68fb      	ldr	r3, [r7, #12]
 80018c8:	6c1b      	ldr	r3, [r3, #64]	; 0x40
 80018ca:	7812      	ldrb	r2, [r2, #0]
 80018cc:	b2d2      	uxtb	r2, r2
 80018ce:	701a      	strb	r2, [r3, #0]
        hspi->pRxBuffPtr++;
 80018d0:	68fb      	ldr	r3, [r7, #12]
 80018d2:	6c1b      	ldr	r3, [r3, #64]	; 0x40
 80018d4:	1c5a      	adds	r2, r3, #1
 80018d6:	68fb      	ldr	r3, [r7, #12]
 80018d8:	641a      	str	r2, [r3, #64]	; 0x40
        hspi->RxXferCount--;
 80018da:	68fb      	ldr	r3, [r7, #12]
 80018dc:	2246      	movs	r2, #70	; 0x46
 80018de:	5a9b      	ldrh	r3, [r3, r2]
 80018e0:	b29b      	uxth	r3, r3
 80018e2:	3b01      	subs	r3, #1
 80018e4:	b299      	uxth	r1, r3
 80018e6:	68fb      	ldr	r3, [r7, #12]
 80018e8:	2246      	movs	r2, #70	; 0x46
 80018ea:	5299      	strh	r1, [r3, r2]
        /* Next Data is a Transmission (Tx). Tx is allowed */
        txallowed = 1U;
 80018ec:	2301      	movs	r3, #1
 80018ee:	627b      	str	r3, [r7, #36]	; 0x24
      }
      if ((((HAL_GetTick() - tickstart) >=  Timeout) && ((Timeout != HAL_MAX_DELAY))) || (Timeout == 0U))
 80018f0:	f7fe ff10 	bl	8000714 <HAL_GetTick>
 80018f4:	0002      	movs	r2, r0
 80018f6:	69fb      	ldr	r3, [r7, #28]
 80018f8:	1ad3      	subs	r3, r2, r3
 80018fa:	6b3a      	ldr	r2, [r7, #48]	; 0x30
 80018fc:	429a      	cmp	r2, r3
 80018fe:	d802      	bhi.n	8001906 <HAL_SPI_TransmitReceive+0x33a>
 8001900:	6b3b      	ldr	r3, [r7, #48]	; 0x30
 8001902:	3301      	adds	r3, #1
 8001904:	d102      	bne.n	800190c <HAL_SPI_TransmitReceive+0x340>
 8001906:	6b3b      	ldr	r3, [r7, #48]	; 0x30
 8001908:	2b00      	cmp	r3, #0
 800190a:	d104      	bne.n	8001916 <HAL_SPI_TransmitReceive+0x34a>
      {
        errorcode = HAL_TIMEOUT;
 800190c:	2323      	movs	r3, #35	; 0x23
 800190e:	18fb      	adds	r3, r7, r3
 8001910:	2203      	movs	r2, #3
 8001912:	701a      	strb	r2, [r3, #0]
        goto error;
 8001914:	e01b      	b.n	800194e <HAL_SPI_TransmitReceive+0x382>
    while ((hspi->TxXferCount > 0U) || (hspi->RxXferCount > 0U))
 8001916:	68fb      	ldr	r3, [r7, #12]
 8001918:	8fdb      	ldrh	r3, [r3, #62]	; 0x3e
 800191a:	b29b      	uxth	r3, r3
 800191c:	2b00      	cmp	r3, #0
 800191e:	d19d      	bne.n	800185c <HAL_SPI_TransmitReceive+0x290>
 8001920:	68fb      	ldr	r3, [r7, #12]
 8001922:	2246      	movs	r2, #70	; 0x46
 8001924:	5a9b      	ldrh	r3, [r3, r2]
 8001926:	b29b      	uxth	r3, r3
 8001928:	2b00      	cmp	r3, #0
 800192a:	d197      	bne.n	800185c <HAL_SPI_TransmitReceive+0x290>
    errorcode = HAL_ERROR;
  }
#endif /* USE_SPI_CRC */

  /* Check the end of the transaction */
  if (SPI_EndRxTxTransaction(hspi, Timeout, tickstart) != HAL_OK)
 800192c:	69fa      	ldr	r2, [r7, #28]
 800192e:	6b39      	ldr	r1, [r7, #48]	; 0x30
 8001930:	68fb      	ldr	r3, [r7, #12]
 8001932:	0018      	movs	r0, r3
 8001934:	f000 f94c 	bl	8001bd0 <SPI_EndRxTxTransaction>
 8001938:	1e03      	subs	r3, r0, #0
 800193a:	d007      	beq.n	800194c <HAL_SPI_TransmitReceive+0x380>
  {
    errorcode = HAL_ERROR;
 800193c:	2323      	movs	r3, #35	; 0x23
 800193e:	18fb      	adds	r3, r7, r3
 8001940:	2201      	movs	r2, #1
 8001942:	701a      	strb	r2, [r3, #0]
    hspi->ErrorCode = HAL_SPI_ERROR_FLAG;
 8001944:	68fb      	ldr	r3, [r7, #12]
 8001946:	2220      	movs	r2, #32
 8001948:	661a      	str	r2, [r3, #96]	; 0x60
 800194a:	e000      	b.n	800194e <HAL_SPI_TransmitReceive+0x382>
  }

error :
 800194c:	46c0      	nop			; (mov r8, r8)
  hspi->State = HAL_SPI_STATE_READY;
 800194e:	68fb      	ldr	r3, [r7, #12]
 8001950:	225d      	movs	r2, #93	; 0x5d
 8001952:	2101      	movs	r1, #1
 8001954:	5499      	strb	r1, [r3, r2]
  __HAL_UNLOCK(hspi);
 8001956:	68fb      	ldr	r3, [r7, #12]
 8001958:	225c      	movs	r2, #92	; 0x5c
 800195a:	2100      	movs	r1, #0
 800195c:	5499      	strb	r1, [r3, r2]
  return errorcode;
 800195e:	2323      	movs	r3, #35	; 0x23
 8001960:	18fb      	adds	r3, r7, r3
 8001962:	781b      	ldrb	r3, [r3, #0]
}
 8001964:	0018      	movs	r0, r3
 8001966:	46bd      	mov	sp, r7
 8001968:	b00a      	add	sp, #40	; 0x28
 800196a:	bd80      	pop	{r7, pc}
 800196c:	ffffefff 	.word	0xffffefff

08001970 <SPI_WaitFlagStateUntilTimeout>:
  * @param  Tickstart tick start value
  * @retval HAL status
  */
static HAL_StatusTypeDef SPI_WaitFlagStateUntilTimeout(SPI_HandleTypeDef *hspi, uint32_t Flag, FlagStatus State,
                                                       uint32_t Timeout, uint32_t Tickstart)
{
 8001970:	b580      	push	{r7, lr}
 8001972:	b088      	sub	sp, #32
 8001974:	af00      	add	r7, sp, #0
 8001976:	60f8      	str	r0, [r7, #12]
 8001978:	60b9      	str	r1, [r7, #8]
 800197a:	603b      	str	r3, [r7, #0]
 800197c:	1dfb      	adds	r3, r7, #7
 800197e:	701a      	strb	r2, [r3, #0]
  __IO uint32_t count;
  uint32_t tmp_timeout;
  uint32_t tmp_tickstart;

  /* Adjust Timeout value  in case of end of transfer */
  tmp_timeout   = Timeout - (HAL_GetTick() - Tickstart);
 8001980:	f7fe fec8 	bl	8000714 <HAL_GetTick>
 8001984:	0002      	movs	r2, r0
 8001986:	6abb      	ldr	r3, [r7, #40]	; 0x28
 8001988:	1a9b      	subs	r3, r3, r2
 800198a:	683a      	ldr	r2, [r7, #0]
 800198c:	18d3      	adds	r3, r2, r3
 800198e:	61fb      	str	r3, [r7, #28]
  tmp_tickstart = HAL_GetTick();
 8001990:	f7fe fec0 	bl	8000714 <HAL_GetTick>
 8001994:	0003      	movs	r3, r0
 8001996:	61bb      	str	r3, [r7, #24]

  /* Calculate Timeout based on a software loop to avoid blocking issue if Systick is disabled */
  count = tmp_timeout * ((SystemCoreClock * 32U) >> 20U);
 8001998:	4b3a      	ldr	r3, [pc, #232]	; (8001a84 <SPI_WaitFlagStateUntilTimeout+0x114>)
 800199a:	681b      	ldr	r3, [r3, #0]
 800199c:	015b      	lsls	r3, r3, #5
 800199e:	0d1b      	lsrs	r3, r3, #20
 80019a0:	69fa      	ldr	r2, [r7, #28]
 80019a2:	4353      	muls	r3, r2
 80019a4:	617b      	str	r3, [r7, #20]

  while ((__HAL_SPI_GET_FLAG(hspi, Flag) ? SET : RESET) != State)
 80019a6:	e058      	b.n	8001a5a <SPI_WaitFlagStateUntilTimeout+0xea>
  {
    if (Timeout != HAL_MAX_DELAY)
 80019a8:	683b      	ldr	r3, [r7, #0]
 80019aa:	3301      	adds	r3, #1
 80019ac:	d055      	beq.n	8001a5a <SPI_WaitFlagStateUntilTimeout+0xea>
    {
      if (((HAL_GetTick() - tmp_tickstart) >= tmp_timeout) || (tmp_timeout == 0U))
 80019ae:	f7fe feb1 	bl	8000714 <HAL_GetTick>
 80019b2:	0002      	movs	r2, r0
 80019b4:	69bb      	ldr	r3, [r7, #24]
 80019b6:	1ad3      	subs	r3, r2, r3
 80019b8:	69fa      	ldr	r2, [r7, #28]
 80019ba:	429a      	cmp	r2, r3
 80019bc:	d902      	bls.n	80019c4 <SPI_WaitFlagStateUntilTimeout+0x54>
 80019be:	69fb      	ldr	r3, [r7, #28]
 80019c0:	2b00      	cmp	r3, #0
 80019c2:	d142      	bne.n	8001a4a <SPI_WaitFlagStateUntilTimeout+0xda>
        /* Disable the SPI and reset the CRC: the CRC value should be cleared
           on both master and slave sides in order to resynchronize the master
           and slave for their respective CRC calculation */

        /* Disable TXE, RXNE and ERR interrupts for the interrupt process */
        __HAL_SPI_DISABLE_IT(hspi, (SPI_IT_TXE | SPI_IT_RXNE | SPI_IT_ERR));
 80019c4:	68fb      	ldr	r3, [r7, #12]
 80019c6:	681b      	ldr	r3, [r3, #0]
 80019c8:	685a      	ldr	r2, [r3, #4]
 80019ca:	68fb      	ldr	r3, [r7, #12]
 80019cc:	681b      	ldr	r3, [r3, #0]
 80019ce:	21e0      	movs	r1, #224	; 0xe0
 80019d0:	438a      	bics	r2, r1
 80019d2:	605a      	str	r2, [r3, #4]

        if ((hspi->Init.Mode == SPI_MODE_MASTER) && ((hspi->Init.Direction == SPI_DIRECTION_1LINE)
 80019d4:	68fb      	ldr	r3, [r7, #12]
 80019d6:	685a      	ldr	r2, [r3, #4]
 80019d8:	2382      	movs	r3, #130	; 0x82
 80019da:	005b      	lsls	r3, r3, #1
 80019dc:	429a      	cmp	r2, r3
 80019de:	d113      	bne.n	8001a08 <SPI_WaitFlagStateUntilTimeout+0x98>
 80019e0:	68fb      	ldr	r3, [r7, #12]
 80019e2:	689a      	ldr	r2, [r3, #8]
 80019e4:	2380      	movs	r3, #128	; 0x80
 80019e6:	021b      	lsls	r3, r3, #8
 80019e8:	429a      	cmp	r2, r3
 80019ea:	d005      	beq.n	80019f8 <SPI_WaitFlagStateUntilTimeout+0x88>
                                                     || (hspi->Init.Direction == SPI_DIRECTION_2LINES_RXONLY)))
 80019ec:	68fb      	ldr	r3, [r7, #12]
 80019ee:	689a      	ldr	r2, [r3, #8]
 80019f0:	2380      	movs	r3, #128	; 0x80
 80019f2:	00db      	lsls	r3, r3, #3
 80019f4:	429a      	cmp	r2, r3
 80019f6:	d107      	bne.n	8001a08 <SPI_WaitFlagStateUntilTimeout+0x98>
        {
          /* Disable SPI peripheral */
          __HAL_SPI_DISABLE(hspi);
 80019f8:	68fb      	ldr	r3, [r7, #12]
 80019fa:	681b      	ldr	r3, [r3, #0]
 80019fc:	681a      	ldr	r2, [r3, #0]
 80019fe:	68fb      	ldr	r3, [r7, #12]
 8001a00:	681b      	ldr	r3, [r3, #0]
 8001a02:	2140      	movs	r1, #64	; 0x40
 8001a04:	438a      	bics	r2, r1
 8001a06:	601a      	str	r2, [r3, #0]
        }

        /* Reset CRC Calculation */
        if (hspi->Init.CRCCalculation == SPI_CRCCALCULATION_ENABLE)
 8001a08:	68fb      	ldr	r3, [r7, #12]
 8001a0a:	6a9a      	ldr	r2, [r3, #40]	; 0x28
 8001a0c:	2380      	movs	r3, #128	; 0x80
 8001a0e:	019b      	lsls	r3, r3, #6
 8001a10:	429a      	cmp	r2, r3
 8001a12:	d110      	bne.n	8001a36 <SPI_WaitFlagStateUntilTimeout+0xc6>
        {
          SPI_RESET_CRC(hspi);
 8001a14:	68fb      	ldr	r3, [r7, #12]
 8001a16:	681b      	ldr	r3, [r3, #0]
 8001a18:	681a      	ldr	r2, [r3, #0]
 8001a1a:	68fb      	ldr	r3, [r7, #12]
 8001a1c:	681b      	ldr	r3, [r3, #0]
 8001a1e:	491a      	ldr	r1, [pc, #104]	; (8001a88 <SPI_WaitFlagStateUntilTimeout+0x118>)
 8001a20:	400a      	ands	r2, r1
 8001a22:	601a      	str	r2, [r3, #0]
 8001a24:	68fb      	ldr	r3, [r7, #12]
 8001a26:	681b      	ldr	r3, [r3, #0]
 8001a28:	681a      	ldr	r2, [r3, #0]
 8001a2a:	68fb      	ldr	r3, [r7, #12]
 8001a2c:	681b      	ldr	r3, [r3, #0]
 8001a2e:	2180      	movs	r1, #128	; 0x80
 8001a30:	0189      	lsls	r1, r1, #6
 8001a32:	430a      	orrs	r2, r1
 8001a34:	601a      	str	r2, [r3, #0]
        }

        hspi->State = HAL_SPI_STATE_READY;
 8001a36:	68fb      	ldr	r3, [r7, #12]
 8001a38:	225d      	movs	r2, #93	; 0x5d
 8001a3a:	2101      	movs	r1, #1
 8001a3c:	5499      	strb	r1, [r3, r2]

        /* Process Unlocked */
        __HAL_UNLOCK(hspi);
 8001a3e:	68fb      	ldr	r3, [r7, #12]
 8001a40:	225c      	movs	r2, #92	; 0x5c
 8001a42:	2100      	movs	r1, #0
 8001a44:	5499      	strb	r1, [r3, r2]

        return HAL_TIMEOUT;
 8001a46:	2303      	movs	r3, #3
 8001a48:	e017      	b.n	8001a7a <SPI_WaitFlagStateUntilTimeout+0x10a>
      }
      /* If Systick is disabled or not incremented, deactivate timeout to go in disable loop procedure */
      if(count == 0U)
 8001a4a:	697b      	ldr	r3, [r7, #20]
 8001a4c:	2b00      	cmp	r3, #0
 8001a4e:	d101      	bne.n	8001a54 <SPI_WaitFlagStateUntilTimeout+0xe4>
      {
        tmp_timeout = 0U;
 8001a50:	2300      	movs	r3, #0
 8001a52:	61fb      	str	r3, [r7, #28]
      }
      count--;
 8001a54:	697b      	ldr	r3, [r7, #20]
 8001a56:	3b01      	subs	r3, #1
 8001a58:	617b      	str	r3, [r7, #20]
  while ((__HAL_SPI_GET_FLAG(hspi, Flag) ? SET : RESET) != State)
 8001a5a:	68fb      	ldr	r3, [r7, #12]
 8001a5c:	681b      	ldr	r3, [r3, #0]
 8001a5e:	689b      	ldr	r3, [r3, #8]
 8001a60:	68ba      	ldr	r2, [r7, #8]
 8001a62:	4013      	ands	r3, r2
 8001a64:	68ba      	ldr	r2, [r7, #8]
 8001a66:	1ad3      	subs	r3, r2, r3
 8001a68:	425a      	negs	r2, r3
 8001a6a:	4153      	adcs	r3, r2
 8001a6c:	b2db      	uxtb	r3, r3
 8001a6e:	001a      	movs	r2, r3
 8001a70:	1dfb      	adds	r3, r7, #7
 8001a72:	781b      	ldrb	r3, [r3, #0]
 8001a74:	429a      	cmp	r2, r3
 8001a76:	d197      	bne.n	80019a8 <SPI_WaitFlagStateUntilTimeout+0x38>
    }
  }

  return HAL_OK;
 8001a78:	2300      	movs	r3, #0
}
 8001a7a:	0018      	movs	r0, r3
 8001a7c:	46bd      	mov	sp, r7
 8001a7e:	b008      	add	sp, #32
 8001a80:	bd80      	pop	{r7, pc}
 8001a82:	46c0      	nop			; (mov r8, r8)
 8001a84:	20000000 	.word	0x20000000
 8001a88:	ffffdfff 	.word	0xffffdfff

08001a8c <SPI_WaitFifoStateUntilTimeout>:
  * @param  Tickstart tick start value
  * @retval HAL status
  */
static HAL_StatusTypeDef SPI_WaitFifoStateUntilTimeout(SPI_HandleTypeDef *hspi, uint32_t Fifo, uint32_t State,
                                                       uint32_t Timeout, uint32_t Tickstart)
{
 8001a8c:	b580      	push	{r7, lr}
 8001a8e:	b08a      	sub	sp, #40	; 0x28
 8001a90:	af00      	add	r7, sp, #0
 8001a92:	60f8      	str	r0, [r7, #12]
 8001a94:	60b9      	str	r1, [r7, #8]
 8001a96:	607a      	str	r2, [r7, #4]
 8001a98:	603b      	str	r3, [r7, #0]
  __IO uint32_t count;
  uint32_t tmp_timeout;
  uint32_t tmp_tickstart;
  __IO uint8_t  * ptmpreg8;
  __IO uint8_t  tmpreg8 = 0;
 8001a9a:	2317      	movs	r3, #23
 8001a9c:	18fb      	adds	r3, r7, r3
 8001a9e:	2200      	movs	r2, #0
 8001aa0:	701a      	strb	r2, [r3, #0]

  /* Adjust Timeout value  in case of end of transfer */
  tmp_timeout = Timeout - (HAL_GetTick() - Tickstart);
 8001aa2:	f7fe fe37 	bl	8000714 <HAL_GetTick>
 8001aa6:	0002      	movs	r2, r0
 8001aa8:	6b3b      	ldr	r3, [r7, #48]	; 0x30
 8001aaa:	1a9b      	subs	r3, r3, r2
 8001aac:	683a      	ldr	r2, [r7, #0]
 8001aae:	18d3      	adds	r3, r2, r3
 8001ab0:	627b      	str	r3, [r7, #36]	; 0x24
  tmp_tickstart = HAL_GetTick();
 8001ab2:	f7fe fe2f 	bl	8000714 <HAL_GetTick>
 8001ab6:	0003      	movs	r3, r0
 8001ab8:	623b      	str	r3, [r7, #32]

  /* Initialize the 8bit temporary pointer */
  ptmpreg8 = (__IO uint8_t *)&hspi->Instance->DR;
 8001aba:	68fb      	ldr	r3, [r7, #12]
 8001abc:	681b      	ldr	r3, [r3, #0]
 8001abe:	330c      	adds	r3, #12
 8001ac0:	61fb      	str	r3, [r7, #28]

  /* Calculate Timeout based on a software loop to avoid blocking issue if Systick is disabled */
  count = tmp_timeout * ((SystemCoreClock * 35U) >> 20U);
 8001ac2:	4b41      	ldr	r3, [pc, #260]	; (8001bc8 <SPI_WaitFifoStateUntilTimeout+0x13c>)
 8001ac4:	681a      	ldr	r2, [r3, #0]
 8001ac6:	0013      	movs	r3, r2
 8001ac8:	009b      	lsls	r3, r3, #2
 8001aca:	189b      	adds	r3, r3, r2
 8001acc:	00da      	lsls	r2, r3, #3
 8001ace:	1ad3      	subs	r3, r2, r3
 8001ad0:	0d1b      	lsrs	r3, r3, #20
 8001ad2:	6a7a      	ldr	r2, [r7, #36]	; 0x24
 8001ad4:	4353      	muls	r3, r2
 8001ad6:	61bb      	str	r3, [r7, #24]

  while ((hspi->Instance->SR & Fifo) != State)
 8001ad8:	e068      	b.n	8001bac <SPI_WaitFifoStateUntilTimeout+0x120>
  {
    if ((Fifo == SPI_SR_FRLVL) && (State == SPI_FRLVL_EMPTY))
 8001ada:	68ba      	ldr	r2, [r7, #8]
 8001adc:	23c0      	movs	r3, #192	; 0xc0
 8001ade:	00db      	lsls	r3, r3, #3
 8001ae0:	429a      	cmp	r2, r3
 8001ae2:	d10a      	bne.n	8001afa <SPI_WaitFifoStateUntilTimeout+0x6e>
 8001ae4:	687b      	ldr	r3, [r7, #4]
 8001ae6:	2b00      	cmp	r3, #0
 8001ae8:	d107      	bne.n	8001afa <SPI_WaitFifoStateUntilTimeout+0x6e>
    {
      /* Flush Data Register by a blank read */
      tmpreg8 = *ptmpreg8;
 8001aea:	69fb      	ldr	r3, [r7, #28]
 8001aec:	781b      	ldrb	r3, [r3, #0]
 8001aee:	b2da      	uxtb	r2, r3
 8001af0:	2117      	movs	r1, #23
 8001af2:	187b      	adds	r3, r7, r1
 8001af4:	701a      	strb	r2, [r3, #0]
      /* To avoid GCC warning */
      UNUSED(tmpreg8);
 8001af6:	187b      	adds	r3, r7, r1
 8001af8:	781b      	ldrb	r3, [r3, #0]
    }

    if (Timeout != HAL_MAX_DELAY)
 8001afa:	683b      	ldr	r3, [r7, #0]
 8001afc:	3301      	adds	r3, #1
 8001afe:	d055      	beq.n	8001bac <SPI_WaitFifoStateUntilTimeout+0x120>
    {
      if (((HAL_GetTick() - tmp_tickstart) >= tmp_timeout) || (tmp_timeout == 0U))
 8001b00:	f7fe fe08 	bl	8000714 <HAL_GetTick>
 8001b04:	0002      	movs	r2, r0
 8001b06:	6a3b      	ldr	r3, [r7, #32]
 8001b08:	1ad3      	subs	r3, r2, r3
 8001b0a:	6a7a      	ldr	r2, [r7, #36]	; 0x24
 8001b0c:	429a      	cmp	r2, r3
 8001b0e:	d902      	bls.n	8001b16 <SPI_WaitFifoStateUntilTimeout+0x8a>
 8001b10:	6a7b      	ldr	r3, [r7, #36]	; 0x24
 8001b12:	2b00      	cmp	r3, #0
 8001b14:	d142      	bne.n	8001b9c <SPI_WaitFifoStateUntilTimeout+0x110>
        /* Disable the SPI and reset the CRC: the CRC value should be cleared
           on both master and slave sides in order to resynchronize the master
           and slave for their respective CRC calculation */

        /* Disable TXE, RXNE and ERR interrupts for the interrupt process */
        __HAL_SPI_DISABLE_IT(hspi, (SPI_IT_TXE | SPI_IT_RXNE | SPI_IT_ERR));
 8001b16:	68fb      	ldr	r3, [r7, #12]
 8001b18:	681b      	ldr	r3, [r3, #0]
 8001b1a:	685a      	ldr	r2, [r3, #4]
 8001b1c:	68fb      	ldr	r3, [r7, #12]
 8001b1e:	681b      	ldr	r3, [r3, #0]
 8001b20:	21e0      	movs	r1, #224	; 0xe0
 8001b22:	438a      	bics	r2, r1
 8001b24:	605a      	str	r2, [r3, #4]

        if ((hspi->Init.Mode == SPI_MODE_MASTER) && ((hspi->Init.Direction == SPI_DIRECTION_1LINE)
 8001b26:	68fb      	ldr	r3, [r7, #12]
 8001b28:	685a      	ldr	r2, [r3, #4]
 8001b2a:	2382      	movs	r3, #130	; 0x82
 8001b2c:	005b      	lsls	r3, r3, #1
 8001b2e:	429a      	cmp	r2, r3
 8001b30:	d113      	bne.n	8001b5a <SPI_WaitFifoStateUntilTimeout+0xce>
 8001b32:	68fb      	ldr	r3, [r7, #12]
 8001b34:	689a      	ldr	r2, [r3, #8]
 8001b36:	2380      	movs	r3, #128	; 0x80
 8001b38:	021b      	lsls	r3, r3, #8
 8001b3a:	429a      	cmp	r2, r3
 8001b3c:	d005      	beq.n	8001b4a <SPI_WaitFifoStateUntilTimeout+0xbe>
                                                     || (hspi->Init.Direction == SPI_DIRECTION_2LINES_RXONLY)))
 8001b3e:	68fb      	ldr	r3, [r7, #12]
 8001b40:	689a      	ldr	r2, [r3, #8]
 8001b42:	2380      	movs	r3, #128	; 0x80
 8001b44:	00db      	lsls	r3, r3, #3
 8001b46:	429a      	cmp	r2, r3
 8001b48:	d107      	bne.n	8001b5a <SPI_WaitFifoStateUntilTimeout+0xce>
        {
          /* Disable SPI peripheral */
          __HAL_SPI_DISABLE(hspi);
 8001b4a:	68fb      	ldr	r3, [r7, #12]
 8001b4c:	681b      	ldr	r3, [r3, #0]
 8001b4e:	681a      	ldr	r2, [r3, #0]
 8001b50:	68fb      	ldr	r3, [r7, #12]
 8001b52:	681b      	ldr	r3, [r3, #0]
 8001b54:	2140      	movs	r1, #64	; 0x40
 8001b56:	438a      	bics	r2, r1
 8001b58:	601a      	str	r2, [r3, #0]
        }

        /* Reset CRC Calculation */
        if (hspi->Init.CRCCalculation == SPI_CRCCALCULATION_ENABLE)
 8001b5a:	68fb      	ldr	r3, [r7, #12]
 8001b5c:	6a9a      	ldr	r2, [r3, #40]	; 0x28
 8001b5e:	2380      	movs	r3, #128	; 0x80
 8001b60:	019b      	lsls	r3, r3, #6
 8001b62:	429a      	cmp	r2, r3
 8001b64:	d110      	bne.n	8001b88 <SPI_WaitFifoStateUntilTimeout+0xfc>
        {
          SPI_RESET_CRC(hspi);
 8001b66:	68fb      	ldr	r3, [r7, #12]
 8001b68:	681b      	ldr	r3, [r3, #0]
 8001b6a:	681a      	ldr	r2, [r3, #0]
 8001b6c:	68fb      	ldr	r3, [r7, #12]
 8001b6e:	681b      	ldr	r3, [r3, #0]
 8001b70:	4916      	ldr	r1, [pc, #88]	; (8001bcc <SPI_WaitFifoStateUntilTimeout+0x140>)
 8001b72:	400a      	ands	r2, r1
 8001b74:	601a      	str	r2, [r3, #0]
 8001b76:	68fb      	ldr	r3, [r7, #12]
 8001b78:	681b      	ldr	r3, [r3, #0]
 8001b7a:	681a      	ldr	r2, [r3, #0]
 8001b7c:	68fb      	ldr	r3, [r7, #12]
 8001b7e:	681b      	ldr	r3, [r3, #0]
 8001b80:	2180      	movs	r1, #128	; 0x80
 8001b82:	0189      	lsls	r1, r1, #6
 8001b84:	430a      	orrs	r2, r1
 8001b86:	601a      	str	r2, [r3, #0]
        }

        hspi->State = HAL_SPI_STATE_READY;
 8001b88:	68fb      	ldr	r3, [r7, #12]
 8001b8a:	225d      	movs	r2, #93	; 0x5d
 8001b8c:	2101      	movs	r1, #1
 8001b8e:	5499      	strb	r1, [r3, r2]

        /* Process Unlocked */
        __HAL_UNLOCK(hspi);
 8001b90:	68fb      	ldr	r3, [r7, #12]
 8001b92:	225c      	movs	r2, #92	; 0x5c
 8001b94:	2100      	movs	r1, #0
 8001b96:	5499      	strb	r1, [r3, r2]

        return HAL_TIMEOUT;
 8001b98:	2303      	movs	r3, #3
 8001b9a:	e010      	b.n	8001bbe <SPI_WaitFifoStateUntilTimeout+0x132>
      }
      /* If Systick is disabled or not incremented, deactivate timeout to go in disable loop procedure */
      if(count == 0U)
 8001b9c:	69bb      	ldr	r3, [r7, #24]
 8001b9e:	2b00      	cmp	r3, #0
 8001ba0:	d101      	bne.n	8001ba6 <SPI_WaitFifoStateUntilTimeout+0x11a>
      {
        tmp_timeout = 0U;
 8001ba2:	2300      	movs	r3, #0
 8001ba4:	627b      	str	r3, [r7, #36]	; 0x24
      }      
      count--;
 8001ba6:	69bb      	ldr	r3, [r7, #24]
 8001ba8:	3b01      	subs	r3, #1
 8001baa:	61bb      	str	r3, [r7, #24]
  while ((hspi->Instance->SR & Fifo) != State)
 8001bac:	68fb      	ldr	r3, [r7, #12]
 8001bae:	681b      	ldr	r3, [r3, #0]
 8001bb0:	689b      	ldr	r3, [r3, #8]
 8001bb2:	68ba      	ldr	r2, [r7, #8]
 8001bb4:	4013      	ands	r3, r2
 8001bb6:	687a      	ldr	r2, [r7, #4]
 8001bb8:	429a      	cmp	r2, r3
 8001bba:	d18e      	bne.n	8001ada <SPI_WaitFifoStateUntilTimeout+0x4e>
    }
  }

  return HAL_OK;
 8001bbc:	2300      	movs	r3, #0
}
 8001bbe:	0018      	movs	r0, r3
 8001bc0:	46bd      	mov	sp, r7
 8001bc2:	b00a      	add	sp, #40	; 0x28
 8001bc4:	bd80      	pop	{r7, pc}
 8001bc6:	46c0      	nop			; (mov r8, r8)
 8001bc8:	20000000 	.word	0x20000000
 8001bcc:	ffffdfff 	.word	0xffffdfff

08001bd0 <SPI_EndRxTxTransaction>:
  * @param  Timeout Timeout duration
  * @param  Tickstart tick start value
  * @retval HAL status
  */
static HAL_StatusTypeDef SPI_EndRxTxTransaction(SPI_HandleTypeDef *hspi, uint32_t Timeout, uint32_t Tickstart)
{
 8001bd0:	b580      	push	{r7, lr}
 8001bd2:	b086      	sub	sp, #24
 8001bd4:	af02      	add	r7, sp, #8
 8001bd6:	60f8      	str	r0, [r7, #12]
 8001bd8:	60b9      	str	r1, [r7, #8]
 8001bda:	607a      	str	r2, [r7, #4]
  /* Control if the TX fifo is empty */
  if (SPI_WaitFifoStateUntilTimeout(hspi, SPI_FLAG_FTLVL, SPI_FTLVL_EMPTY, Timeout, Tickstart) != HAL_OK)
 8001bdc:	68ba      	ldr	r2, [r7, #8]
 8001bde:	23c0      	movs	r3, #192	; 0xc0
 8001be0:	0159      	lsls	r1, r3, #5
 8001be2:	68f8      	ldr	r0, [r7, #12]
 8001be4:	687b      	ldr	r3, [r7, #4]
 8001be6:	9300      	str	r3, [sp, #0]
 8001be8:	0013      	movs	r3, r2
 8001bea:	2200      	movs	r2, #0
 8001bec:	f7ff ff4e 	bl	8001a8c <SPI_WaitFifoStateUntilTimeout>
 8001bf0:	1e03      	subs	r3, r0, #0
 8001bf2:	d007      	beq.n	8001c04 <SPI_EndRxTxTransaction+0x34>
  {
    SET_BIT(hspi->ErrorCode, HAL_SPI_ERROR_FLAG);
 8001bf4:	68fb      	ldr	r3, [r7, #12]
 8001bf6:	6e1b      	ldr	r3, [r3, #96]	; 0x60
 8001bf8:	2220      	movs	r2, #32
 8001bfa:	431a      	orrs	r2, r3
 8001bfc:	68fb      	ldr	r3, [r7, #12]
 8001bfe:	661a      	str	r2, [r3, #96]	; 0x60
    return HAL_TIMEOUT;
 8001c00:	2303      	movs	r3, #3
 8001c02:	e027      	b.n	8001c54 <SPI_EndRxTxTransaction+0x84>
  }

  /* Control the BSY flag */
  if (SPI_WaitFlagStateUntilTimeout(hspi, SPI_FLAG_BSY, RESET, Timeout, Tickstart) != HAL_OK)
 8001c04:	68ba      	ldr	r2, [r7, #8]
 8001c06:	68f8      	ldr	r0, [r7, #12]
 8001c08:	687b      	ldr	r3, [r7, #4]
 8001c0a:	9300      	str	r3, [sp, #0]
 8001c0c:	0013      	movs	r3, r2
 8001c0e:	2200      	movs	r2, #0
 8001c10:	2180      	movs	r1, #128	; 0x80
 8001c12:	f7ff fead 	bl	8001970 <SPI_WaitFlagStateUntilTimeout>
 8001c16:	1e03      	subs	r3, r0, #0
 8001c18:	d007      	beq.n	8001c2a <SPI_EndRxTxTransaction+0x5a>
  {
    SET_BIT(hspi->ErrorCode, HAL_SPI_ERROR_FLAG);
 8001c1a:	68fb      	ldr	r3, [r7, #12]
 8001c1c:	6e1b      	ldr	r3, [r3, #96]	; 0x60
 8001c1e:	2220      	movs	r2, #32
 8001c20:	431a      	orrs	r2, r3
 8001c22:	68fb      	ldr	r3, [r7, #12]
 8001c24:	661a      	str	r2, [r3, #96]	; 0x60
    return HAL_TIMEOUT;
 8001c26:	2303      	movs	r3, #3
 8001c28:	e014      	b.n	8001c54 <SPI_EndRxTxTransaction+0x84>
  }

  /* Control if the RX fifo is empty */
  if (SPI_WaitFifoStateUntilTimeout(hspi, SPI_FLAG_FRLVL, SPI_FRLVL_EMPTY, Timeout, Tickstart) != HAL_OK)
 8001c2a:	68ba      	ldr	r2, [r7, #8]
 8001c2c:	23c0      	movs	r3, #192	; 0xc0
 8001c2e:	00d9      	lsls	r1, r3, #3
 8001c30:	68f8      	ldr	r0, [r7, #12]
 8001c32:	687b      	ldr	r3, [r7, #4]
 8001c34:	9300      	str	r3, [sp, #0]
 8001c36:	0013      	movs	r3, r2
 8001c38:	2200      	movs	r2, #0
 8001c3a:	f7ff ff27 	bl	8001a8c <SPI_WaitFifoStateUntilTimeout>
 8001c3e:	1e03      	subs	r3, r0, #0
 8001c40:	d007      	beq.n	8001c52 <SPI_EndRxTxTransaction+0x82>
  {
    SET_BIT(hspi->ErrorCode, HAL_SPI_ERROR_FLAG);
 8001c42:	68fb      	ldr	r3, [r7, #12]
 8001c44:	6e1b      	ldr	r3, [r3, #96]	; 0x60
 8001c46:	2220      	movs	r2, #32
 8001c48:	431a      	orrs	r2, r3
 8001c4a:	68fb      	ldr	r3, [r7, #12]
 8001c4c:	661a      	str	r2, [r3, #96]	; 0x60
    return HAL_TIMEOUT;
 8001c4e:	2303      	movs	r3, #3
 8001c50:	e000      	b.n	8001c54 <SPI_EndRxTxTransaction+0x84>
  }

  return HAL_OK;
 8001c52:	2300      	movs	r3, #0
}
 8001c54:	0018      	movs	r0, r3
 8001c56:	46bd      	mov	sp, r7
 8001c58:	b004      	add	sp, #16
 8001c5a:	bd80      	pop	{r7, pc}

08001c5c <MX_FATFS_Init>:
/* USER CODE BEGIN Variables */

/* USER CODE END Variables */

void MX_FATFS_Init(void)
{
 8001c5c:	b580      	push	{r7, lr}
 8001c5e:	af00      	add	r7, sp, #0
  /*## FatFS: Link the USER driver ###########################*/
  retUSER = FATFS_LinkDriver(&USER_Driver, USERPath);
 8001c60:	4a06      	ldr	r2, [pc, #24]	; (8001c7c <MX_FATFS_Init+0x20>)
 8001c62:	4b07      	ldr	r3, [pc, #28]	; (8001c80 <MX_FATFS_Init+0x24>)
 8001c64:	0011      	movs	r1, r2
 8001c66:	0018      	movs	r0, r3
 8001c68:	f005 fe84 	bl	8007974 <FATFS_LinkDriver>
 8001c6c:	0003      	movs	r3, r0
 8001c6e:	001a      	movs	r2, r3
 8001c70:	4b04      	ldr	r3, [pc, #16]	; (8001c84 <MX_FATFS_Init+0x28>)
 8001c72:	701a      	strb	r2, [r3, #0]

  /* USER CODE BEGIN Init */
  /* additional user code for init */
  /* USER CODE END Init */
}
 8001c74:	46c0      	nop			; (mov r8, r8)
 8001c76:	46bd      	mov	sp, r7
 8001c78:	bd80      	pop	{r7, pc}
 8001c7a:	46c0      	nop			; (mov r8, r8)
 8001c7c:	20000154 	.word	0x20000154
 8001c80:	2000000c 	.word	0x2000000c
 8001c84:	20000150 	.word	0x20000150

08001c88 <get_fattime>:
  * @brief  Gets Time from RTC
  * @param  None
  * @retval Time in DWORD
  */
DWORD get_fattime(void)
{
 8001c88:	b580      	push	{r7, lr}
 8001c8a:	af00      	add	r7, sp, #0
  /* USER CODE BEGIN get_fattime */
  return 0;
 8001c8c:	2300      	movs	r3, #0
  /* USER CODE END get_fattime */
}
 8001c8e:	0018      	movs	r0, r3
 8001c90:	46bd      	mov	sp, r7
 8001c92:	bd80      	pop	{r7, pc}

08001c94 <USER_initialize>:
  * @retval DSTATUS: Operation status
  */
DSTATUS USER_initialize (
	BYTE pdrv           /* Physical drive nmuber to identify the drive */
)
{
 8001c94:	b580      	push	{r7, lr}
 8001c96:	b082      	sub	sp, #8
 8001c98:	af00      	add	r7, sp, #0
 8001c9a:	0002      	movs	r2, r0
 8001c9c:	1dfb      	adds	r3, r7, #7
 8001c9e:	701a      	strb	r2, [r3, #0]
  /* USER CODE BEGIN INIT */
//    Stat = STA_NOINIT;
//    return Stat;
	return USER_SPI_initialize(pdrv);
 8001ca0:	1dfb      	adds	r3, r7, #7
 8001ca2:	781b      	ldrb	r3, [r3, #0]
 8001ca4:	0018      	movs	r0, r3
 8001ca6:	f000 fa21 	bl	80020ec <USER_SPI_initialize>
 8001caa:	0003      	movs	r3, r0
  /* USER CODE END INIT */
}
 8001cac:	0018      	movs	r0, r3
 8001cae:	46bd      	mov	sp, r7
 8001cb0:	b002      	add	sp, #8
 8001cb2:	bd80      	pop	{r7, pc}

08001cb4 <USER_status>:
  * @retval DSTATUS: Operation status
  */
DSTATUS USER_status (
	BYTE pdrv       /* Physical drive number to identify the drive */
)
{
 8001cb4:	b580      	push	{r7, lr}
 8001cb6:	b082      	sub	sp, #8
 8001cb8:	af00      	add	r7, sp, #0
 8001cba:	0002      	movs	r2, r0
 8001cbc:	1dfb      	adds	r3, r7, #7
 8001cbe:	701a      	strb	r2, [r3, #0]
  /* USER CODE BEGIN STATUS */
//    Stat = STA_NOINIT;
//    return Stat;
	return USER_SPI_status(pdrv);
 8001cc0:	1dfb      	adds	r3, r7, #7
 8001cc2:	781b      	ldrb	r3, [r3, #0]
 8001cc4:	0018      	movs	r0, r3
 8001cc6:	f000 fb29 	bl	800231c <USER_SPI_status>
 8001cca:	0003      	movs	r3, r0
  /* USER CODE END STATUS */
}
 8001ccc:	0018      	movs	r0, r3
 8001cce:	46bd      	mov	sp, r7
 8001cd0:	b002      	add	sp, #8
 8001cd2:	bd80      	pop	{r7, pc}

08001cd4 <USER_read>:
	BYTE pdrv,      /* Physical drive nmuber to identify the drive */
	BYTE *buff,     /* Data buffer to store read data */
	DWORD sector,   /* Sector address in LBA */
	UINT count      /* Number of sectors to read */
)
{
 8001cd4:	b5b0      	push	{r4, r5, r7, lr}
 8001cd6:	b084      	sub	sp, #16
 8001cd8:	af00      	add	r7, sp, #0
 8001cda:	60b9      	str	r1, [r7, #8]
 8001cdc:	607a      	str	r2, [r7, #4]
 8001cde:	603b      	str	r3, [r7, #0]
 8001ce0:	250f      	movs	r5, #15
 8001ce2:	197b      	adds	r3, r7, r5
 8001ce4:	1c02      	adds	r2, r0, #0
 8001ce6:	701a      	strb	r2, [r3, #0]
  /* USER CODE BEGIN READ */
//    return RES_OK;
	return USER_SPI_read(pdrv, buff, sector, count);
 8001ce8:	683c      	ldr	r4, [r7, #0]
 8001cea:	687a      	ldr	r2, [r7, #4]
 8001cec:	68b9      	ldr	r1, [r7, #8]
 8001cee:	197b      	adds	r3, r7, r5
 8001cf0:	7818      	ldrb	r0, [r3, #0]
 8001cf2:	0023      	movs	r3, r4
 8001cf4:	f000 fb28 	bl	8002348 <USER_SPI_read>
 8001cf8:	0003      	movs	r3, r0
  /* USER CODE END READ */
}
 8001cfa:	0018      	movs	r0, r3
 8001cfc:	46bd      	mov	sp, r7
 8001cfe:	b004      	add	sp, #16
 8001d00:	bdb0      	pop	{r4, r5, r7, pc}

08001d02 <USER_write>:
	BYTE pdrv,          /* Physical drive nmuber to identify the drive */
	const BYTE *buff,   /* Data to be written */
	DWORD sector,       /* Sector address in LBA */
	UINT count          /* Number of sectors to write */
)
{
 8001d02:	b5b0      	push	{r4, r5, r7, lr}
 8001d04:	b084      	sub	sp, #16
 8001d06:	af00      	add	r7, sp, #0
 8001d08:	60b9      	str	r1, [r7, #8]
 8001d0a:	607a      	str	r2, [r7, #4]
 8001d0c:	603b      	str	r3, [r7, #0]
 8001d0e:	250f      	movs	r5, #15
 8001d10:	197b      	adds	r3, r7, r5
 8001d12:	1c02      	adds	r2, r0, #0
 8001d14:	701a      	strb	r2, [r3, #0]
  /* USER CODE BEGIN WRITE */
  /* USER CODE HERE */
//    return RES_OK;
	return USER_SPI_write(pdrv, buff, sector, count);
 8001d16:	683c      	ldr	r4, [r7, #0]
 8001d18:	687a      	ldr	r2, [r7, #4]
 8001d1a:	68b9      	ldr	r1, [r7, #8]
 8001d1c:	197b      	adds	r3, r7, r5
 8001d1e:	7818      	ldrb	r0, [r3, #0]
 8001d20:	0023      	movs	r3, r4
 8001d22:	f000 fb7d 	bl	8002420 <USER_SPI_write>
 8001d26:	0003      	movs	r3, r0
  /* USER CODE END WRITE */
}
 8001d28:	0018      	movs	r0, r3
 8001d2a:	46bd      	mov	sp, r7
 8001d2c:	b004      	add	sp, #16
 8001d2e:	bdb0      	pop	{r4, r5, r7, pc}

08001d30 <USER_ioctl>:
DRESULT USER_ioctl (
	BYTE pdrv,      /* Physical drive nmuber (0..) */
	BYTE cmd,       /* Control code */
	void *buff      /* Buffer to send/receive control data */
)
{
 8001d30:	b580      	push	{r7, lr}
 8001d32:	b082      	sub	sp, #8
 8001d34:	af00      	add	r7, sp, #0
 8001d36:	603a      	str	r2, [r7, #0]
 8001d38:	1dfb      	adds	r3, r7, #7
 8001d3a:	1c02      	adds	r2, r0, #0
 8001d3c:	701a      	strb	r2, [r3, #0]
 8001d3e:	1dbb      	adds	r3, r7, #6
 8001d40:	1c0a      	adds	r2, r1, #0
 8001d42:	701a      	strb	r2, [r3, #0]
  /* USER CODE BEGIN IOCTL */
//    DRESULT res = RES_ERROR;
//    return res;
	return USER_SPI_ioctl(pdrv, cmd, buff);
 8001d44:	683a      	ldr	r2, [r7, #0]
 8001d46:	1dbb      	adds	r3, r7, #6
 8001d48:	7819      	ldrb	r1, [r3, #0]
 8001d4a:	1dfb      	adds	r3, r7, #7
 8001d4c:	781b      	ldrb	r3, [r3, #0]
 8001d4e:	0018      	movs	r0, r3
 8001d50:	f000 fbe6 	bl	8002520 <USER_SPI_ioctl>
 8001d54:	0003      	movs	r3, r0
  /* USER CODE END IOCTL */
}
 8001d56:	0018      	movs	r0, r3
 8001d58:	46bd      	mov	sp, r7
 8001d5a:	b002      	add	sp, #8
 8001d5c:	bd80      	pop	{r7, pc}
	...

08001d60 <SPI_Timer_On>:
static BYTE CardType; /* Card type flags */

uint32_t spiTimerTickStart;
uint32_t spiTimerTickDelay;

void SPI_Timer_On(uint32_t waitTicks) {
 8001d60:	b580      	push	{r7, lr}
 8001d62:	b082      	sub	sp, #8
 8001d64:	af00      	add	r7, sp, #0
 8001d66:	6078      	str	r0, [r7, #4]
	spiTimerTickStart = HAL_GetTick();
 8001d68:	f7fe fcd4 	bl	8000714 <HAL_GetTick>
 8001d6c:	0002      	movs	r2, r0
 8001d6e:	4b04      	ldr	r3, [pc, #16]	; (8001d80 <SPI_Timer_On+0x20>)
 8001d70:	601a      	str	r2, [r3, #0]
	spiTimerTickDelay = waitTicks;
 8001d72:	4b04      	ldr	r3, [pc, #16]	; (8001d84 <SPI_Timer_On+0x24>)
 8001d74:	687a      	ldr	r2, [r7, #4]
 8001d76:	601a      	str	r2, [r3, #0]
}
 8001d78:	46c0      	nop			; (mov r8, r8)
 8001d7a:	46bd      	mov	sp, r7
 8001d7c:	b002      	add	sp, #8
 8001d7e:	bd80      	pop	{r7, pc}
 8001d80:	2000015c 	.word	0x2000015c
 8001d84:	20000160 	.word	0x20000160

08001d88 <SPI_Timer_Status>:

uint8_t SPI_Timer_Status() {
 8001d88:	b580      	push	{r7, lr}
 8001d8a:	af00      	add	r7, sp, #0
	return ((HAL_GetTick() - spiTimerTickStart) < spiTimerTickDelay);
 8001d8c:	f7fe fcc2 	bl	8000714 <HAL_GetTick>
 8001d90:	0002      	movs	r2, r0
 8001d92:	4b06      	ldr	r3, [pc, #24]	; (8001dac <SPI_Timer_Status+0x24>)
 8001d94:	681b      	ldr	r3, [r3, #0]
 8001d96:	1ad2      	subs	r2, r2, r3
 8001d98:	4b05      	ldr	r3, [pc, #20]	; (8001db0 <SPI_Timer_Status+0x28>)
 8001d9a:	681b      	ldr	r3, [r3, #0]
 8001d9c:	429a      	cmp	r2, r3
 8001d9e:	419b      	sbcs	r3, r3
 8001da0:	425b      	negs	r3, r3
 8001da2:	b2db      	uxtb	r3, r3
}
 8001da4:	0018      	movs	r0, r3
 8001da6:	46bd      	mov	sp, r7
 8001da8:	bd80      	pop	{r7, pc}
 8001daa:	46c0      	nop			; (mov r8, r8)
 8001dac:	2000015c 	.word	0x2000015c
 8001db0:	20000160 	.word	0x20000160

08001db4 <xchg_spi>:
/* SPI controls (Platform dependent)                                     */
/*-----------------------------------------------------------------------*/

/* Exchange a byte */
static BYTE xchg_spi(BYTE dat /* Data to send */
) {
 8001db4:	b590      	push	{r4, r7, lr}
 8001db6:	b087      	sub	sp, #28
 8001db8:	af02      	add	r7, sp, #8
 8001dba:	0002      	movs	r2, r0
 8001dbc:	1dfb      	adds	r3, r7, #7
 8001dbe:	701a      	strb	r2, [r3, #0]
	BYTE rxDat;
	HAL_SPI_TransmitReceive(&SD_SPI_HANDLE, &dat, &rxDat, 1, 50);
 8001dc0:	240f      	movs	r4, #15
 8001dc2:	193a      	adds	r2, r7, r4
 8001dc4:	1df9      	adds	r1, r7, #7
 8001dc6:	4806      	ldr	r0, [pc, #24]	; (8001de0 <xchg_spi+0x2c>)
 8001dc8:	2332      	movs	r3, #50	; 0x32
 8001dca:	9300      	str	r3, [sp, #0]
 8001dcc:	2301      	movs	r3, #1
 8001dce:	f7ff fbfd 	bl	80015cc <HAL_SPI_TransmitReceive>
	return rxDat;
 8001dd2:	193b      	adds	r3, r7, r4
 8001dd4:	781b      	ldrb	r3, [r3, #0]
}
 8001dd6:	0018      	movs	r0, r3
 8001dd8:	46bd      	mov	sp, r7
 8001dda:	b005      	add	sp, #20
 8001ddc:	bd90      	pop	{r4, r7, pc}
 8001dde:	46c0      	nop			; (mov r8, r8)
 8001de0:	200000e4 	.word	0x200000e4

08001de4 <rcvr_spi_multi>:

/* Receive multiple byte */
static
void rcvr_spi_multi(BYTE *buff, /* Pointer to data buffer */
UINT btr /* Number of bytes to receive (even number) */
) {
 8001de4:	b590      	push	{r4, r7, lr}
 8001de6:	b085      	sub	sp, #20
 8001de8:	af00      	add	r7, sp, #0
 8001dea:	6078      	str	r0, [r7, #4]
 8001dec:	6039      	str	r1, [r7, #0]
	for (UINT i = 0; i < btr; i++) {
 8001dee:	2300      	movs	r3, #0
 8001df0:	60fb      	str	r3, [r7, #12]
 8001df2:	e00a      	b.n	8001e0a <rcvr_spi_multi+0x26>
		*(buff + i) = xchg_spi(0xFF);
 8001df4:	687a      	ldr	r2, [r7, #4]
 8001df6:	68fb      	ldr	r3, [r7, #12]
 8001df8:	18d4      	adds	r4, r2, r3
 8001dfa:	20ff      	movs	r0, #255	; 0xff
 8001dfc:	f7ff ffda 	bl	8001db4 <xchg_spi>
 8001e00:	0003      	movs	r3, r0
 8001e02:	7023      	strb	r3, [r4, #0]
	for (UINT i = 0; i < btr; i++) {
 8001e04:	68fb      	ldr	r3, [r7, #12]
 8001e06:	3301      	adds	r3, #1
 8001e08:	60fb      	str	r3, [r7, #12]
 8001e0a:	68fa      	ldr	r2, [r7, #12]
 8001e0c:	683b      	ldr	r3, [r7, #0]
 8001e0e:	429a      	cmp	r2, r3
 8001e10:	d3f0      	bcc.n	8001df4 <rcvr_spi_multi+0x10>
	}
}
 8001e12:	46c0      	nop			; (mov r8, r8)
 8001e14:	46c0      	nop			; (mov r8, r8)
 8001e16:	46bd      	mov	sp, r7
 8001e18:	b005      	add	sp, #20
 8001e1a:	bd90      	pop	{r4, r7, pc}

08001e1c <xmit_spi_multi>:
#if _USE_WRITE
/* Send multiple byte */
static
void xmit_spi_multi(const BYTE *buff, /* Pointer to the data */
UINT btx /* Number of bytes to send (even number) */
) {
 8001e1c:	b580      	push	{r7, lr}
 8001e1e:	b084      	sub	sp, #16
 8001e20:	af00      	add	r7, sp, #0
 8001e22:	6078      	str	r0, [r7, #4]
 8001e24:	6039      	str	r1, [r7, #0]
	for (UINT i = 0; i < btx; i++) {
 8001e26:	2300      	movs	r3, #0
 8001e28:	60fb      	str	r3, [r7, #12]
 8001e2a:	e009      	b.n	8001e40 <xmit_spi_multi+0x24>
		xchg_spi(*(buff + i));
 8001e2c:	687a      	ldr	r2, [r7, #4]
 8001e2e:	68fb      	ldr	r3, [r7, #12]
 8001e30:	18d3      	adds	r3, r2, r3
 8001e32:	781b      	ldrb	r3, [r3, #0]
 8001e34:	0018      	movs	r0, r3
 8001e36:	f7ff ffbd 	bl	8001db4 <xchg_spi>
	for (UINT i = 0; i < btx; i++) {
 8001e3a:	68fb      	ldr	r3, [r7, #12]
 8001e3c:	3301      	adds	r3, #1
 8001e3e:	60fb      	str	r3, [r7, #12]
 8001e40:	68fa      	ldr	r2, [r7, #12]
 8001e42:	683b      	ldr	r3, [r7, #0]
 8001e44:	429a      	cmp	r2, r3
 8001e46:	d3f1      	bcc.n	8001e2c <xmit_spi_multi+0x10>
	}
}
 8001e48:	46c0      	nop			; (mov r8, r8)
 8001e4a:	46c0      	nop			; (mov r8, r8)
 8001e4c:	46bd      	mov	sp, r7
 8001e4e:	b004      	add	sp, #16
 8001e50:	bd80      	pop	{r7, pc}

08001e52 <wait_ready>:
/*-----------------------------------------------------------------------*/

static
int wait_ready( /* 1:Ready, 0:Timeout */
UINT wt /* Timeout [ms] */
) {
 8001e52:	b5b0      	push	{r4, r5, r7, lr}
 8001e54:	b086      	sub	sp, #24
 8001e56:	af00      	add	r7, sp, #0
 8001e58:	6078      	str	r0, [r7, #4]
	//wait_ready needs its own timer, unfortunately, so it can't use the
	//spi_timer functions
	uint32_t waitSpiTimerTickStart;
	uint32_t waitSpiTimerTickDelay;

	waitSpiTimerTickStart = HAL_GetTick();
 8001e5a:	f7fe fc5b 	bl	8000714 <HAL_GetTick>
 8001e5e:	0003      	movs	r3, r0
 8001e60:	617b      	str	r3, [r7, #20]
	waitSpiTimerTickDelay = (uint32_t) wt;
 8001e62:	687b      	ldr	r3, [r7, #4]
 8001e64:	613b      	str	r3, [r7, #16]
	do {
		d = xchg_spi(0xFF);
 8001e66:	250f      	movs	r5, #15
 8001e68:	197c      	adds	r4, r7, r5
 8001e6a:	20ff      	movs	r0, #255	; 0xff
 8001e6c:	f7ff ffa2 	bl	8001db4 <xchg_spi>
 8001e70:	0003      	movs	r3, r0
 8001e72:	7023      	strb	r3, [r4, #0]
		/* This loop takes a time. Insert rot_rdq() here for multitask envilonment. */
	} while (d != 0xFF
			&& ((HAL_GetTick() - waitSpiTimerTickStart) < waitSpiTimerTickDelay)); /* Wait for card goes ready or timeout */
 8001e74:	197b      	adds	r3, r7, r5
 8001e76:	781b      	ldrb	r3, [r3, #0]
 8001e78:	2bff      	cmp	r3, #255	; 0xff
 8001e7a:	d007      	beq.n	8001e8c <wait_ready+0x3a>
 8001e7c:	f7fe fc4a 	bl	8000714 <HAL_GetTick>
 8001e80:	0002      	movs	r2, r0
 8001e82:	697b      	ldr	r3, [r7, #20]
 8001e84:	1ad3      	subs	r3, r2, r3
 8001e86:	693a      	ldr	r2, [r7, #16]
 8001e88:	429a      	cmp	r2, r3
 8001e8a:	d8ec      	bhi.n	8001e66 <wait_ready+0x14>

	return (d == 0xFF) ? 1 : 0;
 8001e8c:	230f      	movs	r3, #15
 8001e8e:	18fb      	adds	r3, r7, r3
 8001e90:	781b      	ldrb	r3, [r3, #0]
 8001e92:	3bff      	subs	r3, #255	; 0xff
 8001e94:	425a      	negs	r2, r3
 8001e96:	4153      	adcs	r3, r2
 8001e98:	b2db      	uxtb	r3, r3
}
 8001e9a:	0018      	movs	r0, r3
 8001e9c:	46bd      	mov	sp, r7
 8001e9e:	b006      	add	sp, #24
 8001ea0:	bdb0      	pop	{r4, r5, r7, pc}
	...

08001ea4 <despiselect>:
/*-----------------------------------------------------------------------*/
/* Despiselect card and release SPI                                         */
/*-----------------------------------------------------------------------*/

static
void despiselect(void) {
 8001ea4:	b580      	push	{r7, lr}
 8001ea6:	af00      	add	r7, sp, #0
	CS_HIGH(); /* Set CS# high */
 8001ea8:	4b05      	ldr	r3, [pc, #20]	; (8001ec0 <despiselect+0x1c>)
 8001eaa:	2201      	movs	r2, #1
 8001eac:	2106      	movs	r1, #6
 8001eae:	0018      	movs	r0, r3
 8001eb0:	f000 fdfe 	bl	8002ab0 <gpio_write>
	xchg_spi(0xFF); /* Dummy clock (force DO hi-z for multiple slave SPI) */
 8001eb4:	20ff      	movs	r0, #255	; 0xff
 8001eb6:	f7ff ff7d 	bl	8001db4 <xchg_spi>

}
 8001eba:	46c0      	nop			; (mov r8, r8)
 8001ebc:	46bd      	mov	sp, r7
 8001ebe:	bd80      	pop	{r7, pc}
 8001ec0:	48000400 	.word	0x48000400

08001ec4 <spiselect>:
/* Select card and wait for ready                                        */
/*-----------------------------------------------------------------------*/

static
int spiselect(void) /* 1:OK, 0:Timeout */
{
 8001ec4:	b580      	push	{r7, lr}
 8001ec6:	af00      	add	r7, sp, #0
	CS_LOW(); /* Set CS# low */
 8001ec8:	4b0b      	ldr	r3, [pc, #44]	; (8001ef8 <spiselect+0x34>)
 8001eca:	2200      	movs	r2, #0
 8001ecc:	2106      	movs	r1, #6
 8001ece:	0018      	movs	r0, r3
 8001ed0:	f000 fdee 	bl	8002ab0 <gpio_write>
	xchg_spi(0xFF); /* Dummy clock (force DO enabled) */
 8001ed4:	20ff      	movs	r0, #255	; 0xff
 8001ed6:	f7ff ff6d 	bl	8001db4 <xchg_spi>
	if (wait_ready(500))
 8001eda:	23fa      	movs	r3, #250	; 0xfa
 8001edc:	005b      	lsls	r3, r3, #1
 8001ede:	0018      	movs	r0, r3
 8001ee0:	f7ff ffb7 	bl	8001e52 <wait_ready>
 8001ee4:	1e03      	subs	r3, r0, #0
 8001ee6:	d001      	beq.n	8001eec <spiselect+0x28>
		return 1; /* Wait for card ready */
 8001ee8:	2301      	movs	r3, #1
 8001eea:	e002      	b.n	8001ef2 <spiselect+0x2e>

	despiselect();
 8001eec:	f7ff ffda 	bl	8001ea4 <despiselect>
	return 0; /* Timeout */
 8001ef0:	2300      	movs	r3, #0
}
 8001ef2:	0018      	movs	r0, r3
 8001ef4:	46bd      	mov	sp, r7
 8001ef6:	bd80      	pop	{r7, pc}
 8001ef8:	48000400 	.word	0x48000400

08001efc <rcvr_datablock>:

static
int rcvr_datablock( /* 1:OK, 0:Error */
BYTE *buff, /* Data buffer */
UINT btr /* Data block length (byte) */
) {
 8001efc:	b5b0      	push	{r4, r5, r7, lr}
 8001efe:	b084      	sub	sp, #16
 8001f00:	af00      	add	r7, sp, #0
 8001f02:	6078      	str	r0, [r7, #4]
 8001f04:	6039      	str	r1, [r7, #0]
	BYTE token;

	SPI_Timer_On(200);
 8001f06:	20c8      	movs	r0, #200	; 0xc8
 8001f08:	f7ff ff2a 	bl	8001d60 <SPI_Timer_On>
	do { /* Wait for DataStart token in timeout of 200ms */
		token = xchg_spi(0xFF);
 8001f0c:	250f      	movs	r5, #15
 8001f0e:	197c      	adds	r4, r7, r5
 8001f10:	20ff      	movs	r0, #255	; 0xff
 8001f12:	f7ff ff4f 	bl	8001db4 <xchg_spi>
 8001f16:	0003      	movs	r3, r0
 8001f18:	7023      	strb	r3, [r4, #0]
		/* This loop will take a time. Insert rot_rdq() here for multitask envilonment. */
	} while ((token == 0xFF) && SPI_Timer_Status());
 8001f1a:	197b      	adds	r3, r7, r5
 8001f1c:	781b      	ldrb	r3, [r3, #0]
 8001f1e:	2bff      	cmp	r3, #255	; 0xff
 8001f20:	d103      	bne.n	8001f2a <rcvr_datablock+0x2e>
 8001f22:	f7ff ff31 	bl	8001d88 <SPI_Timer_Status>
 8001f26:	1e03      	subs	r3, r0, #0
 8001f28:	d1f0      	bne.n	8001f0c <rcvr_datablock+0x10>
	if (token != 0xFE)
 8001f2a:	230f      	movs	r3, #15
 8001f2c:	18fb      	adds	r3, r7, r3
 8001f2e:	781b      	ldrb	r3, [r3, #0]
 8001f30:	2bfe      	cmp	r3, #254	; 0xfe
 8001f32:	d001      	beq.n	8001f38 <rcvr_datablock+0x3c>
		return 0; /* Function fails if invalid DataStart token or timeout */
 8001f34:	2300      	movs	r3, #0
 8001f36:	e00c      	b.n	8001f52 <rcvr_datablock+0x56>

	rcvr_spi_multi(buff, btr); /* Store trailing data to the buffer */
 8001f38:	683a      	ldr	r2, [r7, #0]
 8001f3a:	687b      	ldr	r3, [r7, #4]
 8001f3c:	0011      	movs	r1, r2
 8001f3e:	0018      	movs	r0, r3
 8001f40:	f7ff ff50 	bl	8001de4 <rcvr_spi_multi>
	xchg_spi(0xFF);
 8001f44:	20ff      	movs	r0, #255	; 0xff
 8001f46:	f7ff ff35 	bl	8001db4 <xchg_spi>
	xchg_spi(0xFF); /* Discard CRC */
 8001f4a:	20ff      	movs	r0, #255	; 0xff
 8001f4c:	f7ff ff32 	bl	8001db4 <xchg_spi>

	return 1; /* Function succeeded */
 8001f50:	2301      	movs	r3, #1
}
 8001f52:	0018      	movs	r0, r3
 8001f54:	46bd      	mov	sp, r7
 8001f56:	b004      	add	sp, #16
 8001f58:	bdb0      	pop	{r4, r5, r7, pc}

08001f5a <xmit_datablock>:
#if _USE_WRITE
static
int xmit_datablock( /* 1:OK, 0:Failed */
const BYTE *buff, /* Ponter to 512 byte data to be sent */
BYTE token /* Token */
) {
 8001f5a:	b5b0      	push	{r4, r5, r7, lr}
 8001f5c:	b084      	sub	sp, #16
 8001f5e:	af00      	add	r7, sp, #0
 8001f60:	6078      	str	r0, [r7, #4]
 8001f62:	000a      	movs	r2, r1
 8001f64:	1cfb      	adds	r3, r7, #3
 8001f66:	701a      	strb	r2, [r3, #0]
	BYTE resp;

	if (!wait_ready(500))
 8001f68:	23fa      	movs	r3, #250	; 0xfa
 8001f6a:	005b      	lsls	r3, r3, #1
 8001f6c:	0018      	movs	r0, r3
 8001f6e:	f7ff ff70 	bl	8001e52 <wait_ready>
 8001f72:	1e03      	subs	r3, r0, #0
 8001f74:	d101      	bne.n	8001f7a <xmit_datablock+0x20>
		return 0; /* Wait for card ready */
 8001f76:	2300      	movs	r3, #0
 8001f78:	e025      	b.n	8001fc6 <xmit_datablock+0x6c>

	xchg_spi(token); /* Send token */
 8001f7a:	1cfb      	adds	r3, r7, #3
 8001f7c:	781b      	ldrb	r3, [r3, #0]
 8001f7e:	0018      	movs	r0, r3
 8001f80:	f7ff ff18 	bl	8001db4 <xchg_spi>
	if (token != 0xFD) { /* Send data if token is other than StopTran */
 8001f84:	1cfb      	adds	r3, r7, #3
 8001f86:	781b      	ldrb	r3, [r3, #0]
 8001f88:	2bfd      	cmp	r3, #253	; 0xfd
 8001f8a:	d01b      	beq.n	8001fc4 <xmit_datablock+0x6a>
		xmit_spi_multi(buff, 512); /* Data */
 8001f8c:	2380      	movs	r3, #128	; 0x80
 8001f8e:	009a      	lsls	r2, r3, #2
 8001f90:	687b      	ldr	r3, [r7, #4]
 8001f92:	0011      	movs	r1, r2
 8001f94:	0018      	movs	r0, r3
 8001f96:	f7ff ff41 	bl	8001e1c <xmit_spi_multi>
		xchg_spi(0xFF);
 8001f9a:	20ff      	movs	r0, #255	; 0xff
 8001f9c:	f7ff ff0a 	bl	8001db4 <xchg_spi>
		xchg_spi(0xFF); /* Dummy CRC */
 8001fa0:	20ff      	movs	r0, #255	; 0xff
 8001fa2:	f7ff ff07 	bl	8001db4 <xchg_spi>

		resp = xchg_spi(0xFF); /* Receive data resp */
 8001fa6:	250f      	movs	r5, #15
 8001fa8:	197c      	adds	r4, r7, r5
 8001faa:	20ff      	movs	r0, #255	; 0xff
 8001fac:	f7ff ff02 	bl	8001db4 <xchg_spi>
 8001fb0:	0003      	movs	r3, r0
 8001fb2:	7023      	strb	r3, [r4, #0]
		if ((resp & 0x1F) != 0x05)
 8001fb4:	197b      	adds	r3, r7, r5
 8001fb6:	781b      	ldrb	r3, [r3, #0]
 8001fb8:	221f      	movs	r2, #31
 8001fba:	4013      	ands	r3, r2
 8001fbc:	2b05      	cmp	r3, #5
 8001fbe:	d001      	beq.n	8001fc4 <xmit_datablock+0x6a>
			return 0; /* Function fails if the data packet was not accepted */
 8001fc0:	2300      	movs	r3, #0
 8001fc2:	e000      	b.n	8001fc6 <xmit_datablock+0x6c>
	}
	return 1;
 8001fc4:	2301      	movs	r3, #1
}
 8001fc6:	0018      	movs	r0, r3
 8001fc8:	46bd      	mov	sp, r7
 8001fca:	b004      	add	sp, #16
 8001fcc:	bdb0      	pop	{r4, r5, r7, pc}

08001fce <send_cmd>:
/*-----------------------------------------------------------------------*/

static BYTE send_cmd( /* Return value: R1 resp (bit7==1:Failed to send) */
BYTE cmd, /* Command index */
DWORD arg /* Argument */
) {
 8001fce:	b5b0      	push	{r4, r5, r7, lr}
 8001fd0:	b084      	sub	sp, #16
 8001fd2:	af00      	add	r7, sp, #0
 8001fd4:	0002      	movs	r2, r0
 8001fd6:	6039      	str	r1, [r7, #0]
 8001fd8:	1dfb      	adds	r3, r7, #7
 8001fda:	701a      	strb	r2, [r3, #0]
	BYTE n, res;

	if (cmd & 0x80) { /* Send a CMD55 prior to ACMD<n> */
 8001fdc:	1dfb      	adds	r3, r7, #7
 8001fde:	781b      	ldrb	r3, [r3, #0]
 8001fe0:	b25b      	sxtb	r3, r3
 8001fe2:	2b00      	cmp	r3, #0
 8001fe4:	da15      	bge.n	8002012 <send_cmd+0x44>
		cmd &= 0x7F;
 8001fe6:	1dfb      	adds	r3, r7, #7
 8001fe8:	1dfa      	adds	r2, r7, #7
 8001fea:	7812      	ldrb	r2, [r2, #0]
 8001fec:	217f      	movs	r1, #127	; 0x7f
 8001fee:	400a      	ands	r2, r1
 8001ff0:	701a      	strb	r2, [r3, #0]
		res = send_cmd(CMD55, 0);
 8001ff2:	250e      	movs	r5, #14
 8001ff4:	197c      	adds	r4, r7, r5
 8001ff6:	2100      	movs	r1, #0
 8001ff8:	2037      	movs	r0, #55	; 0x37
 8001ffa:	f7ff ffe8 	bl	8001fce <send_cmd>
 8001ffe:	0003      	movs	r3, r0
 8002000:	7023      	strb	r3, [r4, #0]
		if (res > 1)
 8002002:	002a      	movs	r2, r5
 8002004:	18bb      	adds	r3, r7, r2
 8002006:	781b      	ldrb	r3, [r3, #0]
 8002008:	2b01      	cmp	r3, #1
 800200a:	d902      	bls.n	8002012 <send_cmd+0x44>
			return res;
 800200c:	18bb      	adds	r3, r7, r2
 800200e:	781b      	ldrb	r3, [r3, #0]
 8002010:	e067      	b.n	80020e2 <send_cmd+0x114>
	}

	/* Select the card and wait for ready except to stop multiple block read */
	if (cmd != CMD12) {
 8002012:	1dfb      	adds	r3, r7, #7
 8002014:	781b      	ldrb	r3, [r3, #0]
 8002016:	2b0c      	cmp	r3, #12
 8002018:	d007      	beq.n	800202a <send_cmd+0x5c>
		despiselect();
 800201a:	f7ff ff43 	bl	8001ea4 <despiselect>
		if (!spiselect())
 800201e:	f7ff ff51 	bl	8001ec4 <spiselect>
 8002022:	1e03      	subs	r3, r0, #0
 8002024:	d101      	bne.n	800202a <send_cmd+0x5c>
			return 0xFF;
 8002026:	23ff      	movs	r3, #255	; 0xff
 8002028:	e05b      	b.n	80020e2 <send_cmd+0x114>
	}

	/* Send command packet */
	xchg_spi(0x40 | cmd); /* Start + command index */
 800202a:	1dfb      	adds	r3, r7, #7
 800202c:	781b      	ldrb	r3, [r3, #0]
 800202e:	2240      	movs	r2, #64	; 0x40
 8002030:	4313      	orrs	r3, r2
 8002032:	b2db      	uxtb	r3, r3
 8002034:	0018      	movs	r0, r3
 8002036:	f7ff febd 	bl	8001db4 <xchg_spi>
	xchg_spi((BYTE) (arg >> 24)); /* Argument[31..24] */
 800203a:	683b      	ldr	r3, [r7, #0]
 800203c:	0e1b      	lsrs	r3, r3, #24
 800203e:	b2db      	uxtb	r3, r3
 8002040:	0018      	movs	r0, r3
 8002042:	f7ff feb7 	bl	8001db4 <xchg_spi>
	xchg_spi((BYTE) (arg >> 16)); /* Argument[23..16] */
 8002046:	683b      	ldr	r3, [r7, #0]
 8002048:	0c1b      	lsrs	r3, r3, #16
 800204a:	b2db      	uxtb	r3, r3
 800204c:	0018      	movs	r0, r3
 800204e:	f7ff feb1 	bl	8001db4 <xchg_spi>
	xchg_spi((BYTE) (arg >> 8)); /* Argument[15..8] */
 8002052:	683b      	ldr	r3, [r7, #0]
 8002054:	0a1b      	lsrs	r3, r3, #8
 8002056:	b2db      	uxtb	r3, r3
 8002058:	0018      	movs	r0, r3
 800205a:	f7ff feab 	bl	8001db4 <xchg_spi>
	xchg_spi((BYTE) arg); /* Argument[7..0] */
 800205e:	683b      	ldr	r3, [r7, #0]
 8002060:	b2db      	uxtb	r3, r3
 8002062:	0018      	movs	r0, r3
 8002064:	f7ff fea6 	bl	8001db4 <xchg_spi>
	n = 0x01; /* Dummy CRC + Stop */
 8002068:	210f      	movs	r1, #15
 800206a:	187b      	adds	r3, r7, r1
 800206c:	2201      	movs	r2, #1
 800206e:	701a      	strb	r2, [r3, #0]
	if (cmd == CMD0)
 8002070:	1dfb      	adds	r3, r7, #7
 8002072:	781b      	ldrb	r3, [r3, #0]
 8002074:	2b00      	cmp	r3, #0
 8002076:	d102      	bne.n	800207e <send_cmd+0xb0>
		n = 0x95; /* Valid CRC for CMD0(0) */
 8002078:	187b      	adds	r3, r7, r1
 800207a:	2295      	movs	r2, #149	; 0x95
 800207c:	701a      	strb	r2, [r3, #0]
	if (cmd == CMD8)
 800207e:	1dfb      	adds	r3, r7, #7
 8002080:	781b      	ldrb	r3, [r3, #0]
 8002082:	2b08      	cmp	r3, #8
 8002084:	d103      	bne.n	800208e <send_cmd+0xc0>
		n = 0x87; /* Valid CRC for CMD8(0x1AA) */
 8002086:	230f      	movs	r3, #15
 8002088:	18fb      	adds	r3, r7, r3
 800208a:	2287      	movs	r2, #135	; 0x87
 800208c:	701a      	strb	r2, [r3, #0]
	xchg_spi(n);
 800208e:	230f      	movs	r3, #15
 8002090:	18fb      	adds	r3, r7, r3
 8002092:	781b      	ldrb	r3, [r3, #0]
 8002094:	0018      	movs	r0, r3
 8002096:	f7ff fe8d 	bl	8001db4 <xchg_spi>

	/* Receive command resp */
	if (cmd == CMD12)
 800209a:	1dfb      	adds	r3, r7, #7
 800209c:	781b      	ldrb	r3, [r3, #0]
 800209e:	2b0c      	cmp	r3, #12
 80020a0:	d102      	bne.n	80020a8 <send_cmd+0xda>
		xchg_spi(0xFF); /* Diacard following one byte when CMD12 */
 80020a2:	20ff      	movs	r0, #255	; 0xff
 80020a4:	f7ff fe86 	bl	8001db4 <xchg_spi>
	n = 10; /* Wait for response (10 bytes max) */
 80020a8:	230f      	movs	r3, #15
 80020aa:	18fb      	adds	r3, r7, r3
 80020ac:	220a      	movs	r2, #10
 80020ae:	701a      	strb	r2, [r3, #0]
	do {
		res = xchg_spi(0xFF);
 80020b0:	250e      	movs	r5, #14
 80020b2:	197c      	adds	r4, r7, r5
 80020b4:	20ff      	movs	r0, #255	; 0xff
 80020b6:	f7ff fe7d 	bl	8001db4 <xchg_spi>
 80020ba:	0003      	movs	r3, r0
 80020bc:	7023      	strb	r3, [r4, #0]
	} while ((res & 0x80) && --n);
 80020be:	197b      	adds	r3, r7, r5
 80020c0:	781b      	ldrb	r3, [r3, #0]
 80020c2:	b25b      	sxtb	r3, r3
 80020c4:	2b00      	cmp	r3, #0
 80020c6:	da09      	bge.n	80020dc <send_cmd+0x10e>
 80020c8:	210f      	movs	r1, #15
 80020ca:	187b      	adds	r3, r7, r1
 80020cc:	187a      	adds	r2, r7, r1
 80020ce:	7812      	ldrb	r2, [r2, #0]
 80020d0:	3a01      	subs	r2, #1
 80020d2:	701a      	strb	r2, [r3, #0]
 80020d4:	187b      	adds	r3, r7, r1
 80020d6:	781b      	ldrb	r3, [r3, #0]
 80020d8:	2b00      	cmp	r3, #0
 80020da:	d1e9      	bne.n	80020b0 <send_cmd+0xe2>

	return res; /* Return received response */
 80020dc:	230e      	movs	r3, #14
 80020de:	18fb      	adds	r3, r7, r3
 80020e0:	781b      	ldrb	r3, [r3, #0]
}
 80020e2:	0018      	movs	r0, r3
 80020e4:	46bd      	mov	sp, r7
 80020e6:	b004      	add	sp, #16
 80020e8:	bdb0      	pop	{r4, r5, r7, pc}
	...

080020ec <USER_SPI_initialize>:
/*-----------------------------------------------------------------------*/
/* Initialize disk drive                                                 */
/*-----------------------------------------------------------------------*/

inline DSTATUS USER_SPI_initialize(BYTE drv /* Physical drive number (0) */
) {
 80020ec:	b5b0      	push	{r4, r5, r7, lr}
 80020ee:	b084      	sub	sp, #16
 80020f0:	af00      	add	r7, sp, #0
 80020f2:	0002      	movs	r2, r0
 80020f4:	1dfb      	adds	r3, r7, #7
 80020f6:	701a      	strb	r2, [r3, #0]
	BYTE n, cmd, ty, ocr[4];

	if (drv != 0)
 80020f8:	1dfb      	adds	r3, r7, #7
 80020fa:	781b      	ldrb	r3, [r3, #0]
 80020fc:	2b00      	cmp	r3, #0
 80020fe:	d001      	beq.n	8002104 <USER_SPI_initialize+0x18>
		return STA_NOINIT; /* Supports only drive 0 */
 8002100:	2301      	movs	r3, #1
 8002102:	e100      	b.n	8002306 <USER_SPI_initialize+0x21a>
	//assume SPI already init init_spi();	/* Initialize SPI */

	if (Stat & STA_NODISK)
 8002104:	4b82      	ldr	r3, [pc, #520]	; (8002310 <USER_SPI_initialize+0x224>)
 8002106:	781b      	ldrb	r3, [r3, #0]
 8002108:	b2db      	uxtb	r3, r3
 800210a:	001a      	movs	r2, r3
 800210c:	2302      	movs	r3, #2
 800210e:	4013      	ands	r3, r2
 8002110:	d003      	beq.n	800211a <USER_SPI_initialize+0x2e>
		return Stat; /* Is card existing in the soket? */
 8002112:	4b7f      	ldr	r3, [pc, #508]	; (8002310 <USER_SPI_initialize+0x224>)
 8002114:	781b      	ldrb	r3, [r3, #0]
 8002116:	b2db      	uxtb	r3, r3
 8002118:	e0f5      	b.n	8002306 <USER_SPI_initialize+0x21a>

	FCLK_SLOW();
 800211a:	4b7e      	ldr	r3, [pc, #504]	; (8002314 <USER_SPI_initialize+0x228>)
 800211c:	681b      	ldr	r3, [r3, #0]
 800211e:	681b      	ldr	r3, [r3, #0]
 8002120:	2238      	movs	r2, #56	; 0x38
 8002122:	4393      	bics	r3, r2
 8002124:	001a      	movs	r2, r3
 8002126:	4b7b      	ldr	r3, [pc, #492]	; (8002314 <USER_SPI_initialize+0x228>)
 8002128:	681b      	ldr	r3, [r3, #0]
 800212a:	2130      	movs	r1, #48	; 0x30
 800212c:	430a      	orrs	r2, r1
 800212e:	601a      	str	r2, [r3, #0]
	for (n = 10; n; n--)
 8002130:	230f      	movs	r3, #15
 8002132:	18fb      	adds	r3, r7, r3
 8002134:	220a      	movs	r2, #10
 8002136:	701a      	strb	r2, [r3, #0]
 8002138:	e008      	b.n	800214c <USER_SPI_initialize+0x60>
		xchg_spi(0xFF); /* Send 80 dummy clocks */
 800213a:	20ff      	movs	r0, #255	; 0xff
 800213c:	f7ff fe3a 	bl	8001db4 <xchg_spi>
	for (n = 10; n; n--)
 8002140:	210f      	movs	r1, #15
 8002142:	187b      	adds	r3, r7, r1
 8002144:	781a      	ldrb	r2, [r3, #0]
 8002146:	187b      	adds	r3, r7, r1
 8002148:	3a01      	subs	r2, #1
 800214a:	701a      	strb	r2, [r3, #0]
 800214c:	240f      	movs	r4, #15
 800214e:	193b      	adds	r3, r7, r4
 8002150:	781b      	ldrb	r3, [r3, #0]
 8002152:	2b00      	cmp	r3, #0
 8002154:	d1f1      	bne.n	800213a <USER_SPI_initialize+0x4e>

	ty = 0;
 8002156:	230d      	movs	r3, #13
 8002158:	18fb      	adds	r3, r7, r3
 800215a:	2200      	movs	r2, #0
 800215c:	701a      	strb	r2, [r3, #0]
	if (send_cmd(CMD0, 0) == 1) { /* Put the card SPI/Idle state */
 800215e:	2100      	movs	r1, #0
 8002160:	2000      	movs	r0, #0
 8002162:	f7ff ff34 	bl	8001fce <send_cmd>
 8002166:	0003      	movs	r3, r0
 8002168:	2b01      	cmp	r3, #1
 800216a:	d000      	beq.n	800216e <USER_SPI_initialize+0x82>
 800216c:	e0a6      	b.n	80022bc <USER_SPI_initialize+0x1d0>
		SPI_Timer_On(1000); /* Initialization timeout = 1 sec */
 800216e:	23fa      	movs	r3, #250	; 0xfa
 8002170:	009b      	lsls	r3, r3, #2
 8002172:	0018      	movs	r0, r3
 8002174:	f7ff fdf4 	bl	8001d60 <SPI_Timer_On>
		if (send_cmd(CMD8, 0x1AA) == 1) { /* SDv2? */
 8002178:	23d5      	movs	r3, #213	; 0xd5
 800217a:	005b      	lsls	r3, r3, #1
 800217c:	0019      	movs	r1, r3
 800217e:	2008      	movs	r0, #8
 8002180:	f7ff ff25 	bl	8001fce <send_cmd>
 8002184:	0003      	movs	r3, r0
 8002186:	2b01      	cmp	r3, #1
 8002188:	d162      	bne.n	8002250 <USER_SPI_initialize+0x164>
			for (n = 0; n < 4; n++)
 800218a:	193b      	adds	r3, r7, r4
 800218c:	2200      	movs	r2, #0
 800218e:	701a      	strb	r2, [r3, #0]
 8002190:	e00f      	b.n	80021b2 <USER_SPI_initialize+0xc6>
				ocr[n] = xchg_spi(0xFF); /* Get 32 bit return value of R7 resp */
 8002192:	250f      	movs	r5, #15
 8002194:	197b      	adds	r3, r7, r5
 8002196:	781c      	ldrb	r4, [r3, #0]
 8002198:	20ff      	movs	r0, #255	; 0xff
 800219a:	f7ff fe0b 	bl	8001db4 <xchg_spi>
 800219e:	0003      	movs	r3, r0
 80021a0:	001a      	movs	r2, r3
 80021a2:	2308      	movs	r3, #8
 80021a4:	18fb      	adds	r3, r7, r3
 80021a6:	551a      	strb	r2, [r3, r4]
			for (n = 0; n < 4; n++)
 80021a8:	197b      	adds	r3, r7, r5
 80021aa:	781a      	ldrb	r2, [r3, #0]
 80021ac:	197b      	adds	r3, r7, r5
 80021ae:	3201      	adds	r2, #1
 80021b0:	701a      	strb	r2, [r3, #0]
 80021b2:	230f      	movs	r3, #15
 80021b4:	18fb      	adds	r3, r7, r3
 80021b6:	781b      	ldrb	r3, [r3, #0]
 80021b8:	2b03      	cmp	r3, #3
 80021ba:	d9ea      	bls.n	8002192 <USER_SPI_initialize+0xa6>
			if (ocr[2] == 0x01 && ocr[3] == 0xAA) { /* Is the card supports vcc of 2.7-3.6V? */
 80021bc:	2208      	movs	r2, #8
 80021be:	18bb      	adds	r3, r7, r2
 80021c0:	789b      	ldrb	r3, [r3, #2]
 80021c2:	2b01      	cmp	r3, #1
 80021c4:	d000      	beq.n	80021c8 <USER_SPI_initialize+0xdc>
 80021c6:	e079      	b.n	80022bc <USER_SPI_initialize+0x1d0>
 80021c8:	18bb      	adds	r3, r7, r2
 80021ca:	78db      	ldrb	r3, [r3, #3]
 80021cc:	2baa      	cmp	r3, #170	; 0xaa
 80021ce:	d000      	beq.n	80021d2 <USER_SPI_initialize+0xe6>
 80021d0:	e074      	b.n	80022bc <USER_SPI_initialize+0x1d0>
				while (SPI_Timer_Status() && send_cmd(ACMD41, 1UL << 30))
 80021d2:	46c0      	nop			; (mov r8, r8)
 80021d4:	f7ff fdd8 	bl	8001d88 <SPI_Timer_Status>
 80021d8:	1e03      	subs	r3, r0, #0
 80021da:	d007      	beq.n	80021ec <USER_SPI_initialize+0x100>
 80021dc:	2380      	movs	r3, #128	; 0x80
 80021de:	05db      	lsls	r3, r3, #23
 80021e0:	0019      	movs	r1, r3
 80021e2:	20a9      	movs	r0, #169	; 0xa9
 80021e4:	f7ff fef3 	bl	8001fce <send_cmd>
 80021e8:	1e03      	subs	r3, r0, #0
 80021ea:	d1f3      	bne.n	80021d4 <USER_SPI_initialize+0xe8>
					; /* Wait for end of initialization with ACMD41(HCS) */
				if (SPI_Timer_Status() && send_cmd(CMD58, 0) == 0) { /* Check CCS bit in the OCR */
 80021ec:	f7ff fdcc 	bl	8001d88 <SPI_Timer_Status>
 80021f0:	1e03      	subs	r3, r0, #0
 80021f2:	d063      	beq.n	80022bc <USER_SPI_initialize+0x1d0>
 80021f4:	2100      	movs	r1, #0
 80021f6:	203a      	movs	r0, #58	; 0x3a
 80021f8:	f7ff fee9 	bl	8001fce <send_cmd>
 80021fc:	1e03      	subs	r3, r0, #0
 80021fe:	d15d      	bne.n	80022bc <USER_SPI_initialize+0x1d0>
					for (n = 0; n < 4; n++)
 8002200:	230f      	movs	r3, #15
 8002202:	18fb      	adds	r3, r7, r3
 8002204:	2200      	movs	r2, #0
 8002206:	701a      	strb	r2, [r3, #0]
 8002208:	e00f      	b.n	800222a <USER_SPI_initialize+0x13e>
						ocr[n] = xchg_spi(0xFF);
 800220a:	250f      	movs	r5, #15
 800220c:	197b      	adds	r3, r7, r5
 800220e:	781c      	ldrb	r4, [r3, #0]
 8002210:	20ff      	movs	r0, #255	; 0xff
 8002212:	f7ff fdcf 	bl	8001db4 <xchg_spi>
 8002216:	0003      	movs	r3, r0
 8002218:	001a      	movs	r2, r3
 800221a:	2308      	movs	r3, #8
 800221c:	18fb      	adds	r3, r7, r3
 800221e:	551a      	strb	r2, [r3, r4]
					for (n = 0; n < 4; n++)
 8002220:	197b      	adds	r3, r7, r5
 8002222:	781a      	ldrb	r2, [r3, #0]
 8002224:	197b      	adds	r3, r7, r5
 8002226:	3201      	adds	r2, #1
 8002228:	701a      	strb	r2, [r3, #0]
 800222a:	230f      	movs	r3, #15
 800222c:	18fb      	adds	r3, r7, r3
 800222e:	781b      	ldrb	r3, [r3, #0]
 8002230:	2b03      	cmp	r3, #3
 8002232:	d9ea      	bls.n	800220a <USER_SPI_initialize+0x11e>
					ty = (ocr[0] & 0x40) ? CT_SD2 | CT_BLOCK : CT_SD2; /* Card id SDv2 */
 8002234:	2308      	movs	r3, #8
 8002236:	18fb      	adds	r3, r7, r3
 8002238:	781b      	ldrb	r3, [r3, #0]
 800223a:	001a      	movs	r2, r3
 800223c:	2340      	movs	r3, #64	; 0x40
 800223e:	4013      	ands	r3, r2
 8002240:	d001      	beq.n	8002246 <USER_SPI_initialize+0x15a>
 8002242:	220c      	movs	r2, #12
 8002244:	e000      	b.n	8002248 <USER_SPI_initialize+0x15c>
 8002246:	2204      	movs	r2, #4
 8002248:	230d      	movs	r3, #13
 800224a:	18fb      	adds	r3, r7, r3
 800224c:	701a      	strb	r2, [r3, #0]
 800224e:	e035      	b.n	80022bc <USER_SPI_initialize+0x1d0>
				}
			}
		} else { /* Not SDv2 card */
			if (send_cmd(ACMD41, 0) <= 1) { /* SDv1 or MMC? */
 8002250:	2100      	movs	r1, #0
 8002252:	20a9      	movs	r0, #169	; 0xa9
 8002254:	f7ff febb 	bl	8001fce <send_cmd>
 8002258:	0003      	movs	r3, r0
 800225a:	2b01      	cmp	r3, #1
 800225c:	d808      	bhi.n	8002270 <USER_SPI_initialize+0x184>
				ty = CT_SD1;
 800225e:	230d      	movs	r3, #13
 8002260:	18fb      	adds	r3, r7, r3
 8002262:	2202      	movs	r2, #2
 8002264:	701a      	strb	r2, [r3, #0]
				cmd = ACMD41; /* SDv1 (ACMD41(0)) */
 8002266:	230e      	movs	r3, #14
 8002268:	18fb      	adds	r3, r7, r3
 800226a:	22a9      	movs	r2, #169	; 0xa9
 800226c:	701a      	strb	r2, [r3, #0]
 800226e:	e007      	b.n	8002280 <USER_SPI_initialize+0x194>
			} else {
				ty = CT_MMC;
 8002270:	230d      	movs	r3, #13
 8002272:	18fb      	adds	r3, r7, r3
 8002274:	2201      	movs	r2, #1
 8002276:	701a      	strb	r2, [r3, #0]
				cmd = CMD1; /* MMCv3 (CMD1(0)) */
 8002278:	230e      	movs	r3, #14
 800227a:	18fb      	adds	r3, r7, r3
 800227c:	2201      	movs	r2, #1
 800227e:	701a      	strb	r2, [r3, #0]
			}
			while (SPI_Timer_Status() && send_cmd(cmd, 0))
 8002280:	46c0      	nop			; (mov r8, r8)
 8002282:	f7ff fd81 	bl	8001d88 <SPI_Timer_Status>
 8002286:	1e03      	subs	r3, r0, #0
 8002288:	d008      	beq.n	800229c <USER_SPI_initialize+0x1b0>
 800228a:	230e      	movs	r3, #14
 800228c:	18fb      	adds	r3, r7, r3
 800228e:	781b      	ldrb	r3, [r3, #0]
 8002290:	2100      	movs	r1, #0
 8002292:	0018      	movs	r0, r3
 8002294:	f7ff fe9b 	bl	8001fce <send_cmd>
 8002298:	1e03      	subs	r3, r0, #0
 800229a:	d1f2      	bne.n	8002282 <USER_SPI_initialize+0x196>
				; /* Wait for end of initialization */
			if (!SPI_Timer_Status() || send_cmd(CMD16, 512) != 0) /* Set block length: 512 */
 800229c:	f7ff fd74 	bl	8001d88 <SPI_Timer_Status>
 80022a0:	1e03      	subs	r3, r0, #0
 80022a2:	d007      	beq.n	80022b4 <USER_SPI_initialize+0x1c8>
 80022a4:	2380      	movs	r3, #128	; 0x80
 80022a6:	009b      	lsls	r3, r3, #2
 80022a8:	0019      	movs	r1, r3
 80022aa:	2010      	movs	r0, #16
 80022ac:	f7ff fe8f 	bl	8001fce <send_cmd>
 80022b0:	1e03      	subs	r3, r0, #0
 80022b2:	d003      	beq.n	80022bc <USER_SPI_initialize+0x1d0>
				ty = 0;
 80022b4:	230d      	movs	r3, #13
 80022b6:	18fb      	adds	r3, r7, r3
 80022b8:	2200      	movs	r2, #0
 80022ba:	701a      	strb	r2, [r3, #0]
		}
	}
	CardType = ty; /* Card type */
 80022bc:	4b16      	ldr	r3, [pc, #88]	; (8002318 <USER_SPI_initialize+0x22c>)
 80022be:	240d      	movs	r4, #13
 80022c0:	193a      	adds	r2, r7, r4
 80022c2:	7812      	ldrb	r2, [r2, #0]
 80022c4:	701a      	strb	r2, [r3, #0]
	despiselect();
 80022c6:	f7ff fded 	bl	8001ea4 <despiselect>

	if (ty) { /* OK */
 80022ca:	193b      	adds	r3, r7, r4
 80022cc:	781b      	ldrb	r3, [r3, #0]
 80022ce:	2b00      	cmp	r3, #0
 80022d0:	d013      	beq.n	80022fa <USER_SPI_initialize+0x20e>
		FCLK_FAST(); /* Set fast clock */
 80022d2:	4b10      	ldr	r3, [pc, #64]	; (8002314 <USER_SPI_initialize+0x228>)
 80022d4:	681b      	ldr	r3, [r3, #0]
 80022d6:	681b      	ldr	r3, [r3, #0]
 80022d8:	2238      	movs	r2, #56	; 0x38
 80022da:	4393      	bics	r3, r2
 80022dc:	001a      	movs	r2, r3
 80022de:	4b0d      	ldr	r3, [pc, #52]	; (8002314 <USER_SPI_initialize+0x228>)
 80022e0:	681b      	ldr	r3, [r3, #0]
 80022e2:	2108      	movs	r1, #8
 80022e4:	430a      	orrs	r2, r1
 80022e6:	601a      	str	r2, [r3, #0]
		Stat &= ~STA_NOINIT; /* Clear STA_NOINIT flag */
 80022e8:	4b09      	ldr	r3, [pc, #36]	; (8002310 <USER_SPI_initialize+0x224>)
 80022ea:	781b      	ldrb	r3, [r3, #0]
 80022ec:	b2db      	uxtb	r3, r3
 80022ee:	2201      	movs	r2, #1
 80022f0:	4393      	bics	r3, r2
 80022f2:	b2da      	uxtb	r2, r3
 80022f4:	4b06      	ldr	r3, [pc, #24]	; (8002310 <USER_SPI_initialize+0x224>)
 80022f6:	701a      	strb	r2, [r3, #0]
 80022f8:	e002      	b.n	8002300 <USER_SPI_initialize+0x214>
	} else { /* Failed */
		Stat = STA_NOINIT;
 80022fa:	4b05      	ldr	r3, [pc, #20]	; (8002310 <USER_SPI_initialize+0x224>)
 80022fc:	2201      	movs	r2, #1
 80022fe:	701a      	strb	r2, [r3, #0]
	}

	return Stat;
 8002300:	4b03      	ldr	r3, [pc, #12]	; (8002310 <USER_SPI_initialize+0x224>)
 8002302:	781b      	ldrb	r3, [r3, #0]
 8002304:	b2db      	uxtb	r3, r3
}
 8002306:	0018      	movs	r0, r3
 8002308:	46bd      	mov	sp, r7
 800230a:	b004      	add	sp, #16
 800230c:	bdb0      	pop	{r4, r5, r7, pc}
 800230e:	46c0      	nop			; (mov r8, r8)
 8002310:	20000020 	.word	0x20000020
 8002314:	200000e4 	.word	0x200000e4
 8002318:	20000158 	.word	0x20000158

0800231c <USER_SPI_status>:
/*-----------------------------------------------------------------------*/
/* Get disk status                                                       */
/*-----------------------------------------------------------------------*/

inline DSTATUS USER_SPI_status(BYTE drv /* Physical drive number (0) */
) {
 800231c:	b580      	push	{r7, lr}
 800231e:	b082      	sub	sp, #8
 8002320:	af00      	add	r7, sp, #0
 8002322:	0002      	movs	r2, r0
 8002324:	1dfb      	adds	r3, r7, #7
 8002326:	701a      	strb	r2, [r3, #0]
	if (drv)
 8002328:	1dfb      	adds	r3, r7, #7
 800232a:	781b      	ldrb	r3, [r3, #0]
 800232c:	2b00      	cmp	r3, #0
 800232e:	d001      	beq.n	8002334 <USER_SPI_status+0x18>
		return STA_NOINIT; /* Supports only drive 0 */
 8002330:	2301      	movs	r3, #1
 8002332:	e002      	b.n	800233a <USER_SPI_status+0x1e>

	return Stat; /* Return disk status */
 8002334:	4b03      	ldr	r3, [pc, #12]	; (8002344 <USER_SPI_status+0x28>)
 8002336:	781b      	ldrb	r3, [r3, #0]
 8002338:	b2db      	uxtb	r3, r3
}
 800233a:	0018      	movs	r0, r3
 800233c:	46bd      	mov	sp, r7
 800233e:	b002      	add	sp, #8
 8002340:	bd80      	pop	{r7, pc}
 8002342:	46c0      	nop			; (mov r8, r8)
 8002344:	20000020 	.word	0x20000020

08002348 <USER_SPI_read>:

inline DRESULT USER_SPI_read(BYTE drv, /* Physical drive number (0) */
BYTE *buff, /* Pointer to the data buffer to store read data */
DWORD sector, /* Start sector number (LBA) */
UINT count /* Number of sectors to read (1..128) */
) {
 8002348:	b580      	push	{r7, lr}
 800234a:	b084      	sub	sp, #16
 800234c:	af00      	add	r7, sp, #0
 800234e:	60b9      	str	r1, [r7, #8]
 8002350:	607a      	str	r2, [r7, #4]
 8002352:	603b      	str	r3, [r7, #0]
 8002354:	210f      	movs	r1, #15
 8002356:	187b      	adds	r3, r7, r1
 8002358:	1c02      	adds	r2, r0, #0
 800235a:	701a      	strb	r2, [r3, #0]
	if (drv || !count)
 800235c:	187b      	adds	r3, r7, r1
 800235e:	781b      	ldrb	r3, [r3, #0]
 8002360:	2b00      	cmp	r3, #0
 8002362:	d102      	bne.n	800236a <USER_SPI_read+0x22>
 8002364:	683b      	ldr	r3, [r7, #0]
 8002366:	2b00      	cmp	r3, #0
 8002368:	d101      	bne.n	800236e <USER_SPI_read+0x26>
		return RES_PARERR; /* Check parameter */
 800236a:	2304      	movs	r3, #4
 800236c:	e04f      	b.n	800240e <USER_SPI_read+0xc6>
	if (Stat & STA_NOINIT)
 800236e:	4b2a      	ldr	r3, [pc, #168]	; (8002418 <USER_SPI_read+0xd0>)
 8002370:	781b      	ldrb	r3, [r3, #0]
 8002372:	b2db      	uxtb	r3, r3
 8002374:	001a      	movs	r2, r3
 8002376:	2301      	movs	r3, #1
 8002378:	4013      	ands	r3, r2
 800237a:	d001      	beq.n	8002380 <USER_SPI_read+0x38>
		return RES_NOTRDY; /* Check if drive is ready */
 800237c:	2303      	movs	r3, #3
 800237e:	e046      	b.n	800240e <USER_SPI_read+0xc6>

	if (!(CardType & CT_BLOCK))
 8002380:	4b26      	ldr	r3, [pc, #152]	; (800241c <USER_SPI_read+0xd4>)
 8002382:	781b      	ldrb	r3, [r3, #0]
 8002384:	001a      	movs	r2, r3
 8002386:	2308      	movs	r3, #8
 8002388:	4013      	ands	r3, r2
 800238a:	d102      	bne.n	8002392 <USER_SPI_read+0x4a>
		sector *= 512; /* LBA ot BA conversion (byte addressing cards) */
 800238c:	687b      	ldr	r3, [r7, #4]
 800238e:	025b      	lsls	r3, r3, #9
 8002390:	607b      	str	r3, [r7, #4]

	if (count == 1) { /* Single sector read */
 8002392:	683b      	ldr	r3, [r7, #0]
 8002394:	2b01      	cmp	r3, #1
 8002396:	d112      	bne.n	80023be <USER_SPI_read+0x76>
		if ((send_cmd(CMD17, sector) == 0) /* READ_SINGLE_BLOCK */
 8002398:	687b      	ldr	r3, [r7, #4]
 800239a:	0019      	movs	r1, r3
 800239c:	2011      	movs	r0, #17
 800239e:	f7ff fe16 	bl	8001fce <send_cmd>
 80023a2:	1e03      	subs	r3, r0, #0
 80023a4:	d12d      	bne.n	8002402 <USER_SPI_read+0xba>
		&& rcvr_datablock(buff, 512)) {
 80023a6:	2380      	movs	r3, #128	; 0x80
 80023a8:	009a      	lsls	r2, r3, #2
 80023aa:	68bb      	ldr	r3, [r7, #8]
 80023ac:	0011      	movs	r1, r2
 80023ae:	0018      	movs	r0, r3
 80023b0:	f7ff fda4 	bl	8001efc <rcvr_datablock>
 80023b4:	1e03      	subs	r3, r0, #0
 80023b6:	d024      	beq.n	8002402 <USER_SPI_read+0xba>
			count = 0;
 80023b8:	2300      	movs	r3, #0
 80023ba:	603b      	str	r3, [r7, #0]
 80023bc:	e021      	b.n	8002402 <USER_SPI_read+0xba>
		}
	} else { /* Multiple sector read */
		if (send_cmd(CMD18, sector) == 0) { /* READ_MULTIPLE_BLOCK */
 80023be:	687b      	ldr	r3, [r7, #4]
 80023c0:	0019      	movs	r1, r3
 80023c2:	2012      	movs	r0, #18
 80023c4:	f7ff fe03 	bl	8001fce <send_cmd>
 80023c8:	1e03      	subs	r3, r0, #0
 80023ca:	d11a      	bne.n	8002402 <USER_SPI_read+0xba>
			do {
				if (!rcvr_datablock(buff, 512))
 80023cc:	2380      	movs	r3, #128	; 0x80
 80023ce:	009a      	lsls	r2, r3, #2
 80023d0:	68bb      	ldr	r3, [r7, #8]
 80023d2:	0011      	movs	r1, r2
 80023d4:	0018      	movs	r0, r3
 80023d6:	f7ff fd91 	bl	8001efc <rcvr_datablock>
 80023da:	1e03      	subs	r3, r0, #0
 80023dc:	d00c      	beq.n	80023f8 <USER_SPI_read+0xb0>
					break;
				buff += 512;
 80023de:	68bb      	ldr	r3, [r7, #8]
 80023e0:	2280      	movs	r2, #128	; 0x80
 80023e2:	0092      	lsls	r2, r2, #2
 80023e4:	4694      	mov	ip, r2
 80023e6:	4463      	add	r3, ip
 80023e8:	60bb      	str	r3, [r7, #8]
			} while (--count);
 80023ea:	683b      	ldr	r3, [r7, #0]
 80023ec:	3b01      	subs	r3, #1
 80023ee:	603b      	str	r3, [r7, #0]
 80023f0:	683b      	ldr	r3, [r7, #0]
 80023f2:	2b00      	cmp	r3, #0
 80023f4:	d1ea      	bne.n	80023cc <USER_SPI_read+0x84>
 80023f6:	e000      	b.n	80023fa <USER_SPI_read+0xb2>
					break;
 80023f8:	46c0      	nop			; (mov r8, r8)
			send_cmd(CMD12, 0); /* STOP_TRANSMISSION */
 80023fa:	2100      	movs	r1, #0
 80023fc:	200c      	movs	r0, #12
 80023fe:	f7ff fde6 	bl	8001fce <send_cmd>
		}
	}
	despiselect();
 8002402:	f7ff fd4f 	bl	8001ea4 <despiselect>

	return count ? RES_ERROR : RES_OK; /* Return result */
 8002406:	683b      	ldr	r3, [r7, #0]
 8002408:	1e5a      	subs	r2, r3, #1
 800240a:	4193      	sbcs	r3, r2
 800240c:	b2db      	uxtb	r3, r3
}
 800240e:	0018      	movs	r0, r3
 8002410:	46bd      	mov	sp, r7
 8002412:	b004      	add	sp, #16
 8002414:	bd80      	pop	{r7, pc}
 8002416:	46c0      	nop			; (mov r8, r8)
 8002418:	20000020 	.word	0x20000020
 800241c:	20000158 	.word	0x20000158

08002420 <USER_SPI_write>:
#if _USE_WRITE
inline DRESULT USER_SPI_write(BYTE drv, /* Physical drive number (0) */
const BYTE *buff, /* Ponter to the data to write */
DWORD sector, /* Start sector number (LBA) */
UINT count /* Number of sectors to write (1..128) */
) {
 8002420:	b580      	push	{r7, lr}
 8002422:	b084      	sub	sp, #16
 8002424:	af00      	add	r7, sp, #0
 8002426:	60b9      	str	r1, [r7, #8]
 8002428:	607a      	str	r2, [r7, #4]
 800242a:	603b      	str	r3, [r7, #0]
 800242c:	210f      	movs	r1, #15
 800242e:	187b      	adds	r3, r7, r1
 8002430:	1c02      	adds	r2, r0, #0
 8002432:	701a      	strb	r2, [r3, #0]
	if (drv || !count)
 8002434:	187b      	adds	r3, r7, r1
 8002436:	781b      	ldrb	r3, [r3, #0]
 8002438:	2b00      	cmp	r3, #0
 800243a:	d102      	bne.n	8002442 <USER_SPI_write+0x22>
 800243c:	683b      	ldr	r3, [r7, #0]
 800243e:	2b00      	cmp	r3, #0
 8002440:	d101      	bne.n	8002446 <USER_SPI_write+0x26>
		return RES_PARERR; /* Check parameter */
 8002442:	2304      	movs	r3, #4
 8002444:	e063      	b.n	800250e <USER_SPI_write+0xee>
	if (Stat & STA_NOINIT)
 8002446:	4b34      	ldr	r3, [pc, #208]	; (8002518 <USER_SPI_write+0xf8>)
 8002448:	781b      	ldrb	r3, [r3, #0]
 800244a:	b2db      	uxtb	r3, r3
 800244c:	001a      	movs	r2, r3
 800244e:	2301      	movs	r3, #1
 8002450:	4013      	ands	r3, r2
 8002452:	d001      	beq.n	8002458 <USER_SPI_write+0x38>
		return RES_NOTRDY; /* Check drive status */
 8002454:	2303      	movs	r3, #3
 8002456:	e05a      	b.n	800250e <USER_SPI_write+0xee>
	if (Stat & STA_PROTECT)
 8002458:	4b2f      	ldr	r3, [pc, #188]	; (8002518 <USER_SPI_write+0xf8>)
 800245a:	781b      	ldrb	r3, [r3, #0]
 800245c:	b2db      	uxtb	r3, r3
 800245e:	001a      	movs	r2, r3
 8002460:	2304      	movs	r3, #4
 8002462:	4013      	ands	r3, r2
 8002464:	d001      	beq.n	800246a <USER_SPI_write+0x4a>
		return RES_WRPRT; /* Check write protect */
 8002466:	2302      	movs	r3, #2
 8002468:	e051      	b.n	800250e <USER_SPI_write+0xee>

	if (!(CardType & CT_BLOCK))
 800246a:	4b2c      	ldr	r3, [pc, #176]	; (800251c <USER_SPI_write+0xfc>)
 800246c:	781b      	ldrb	r3, [r3, #0]
 800246e:	001a      	movs	r2, r3
 8002470:	2308      	movs	r3, #8
 8002472:	4013      	ands	r3, r2
 8002474:	d102      	bne.n	800247c <USER_SPI_write+0x5c>
		sector *= 512; /* LBA ==> BA conversion (byte addressing cards) */
 8002476:	687b      	ldr	r3, [r7, #4]
 8002478:	025b      	lsls	r3, r3, #9
 800247a:	607b      	str	r3, [r7, #4]

	if (count == 1) { /* Single sector write */
 800247c:	683b      	ldr	r3, [r7, #0]
 800247e:	2b01      	cmp	r3, #1
 8002480:	d110      	bne.n	80024a4 <USER_SPI_write+0x84>
		if ((send_cmd(CMD24, sector) == 0) /* WRITE_BLOCK */
 8002482:	687b      	ldr	r3, [r7, #4]
 8002484:	0019      	movs	r1, r3
 8002486:	2018      	movs	r0, #24
 8002488:	f7ff fda1 	bl	8001fce <send_cmd>
 800248c:	1e03      	subs	r3, r0, #0
 800248e:	d138      	bne.n	8002502 <USER_SPI_write+0xe2>
		&& xmit_datablock(buff, 0xFE)) {
 8002490:	68bb      	ldr	r3, [r7, #8]
 8002492:	21fe      	movs	r1, #254	; 0xfe
 8002494:	0018      	movs	r0, r3
 8002496:	f7ff fd60 	bl	8001f5a <xmit_datablock>
 800249a:	1e03      	subs	r3, r0, #0
 800249c:	d031      	beq.n	8002502 <USER_SPI_write+0xe2>
			count = 0;
 800249e:	2300      	movs	r3, #0
 80024a0:	603b      	str	r3, [r7, #0]
 80024a2:	e02e      	b.n	8002502 <USER_SPI_write+0xe2>
		}
	} else { /* Multiple sector write */
		if (CardType & CT_SDC)
 80024a4:	4b1d      	ldr	r3, [pc, #116]	; (800251c <USER_SPI_write+0xfc>)
 80024a6:	781b      	ldrb	r3, [r3, #0]
 80024a8:	001a      	movs	r2, r3
 80024aa:	2306      	movs	r3, #6
 80024ac:	4013      	ands	r3, r2
 80024ae:	d004      	beq.n	80024ba <USER_SPI_write+0x9a>
			send_cmd(ACMD23, count); /* Predefine number of sectors */
 80024b0:	683b      	ldr	r3, [r7, #0]
 80024b2:	0019      	movs	r1, r3
 80024b4:	2097      	movs	r0, #151	; 0x97
 80024b6:	f7ff fd8a 	bl	8001fce <send_cmd>
		if (send_cmd(CMD25, sector) == 0) { /* WRITE_MULTIPLE_BLOCK */
 80024ba:	687b      	ldr	r3, [r7, #4]
 80024bc:	0019      	movs	r1, r3
 80024be:	2019      	movs	r0, #25
 80024c0:	f7ff fd85 	bl	8001fce <send_cmd>
 80024c4:	1e03      	subs	r3, r0, #0
 80024c6:	d11c      	bne.n	8002502 <USER_SPI_write+0xe2>
			do {
				if (!xmit_datablock(buff, 0xFC))
 80024c8:	68bb      	ldr	r3, [r7, #8]
 80024ca:	21fc      	movs	r1, #252	; 0xfc
 80024cc:	0018      	movs	r0, r3
 80024ce:	f7ff fd44 	bl	8001f5a <xmit_datablock>
 80024d2:	1e03      	subs	r3, r0, #0
 80024d4:	d00c      	beq.n	80024f0 <USER_SPI_write+0xd0>
					break;
				buff += 512;
 80024d6:	68bb      	ldr	r3, [r7, #8]
 80024d8:	2280      	movs	r2, #128	; 0x80
 80024da:	0092      	lsls	r2, r2, #2
 80024dc:	4694      	mov	ip, r2
 80024de:	4463      	add	r3, ip
 80024e0:	60bb      	str	r3, [r7, #8]
			} while (--count);
 80024e2:	683b      	ldr	r3, [r7, #0]
 80024e4:	3b01      	subs	r3, #1
 80024e6:	603b      	str	r3, [r7, #0]
 80024e8:	683b      	ldr	r3, [r7, #0]
 80024ea:	2b00      	cmp	r3, #0
 80024ec:	d1ec      	bne.n	80024c8 <USER_SPI_write+0xa8>
 80024ee:	e000      	b.n	80024f2 <USER_SPI_write+0xd2>
					break;
 80024f0:	46c0      	nop			; (mov r8, r8)
			if (!xmit_datablock(0, 0xFD))
 80024f2:	21fd      	movs	r1, #253	; 0xfd
 80024f4:	2000      	movs	r0, #0
 80024f6:	f7ff fd30 	bl	8001f5a <xmit_datablock>
 80024fa:	1e03      	subs	r3, r0, #0
 80024fc:	d101      	bne.n	8002502 <USER_SPI_write+0xe2>
				count = 1; /* STOP_TRAN token */
 80024fe:	2301      	movs	r3, #1
 8002500:	603b      	str	r3, [r7, #0]
		}
	}
	despiselect();
 8002502:	f7ff fccf 	bl	8001ea4 <despiselect>

	return count ? RES_ERROR : RES_OK; /* Return result */
 8002506:	683b      	ldr	r3, [r7, #0]
 8002508:	1e5a      	subs	r2, r3, #1
 800250a:	4193      	sbcs	r3, r2
 800250c:	b2db      	uxtb	r3, r3
}
 800250e:	0018      	movs	r0, r3
 8002510:	46bd      	mov	sp, r7
 8002512:	b004      	add	sp, #16
 8002514:	bd80      	pop	{r7, pc}
 8002516:	46c0      	nop			; (mov r8, r8)
 8002518:	20000020 	.word	0x20000020
 800251c:	20000158 	.word	0x20000158

08002520 <USER_SPI_ioctl>:

#if _USE_IOCTL
inline DRESULT USER_SPI_ioctl(BYTE drv, /* Physical drive number (0) */
BYTE cmd, /* Control command code */
void *buff /* Pointer to the conrtol data */
) {
 8002520:	b590      	push	{r4, r7, lr}
 8002522:	b08d      	sub	sp, #52	; 0x34
 8002524:	af00      	add	r7, sp, #0
 8002526:	603a      	str	r2, [r7, #0]
 8002528:	1dfb      	adds	r3, r7, #7
 800252a:	1c02      	adds	r2, r0, #0
 800252c:	701a      	strb	r2, [r3, #0]
 800252e:	1dbb      	adds	r3, r7, #6
 8002530:	1c0a      	adds	r2, r1, #0
 8002532:	701a      	strb	r2, [r3, #0]
	DRESULT res;
	BYTE n, csd[16];
	DWORD *dp, st, ed, csize;

	if (drv)
 8002534:	1dfb      	adds	r3, r7, #7
 8002536:	781b      	ldrb	r3, [r3, #0]
 8002538:	2b00      	cmp	r3, #0
 800253a:	d001      	beq.n	8002540 <USER_SPI_ioctl+0x20>
		return RES_PARERR; /* Check parameter */
 800253c:	2304      	movs	r3, #4
 800253e:	e178      	b.n	8002832 <USER_SPI_ioctl+0x312>
	if (Stat & STA_NOINIT)
 8002540:	4bbe      	ldr	r3, [pc, #760]	; (800283c <USER_SPI_ioctl+0x31c>)
 8002542:	781b      	ldrb	r3, [r3, #0]
 8002544:	b2db      	uxtb	r3, r3
 8002546:	001a      	movs	r2, r3
 8002548:	2301      	movs	r3, #1
 800254a:	4013      	ands	r3, r2
 800254c:	d001      	beq.n	8002552 <USER_SPI_ioctl+0x32>
		return RES_NOTRDY; /* Check if drive is ready */
 800254e:	2303      	movs	r3, #3
 8002550:	e16f      	b.n	8002832 <USER_SPI_ioctl+0x312>

	res = RES_ERROR;
 8002552:	232f      	movs	r3, #47	; 0x2f
 8002554:	18fb      	adds	r3, r7, r3
 8002556:	2201      	movs	r2, #1
 8002558:	701a      	strb	r2, [r3, #0]

	switch (cmd) {
 800255a:	1dbb      	adds	r3, r7, #6
 800255c:	781b      	ldrb	r3, [r3, #0]
 800255e:	2b04      	cmp	r3, #4
 8002560:	d100      	bne.n	8002564 <USER_SPI_ioctl+0x44>
 8002562:	e100      	b.n	8002766 <USER_SPI_ioctl+0x246>
 8002564:	dd00      	ble.n	8002568 <USER_SPI_ioctl+0x48>
 8002566:	e14d      	b.n	8002804 <USER_SPI_ioctl+0x2e4>
 8002568:	2b03      	cmp	r3, #3
 800256a:	d100      	bne.n	800256e <USER_SPI_ioctl+0x4e>
 800256c:	e074      	b.n	8002658 <USER_SPI_ioctl+0x138>
 800256e:	dd00      	ble.n	8002572 <USER_SPI_ioctl+0x52>
 8002570:	e148      	b.n	8002804 <USER_SPI_ioctl+0x2e4>
 8002572:	2b00      	cmp	r3, #0
 8002574:	d002      	beq.n	800257c <USER_SPI_ioctl+0x5c>
 8002576:	2b01      	cmp	r3, #1
 8002578:	d00a      	beq.n	8002590 <USER_SPI_ioctl+0x70>
 800257a:	e143      	b.n	8002804 <USER_SPI_ioctl+0x2e4>
	case CTRL_SYNC: /* Wait for end of internal write process of the drive */
		if (spiselect())
 800257c:	f7ff fca2 	bl	8001ec4 <spiselect>
 8002580:	1e03      	subs	r3, r0, #0
 8002582:	d100      	bne.n	8002586 <USER_SPI_ioctl+0x66>
 8002584:	e143      	b.n	800280e <USER_SPI_ioctl+0x2ee>
			res = RES_OK;
 8002586:	232f      	movs	r3, #47	; 0x2f
 8002588:	18fb      	adds	r3, r7, r3
 800258a:	2200      	movs	r2, #0
 800258c:	701a      	strb	r2, [r3, #0]
		break;
 800258e:	e13e      	b.n	800280e <USER_SPI_ioctl+0x2ee>

	case GET_SECTOR_COUNT: /* Get drive capacity in unit of sector (DWORD) */
		if ((send_cmd(CMD9, 0) == 0) && rcvr_datablock(csd, 16)) {
 8002590:	2100      	movs	r1, #0
 8002592:	2009      	movs	r0, #9
 8002594:	f7ff fd1b 	bl	8001fce <send_cmd>
 8002598:	1e03      	subs	r3, r0, #0
 800259a:	d000      	beq.n	800259e <USER_SPI_ioctl+0x7e>
 800259c:	e139      	b.n	8002812 <USER_SPI_ioctl+0x2f2>
 800259e:	240c      	movs	r4, #12
 80025a0:	193b      	adds	r3, r7, r4
 80025a2:	2110      	movs	r1, #16
 80025a4:	0018      	movs	r0, r3
 80025a6:	f7ff fca9 	bl	8001efc <rcvr_datablock>
 80025aa:	1e03      	subs	r3, r0, #0
 80025ac:	d100      	bne.n	80025b0 <USER_SPI_ioctl+0x90>
 80025ae:	e130      	b.n	8002812 <USER_SPI_ioctl+0x2f2>
			if ((csd[0] >> 6) == 1) { /* SDC ver 2.00 */
 80025b0:	0020      	movs	r0, r4
 80025b2:	183b      	adds	r3, r7, r0
 80025b4:	781b      	ldrb	r3, [r3, #0]
 80025b6:	099b      	lsrs	r3, r3, #6
 80025b8:	b2db      	uxtb	r3, r3
 80025ba:	2b01      	cmp	r3, #1
 80025bc:	d115      	bne.n	80025ea <USER_SPI_ioctl+0xca>
				csize = csd[9] + ((WORD) csd[8] << 8)
 80025be:	183b      	adds	r3, r7, r0
 80025c0:	7a5b      	ldrb	r3, [r3, #9]
 80025c2:	001a      	movs	r2, r3
 80025c4:	183b      	adds	r3, r7, r0
 80025c6:	7a1b      	ldrb	r3, [r3, #8]
 80025c8:	021b      	lsls	r3, r3, #8
 80025ca:	18d3      	adds	r3, r2, r3
 80025cc:	0019      	movs	r1, r3
						+ ((DWORD) (csd[7] & 63) << 16) + 1;
 80025ce:	183b      	adds	r3, r7, r0
 80025d0:	79db      	ldrb	r3, [r3, #7]
 80025d2:	041a      	lsls	r2, r3, #16
 80025d4:	23fc      	movs	r3, #252	; 0xfc
 80025d6:	039b      	lsls	r3, r3, #14
 80025d8:	4013      	ands	r3, r2
 80025da:	18cb      	adds	r3, r1, r3
				csize = csd[9] + ((WORD) csd[8] << 8)
 80025dc:	3301      	adds	r3, #1
 80025de:	61fb      	str	r3, [r7, #28]
				*(DWORD*) buff = csize << 10;
 80025e0:	69fb      	ldr	r3, [r7, #28]
 80025e2:	029a      	lsls	r2, r3, #10
 80025e4:	683b      	ldr	r3, [r7, #0]
 80025e6:	601a      	str	r2, [r3, #0]
 80025e8:	e031      	b.n	800264e <USER_SPI_ioctl+0x12e>
			} else { /* SDC ver 1.XX or MMC ver 3 */
				n = (csd[5] & 15) + ((csd[10] & 128) >> 7) + ((csd[9] & 3) << 1)
 80025ea:	200c      	movs	r0, #12
 80025ec:	183b      	adds	r3, r7, r0
 80025ee:	795b      	ldrb	r3, [r3, #5]
 80025f0:	220f      	movs	r2, #15
 80025f2:	4013      	ands	r3, r2
 80025f4:	b2da      	uxtb	r2, r3
 80025f6:	183b      	adds	r3, r7, r0
 80025f8:	7a9b      	ldrb	r3, [r3, #10]
 80025fa:	09db      	lsrs	r3, r3, #7
 80025fc:	b2db      	uxtb	r3, r3
 80025fe:	18d3      	adds	r3, r2, r3
 8002600:	b2da      	uxtb	r2, r3
 8002602:	183b      	adds	r3, r7, r0
 8002604:	7a5b      	ldrb	r3, [r3, #9]
 8002606:	005b      	lsls	r3, r3, #1
 8002608:	b2db      	uxtb	r3, r3
 800260a:	2106      	movs	r1, #6
 800260c:	400b      	ands	r3, r1
 800260e:	b2db      	uxtb	r3, r3
 8002610:	18d3      	adds	r3, r2, r3
 8002612:	b2da      	uxtb	r2, r3
 8002614:	242e      	movs	r4, #46	; 0x2e
 8002616:	193b      	adds	r3, r7, r4
 8002618:	3202      	adds	r2, #2
 800261a:	701a      	strb	r2, [r3, #0]
						+ 2;
				csize = (csd[8] >> 6) + ((WORD) csd[7] << 2)
 800261c:	183b      	adds	r3, r7, r0
 800261e:	7a1b      	ldrb	r3, [r3, #8]
 8002620:	099b      	lsrs	r3, r3, #6
 8002622:	b2db      	uxtb	r3, r3
 8002624:	001a      	movs	r2, r3
 8002626:	183b      	adds	r3, r7, r0
 8002628:	79db      	ldrb	r3, [r3, #7]
 800262a:	009b      	lsls	r3, r3, #2
 800262c:	18d2      	adds	r2, r2, r3
						+ ((WORD) (csd[6] & 3) << 10) + 1;
 800262e:	183b      	adds	r3, r7, r0
 8002630:	799b      	ldrb	r3, [r3, #6]
 8002632:	0299      	lsls	r1, r3, #10
 8002634:	23c0      	movs	r3, #192	; 0xc0
 8002636:	011b      	lsls	r3, r3, #4
 8002638:	400b      	ands	r3, r1
 800263a:	18d3      	adds	r3, r2, r3
 800263c:	3301      	adds	r3, #1
				csize = (csd[8] >> 6) + ((WORD) csd[7] << 2)
 800263e:	61fb      	str	r3, [r7, #28]
				*(DWORD*) buff = csize << (n - 9);
 8002640:	193b      	adds	r3, r7, r4
 8002642:	781b      	ldrb	r3, [r3, #0]
 8002644:	3b09      	subs	r3, #9
 8002646:	69fa      	ldr	r2, [r7, #28]
 8002648:	409a      	lsls	r2, r3
 800264a:	683b      	ldr	r3, [r7, #0]
 800264c:	601a      	str	r2, [r3, #0]
			}
			res = RES_OK;
 800264e:	232f      	movs	r3, #47	; 0x2f
 8002650:	18fb      	adds	r3, r7, r3
 8002652:	2200      	movs	r2, #0
 8002654:	701a      	strb	r2, [r3, #0]
		}
		break;
 8002656:	e0dc      	b.n	8002812 <USER_SPI_ioctl+0x2f2>

	case GET_BLOCK_SIZE: /* Get erase block size in unit of sector (DWORD) */
		if (CardType & CT_SD2) { /* SDC ver 2.00 */
 8002658:	4b79      	ldr	r3, [pc, #484]	; (8002840 <USER_SPI_ioctl+0x320>)
 800265a:	781b      	ldrb	r3, [r3, #0]
 800265c:	001a      	movs	r2, r3
 800265e:	2304      	movs	r3, #4
 8002660:	4013      	ands	r3, r2
 8002662:	d035      	beq.n	80026d0 <USER_SPI_ioctl+0x1b0>
			if (send_cmd(ACMD13, 0) == 0) { /* Read SD status */
 8002664:	2100      	movs	r1, #0
 8002666:	208d      	movs	r0, #141	; 0x8d
 8002668:	f7ff fcb1 	bl	8001fce <send_cmd>
 800266c:	1e03      	subs	r3, r0, #0
 800266e:	d000      	beq.n	8002672 <USER_SPI_ioctl+0x152>
 8002670:	e0d1      	b.n	8002816 <USER_SPI_ioctl+0x2f6>
				xchg_spi(0xFF);
 8002672:	20ff      	movs	r0, #255	; 0xff
 8002674:	f7ff fb9e 	bl	8001db4 <xchg_spi>
				if (rcvr_datablock(csd, 16)) { /* Read partial block */
 8002678:	230c      	movs	r3, #12
 800267a:	18fb      	adds	r3, r7, r3
 800267c:	2110      	movs	r1, #16
 800267e:	0018      	movs	r0, r3
 8002680:	f7ff fc3c 	bl	8001efc <rcvr_datablock>
 8002684:	1e03      	subs	r3, r0, #0
 8002686:	d100      	bne.n	800268a <USER_SPI_ioctl+0x16a>
 8002688:	e0c5      	b.n	8002816 <USER_SPI_ioctl+0x2f6>
					for (n = 64 - 16; n; n--)
 800268a:	232e      	movs	r3, #46	; 0x2e
 800268c:	18fb      	adds	r3, r7, r3
 800268e:	2230      	movs	r2, #48	; 0x30
 8002690:	701a      	strb	r2, [r3, #0]
 8002692:	e008      	b.n	80026a6 <USER_SPI_ioctl+0x186>
						xchg_spi(0xFF); /* Purge trailing data */
 8002694:	20ff      	movs	r0, #255	; 0xff
 8002696:	f7ff fb8d 	bl	8001db4 <xchg_spi>
					for (n = 64 - 16; n; n--)
 800269a:	212e      	movs	r1, #46	; 0x2e
 800269c:	187b      	adds	r3, r7, r1
 800269e:	781a      	ldrb	r2, [r3, #0]
 80026a0:	187b      	adds	r3, r7, r1
 80026a2:	3a01      	subs	r2, #1
 80026a4:	701a      	strb	r2, [r3, #0]
 80026a6:	232e      	movs	r3, #46	; 0x2e
 80026a8:	18fb      	adds	r3, r7, r3
 80026aa:	781b      	ldrb	r3, [r3, #0]
 80026ac:	2b00      	cmp	r3, #0
 80026ae:	d1f1      	bne.n	8002694 <USER_SPI_ioctl+0x174>
					*(DWORD*) buff = 16UL << (csd[10] >> 4);
 80026b0:	230c      	movs	r3, #12
 80026b2:	18fb      	adds	r3, r7, r3
 80026b4:	7a9b      	ldrb	r3, [r3, #10]
 80026b6:	091b      	lsrs	r3, r3, #4
 80026b8:	b2db      	uxtb	r3, r3
 80026ba:	001a      	movs	r2, r3
 80026bc:	2310      	movs	r3, #16
 80026be:	4093      	lsls	r3, r2
 80026c0:	001a      	movs	r2, r3
 80026c2:	683b      	ldr	r3, [r7, #0]
 80026c4:	601a      	str	r2, [r3, #0]
					res = RES_OK;
 80026c6:	232f      	movs	r3, #47	; 0x2f
 80026c8:	18fb      	adds	r3, r7, r3
 80026ca:	2200      	movs	r2, #0
 80026cc:	701a      	strb	r2, [r3, #0]
											+ ((csd[11] & 224) >> 5) + 1);
				}
				res = RES_OK;
			}
		}
		break;
 80026ce:	e0a2      	b.n	8002816 <USER_SPI_ioctl+0x2f6>
			if ((send_cmd(CMD9, 0) == 0) && rcvr_datablock(csd, 16)) { /* Read CSD */
 80026d0:	2100      	movs	r1, #0
 80026d2:	2009      	movs	r0, #9
 80026d4:	f7ff fc7b 	bl	8001fce <send_cmd>
 80026d8:	1e03      	subs	r3, r0, #0
 80026da:	d000      	beq.n	80026de <USER_SPI_ioctl+0x1be>
 80026dc:	e09b      	b.n	8002816 <USER_SPI_ioctl+0x2f6>
 80026de:	240c      	movs	r4, #12
 80026e0:	193b      	adds	r3, r7, r4
 80026e2:	2110      	movs	r1, #16
 80026e4:	0018      	movs	r0, r3
 80026e6:	f7ff fc09 	bl	8001efc <rcvr_datablock>
 80026ea:	1e03      	subs	r3, r0, #0
 80026ec:	d100      	bne.n	80026f0 <USER_SPI_ioctl+0x1d0>
 80026ee:	e092      	b.n	8002816 <USER_SPI_ioctl+0x2f6>
				if (CardType & CT_SD1) { /* SDC ver 1.XX */
 80026f0:	4b53      	ldr	r3, [pc, #332]	; (8002840 <USER_SPI_ioctl+0x320>)
 80026f2:	781b      	ldrb	r3, [r3, #0]
 80026f4:	001a      	movs	r2, r3
 80026f6:	2302      	movs	r3, #2
 80026f8:	4013      	ands	r3, r2
 80026fa:	d016      	beq.n	800272a <USER_SPI_ioctl+0x20a>
					*(DWORD*) buff = (((csd[10] & 63) << 1)
 80026fc:	0021      	movs	r1, r4
 80026fe:	187b      	adds	r3, r7, r1
 8002700:	7a9b      	ldrb	r3, [r3, #10]
 8002702:	005b      	lsls	r3, r3, #1
 8002704:	227e      	movs	r2, #126	; 0x7e
 8002706:	4013      	ands	r3, r2
							+ ((WORD) (csd[11] & 128) >> 7) + 1)
 8002708:	187a      	adds	r2, r7, r1
 800270a:	7ad2      	ldrb	r2, [r2, #11]
 800270c:	09d2      	lsrs	r2, r2, #7
 800270e:	b2d2      	uxtb	r2, r2
 8002710:	189b      	adds	r3, r3, r2
 8002712:	1c5a      	adds	r2, r3, #1
							<< ((csd[13] >> 6) - 1);
 8002714:	187b      	adds	r3, r7, r1
 8002716:	7b5b      	ldrb	r3, [r3, #13]
 8002718:	099b      	lsrs	r3, r3, #6
 800271a:	b2db      	uxtb	r3, r3
 800271c:	3b01      	subs	r3, #1
 800271e:	409a      	lsls	r2, r3
 8002720:	0013      	movs	r3, r2
 8002722:	001a      	movs	r2, r3
					*(DWORD*) buff = (((csd[10] & 63) << 1)
 8002724:	683b      	ldr	r3, [r7, #0]
 8002726:	601a      	str	r2, [r3, #0]
 8002728:	e018      	b.n	800275c <USER_SPI_ioctl+0x23c>
							((WORD) ((csd[10] & 124) >> 2) + 1)
 800272a:	210c      	movs	r1, #12
 800272c:	187b      	adds	r3, r7, r1
 800272e:	7a9b      	ldrb	r3, [r3, #10]
 8002730:	109b      	asrs	r3, r3, #2
 8002732:	b29b      	uxth	r3, r3
 8002734:	001a      	movs	r2, r3
 8002736:	231f      	movs	r3, #31
 8002738:	4013      	ands	r3, r2
 800273a:	3301      	adds	r3, #1
									* (((csd[11] & 3) << 3)
 800273c:	0008      	movs	r0, r1
 800273e:	187a      	adds	r2, r7, r1
 8002740:	7ad2      	ldrb	r2, [r2, #11]
 8002742:	00d2      	lsls	r2, r2, #3
 8002744:	2118      	movs	r1, #24
 8002746:	400a      	ands	r2, r1
											+ ((csd[11] & 224) >> 5) + 1);
 8002748:	1839      	adds	r1, r7, r0
 800274a:	7ac9      	ldrb	r1, [r1, #11]
 800274c:	0949      	lsrs	r1, r1, #5
 800274e:	b2c9      	uxtb	r1, r1
 8002750:	1852      	adds	r2, r2, r1
 8002752:	3201      	adds	r2, #1
									* (((csd[11] & 3) << 3)
 8002754:	4353      	muls	r3, r2
 8002756:	001a      	movs	r2, r3
					*(DWORD*) buff =
 8002758:	683b      	ldr	r3, [r7, #0]
 800275a:	601a      	str	r2, [r3, #0]
				res = RES_OK;
 800275c:	232f      	movs	r3, #47	; 0x2f
 800275e:	18fb      	adds	r3, r7, r3
 8002760:	2200      	movs	r2, #0
 8002762:	701a      	strb	r2, [r3, #0]
		break;
 8002764:	e057      	b.n	8002816 <USER_SPI_ioctl+0x2f6>

	case CTRL_TRIM: /* Erase a block of sectors (used when _USE_ERASE == 1) */
		if (!(CardType & CT_SDC))
 8002766:	4b36      	ldr	r3, [pc, #216]	; (8002840 <USER_SPI_ioctl+0x320>)
 8002768:	781b      	ldrb	r3, [r3, #0]
 800276a:	001a      	movs	r2, r3
 800276c:	2306      	movs	r3, #6
 800276e:	4013      	ands	r3, r2
 8002770:	d053      	beq.n	800281a <USER_SPI_ioctl+0x2fa>
			break; /* Check if the card is SDC */
		if (USER_SPI_ioctl(drv, MMC_GET_CSD, csd))
 8002772:	240c      	movs	r4, #12
 8002774:	193a      	adds	r2, r7, r4
 8002776:	1dfb      	adds	r3, r7, #7
 8002778:	781b      	ldrb	r3, [r3, #0]
 800277a:	210b      	movs	r1, #11
 800277c:	0018      	movs	r0, r3
 800277e:	f7ff fecf 	bl	8002520 <USER_SPI_ioctl>
 8002782:	1e03      	subs	r3, r0, #0
 8002784:	d14b      	bne.n	800281e <USER_SPI_ioctl+0x2fe>
			break; /* Get CSD */
		if (!(csd[0] >> 6) && !(csd[10] & 0x40))
 8002786:	193b      	adds	r3, r7, r4
 8002788:	781b      	ldrb	r3, [r3, #0]
 800278a:	099b      	lsrs	r3, r3, #6
 800278c:	b2db      	uxtb	r3, r3
 800278e:	2b00      	cmp	r3, #0
 8002790:	d105      	bne.n	800279e <USER_SPI_ioctl+0x27e>
 8002792:	193b      	adds	r3, r7, r4
 8002794:	7a9b      	ldrb	r3, [r3, #10]
 8002796:	001a      	movs	r2, r3
 8002798:	2340      	movs	r3, #64	; 0x40
 800279a:	4013      	ands	r3, r2
 800279c:	d041      	beq.n	8002822 <USER_SPI_ioctl+0x302>
			break; /* Check if sector erase can be applied to the card */
		dp = buff;
 800279e:	683b      	ldr	r3, [r7, #0]
 80027a0:	623b      	str	r3, [r7, #32]
		st = dp[0];
 80027a2:	6a3b      	ldr	r3, [r7, #32]
 80027a4:	681b      	ldr	r3, [r3, #0]
 80027a6:	62bb      	str	r3, [r7, #40]	; 0x28
		ed = dp[1]; /* Load sector block */
 80027a8:	6a3b      	ldr	r3, [r7, #32]
 80027aa:	685b      	ldr	r3, [r3, #4]
 80027ac:	627b      	str	r3, [r7, #36]	; 0x24
		if (!(CardType & CT_BLOCK)) {
 80027ae:	4b24      	ldr	r3, [pc, #144]	; (8002840 <USER_SPI_ioctl+0x320>)
 80027b0:	781b      	ldrb	r3, [r3, #0]
 80027b2:	001a      	movs	r2, r3
 80027b4:	2308      	movs	r3, #8
 80027b6:	4013      	ands	r3, r2
 80027b8:	d105      	bne.n	80027c6 <USER_SPI_ioctl+0x2a6>
			st *= 512;
 80027ba:	6abb      	ldr	r3, [r7, #40]	; 0x28
 80027bc:	025b      	lsls	r3, r3, #9
 80027be:	62bb      	str	r3, [r7, #40]	; 0x28
			ed *= 512;
 80027c0:	6a7b      	ldr	r3, [r7, #36]	; 0x24
 80027c2:	025b      	lsls	r3, r3, #9
 80027c4:	627b      	str	r3, [r7, #36]	; 0x24
		}
		if (send_cmd(CMD32, st) == 0 && send_cmd(CMD33, ed) == 0
 80027c6:	6abb      	ldr	r3, [r7, #40]	; 0x28
 80027c8:	0019      	movs	r1, r3
 80027ca:	2020      	movs	r0, #32
 80027cc:	f7ff fbff 	bl	8001fce <send_cmd>
 80027d0:	1e03      	subs	r3, r0, #0
 80027d2:	d128      	bne.n	8002826 <USER_SPI_ioctl+0x306>
 80027d4:	6a7b      	ldr	r3, [r7, #36]	; 0x24
 80027d6:	0019      	movs	r1, r3
 80027d8:	2021      	movs	r0, #33	; 0x21
 80027da:	f7ff fbf8 	bl	8001fce <send_cmd>
 80027de:	1e03      	subs	r3, r0, #0
 80027e0:	d121      	bne.n	8002826 <USER_SPI_ioctl+0x306>
				&& send_cmd(CMD38, 0) == 0 && wait_ready(30000)) { /* Erase sector block */
 80027e2:	2100      	movs	r1, #0
 80027e4:	2026      	movs	r0, #38	; 0x26
 80027e6:	f7ff fbf2 	bl	8001fce <send_cmd>
 80027ea:	1e03      	subs	r3, r0, #0
 80027ec:	d11b      	bne.n	8002826 <USER_SPI_ioctl+0x306>
 80027ee:	4b15      	ldr	r3, [pc, #84]	; (8002844 <USER_SPI_ioctl+0x324>)
 80027f0:	0018      	movs	r0, r3
 80027f2:	f7ff fb2e 	bl	8001e52 <wait_ready>
 80027f6:	1e03      	subs	r3, r0, #0
 80027f8:	d015      	beq.n	8002826 <USER_SPI_ioctl+0x306>
			res = RES_OK; /* FatFs does not check result of this command */
 80027fa:	232f      	movs	r3, #47	; 0x2f
 80027fc:	18fb      	adds	r3, r7, r3
 80027fe:	2200      	movs	r2, #0
 8002800:	701a      	strb	r2, [r3, #0]
		}
		break;
 8002802:	e010      	b.n	8002826 <USER_SPI_ioctl+0x306>

	default:
		res = RES_PARERR;
 8002804:	232f      	movs	r3, #47	; 0x2f
 8002806:	18fb      	adds	r3, r7, r3
 8002808:	2204      	movs	r2, #4
 800280a:	701a      	strb	r2, [r3, #0]
 800280c:	e00c      	b.n	8002828 <USER_SPI_ioctl+0x308>
		break;
 800280e:	46c0      	nop			; (mov r8, r8)
 8002810:	e00a      	b.n	8002828 <USER_SPI_ioctl+0x308>
		break;
 8002812:	46c0      	nop			; (mov r8, r8)
 8002814:	e008      	b.n	8002828 <USER_SPI_ioctl+0x308>
		break;
 8002816:	46c0      	nop			; (mov r8, r8)
 8002818:	e006      	b.n	8002828 <USER_SPI_ioctl+0x308>
			break; /* Check if the card is SDC */
 800281a:	46c0      	nop			; (mov r8, r8)
 800281c:	e004      	b.n	8002828 <USER_SPI_ioctl+0x308>
			break; /* Get CSD */
 800281e:	46c0      	nop			; (mov r8, r8)
 8002820:	e002      	b.n	8002828 <USER_SPI_ioctl+0x308>
			break; /* Check if sector erase can be applied to the card */
 8002822:	46c0      	nop			; (mov r8, r8)
 8002824:	e000      	b.n	8002828 <USER_SPI_ioctl+0x308>
		break;
 8002826:	46c0      	nop			; (mov r8, r8)
	}

	despiselect();
 8002828:	f7ff fb3c 	bl	8001ea4 <despiselect>

	return res;
 800282c:	232f      	movs	r3, #47	; 0x2f
 800282e:	18fb      	adds	r3, r7, r3
 8002830:	781b      	ldrb	r3, [r3, #0]
}
 8002832:	0018      	movs	r0, r3
 8002834:	46bd      	mov	sp, r7
 8002836:	b00d      	add	sp, #52	; 0x34
 8002838:	bd90      	pop	{r4, r7, pc}
 800283a:	46c0      	nop			; (mov r8, r8)
 800283c:	20000020 	.word	0x20000020
 8002840:	20000158 	.word	0x20000158
 8002844:	00007530 	.word	0x00007530

08002848 <gpio_clk_en>:
		uint16_t out_max) {
	return (((x - in_min) * (out_max - out_min)) / ((in_max - in_min) + out_min));
}

/**********************Enable clock Function*************************************/
void gpio_clk_en(GPIO_TypeDef *port) {
 8002848:	b580      	push	{r7, lr}
 800284a:	b082      	sub	sp, #8
 800284c:	af00      	add	r7, sp, #0
 800284e:	6078      	str	r0, [r7, #4]
	if (port == GPIOA) {
 8002850:	687a      	ldr	r2, [r7, #4]
 8002852:	2390      	movs	r3, #144	; 0x90
 8002854:	05db      	lsls	r3, r3, #23
 8002856:	429a      	cmp	r2, r3
 8002858:	d107      	bne.n	800286a <gpio_clk_en+0x22>
		GPIOA_CLK_EN;
 800285a:	4b1b      	ldr	r3, [pc, #108]	; (80028c8 <gpio_clk_en+0x80>)
 800285c:	695a      	ldr	r2, [r3, #20]
 800285e:	4b1a      	ldr	r3, [pc, #104]	; (80028c8 <gpio_clk_en+0x80>)
 8002860:	2180      	movs	r1, #128	; 0x80
 8002862:	0289      	lsls	r1, r1, #10
 8002864:	430a      	orrs	r2, r1
 8002866:	615a      	str	r2, [r3, #20]
	} else if (port == GPIOD) {
		GPIOD_CLK_EN;
	} else {
		GPIOF_CLK_EN;
	}
}
 8002868:	e02a      	b.n	80028c0 <gpio_clk_en+0x78>
	} else if (port == GPIOB) {
 800286a:	687b      	ldr	r3, [r7, #4]
 800286c:	4a17      	ldr	r2, [pc, #92]	; (80028cc <gpio_clk_en+0x84>)
 800286e:	4293      	cmp	r3, r2
 8002870:	d107      	bne.n	8002882 <gpio_clk_en+0x3a>
		GPIOB_CLK_EN;
 8002872:	4b15      	ldr	r3, [pc, #84]	; (80028c8 <gpio_clk_en+0x80>)
 8002874:	695a      	ldr	r2, [r3, #20]
 8002876:	4b14      	ldr	r3, [pc, #80]	; (80028c8 <gpio_clk_en+0x80>)
 8002878:	2180      	movs	r1, #128	; 0x80
 800287a:	02c9      	lsls	r1, r1, #11
 800287c:	430a      	orrs	r2, r1
 800287e:	615a      	str	r2, [r3, #20]
}
 8002880:	e01e      	b.n	80028c0 <gpio_clk_en+0x78>
	} else if (port == GPIOC) {
 8002882:	687b      	ldr	r3, [r7, #4]
 8002884:	4a12      	ldr	r2, [pc, #72]	; (80028d0 <gpio_clk_en+0x88>)
 8002886:	4293      	cmp	r3, r2
 8002888:	d107      	bne.n	800289a <gpio_clk_en+0x52>
		GPIOC_CLK_EN;
 800288a:	4b0f      	ldr	r3, [pc, #60]	; (80028c8 <gpio_clk_en+0x80>)
 800288c:	695a      	ldr	r2, [r3, #20]
 800288e:	4b0e      	ldr	r3, [pc, #56]	; (80028c8 <gpio_clk_en+0x80>)
 8002890:	2180      	movs	r1, #128	; 0x80
 8002892:	0309      	lsls	r1, r1, #12
 8002894:	430a      	orrs	r2, r1
 8002896:	615a      	str	r2, [r3, #20]
}
 8002898:	e012      	b.n	80028c0 <gpio_clk_en+0x78>
	} else if (port == GPIOD) {
 800289a:	687b      	ldr	r3, [r7, #4]
 800289c:	4a0d      	ldr	r2, [pc, #52]	; (80028d4 <gpio_clk_en+0x8c>)
 800289e:	4293      	cmp	r3, r2
 80028a0:	d107      	bne.n	80028b2 <gpio_clk_en+0x6a>
		GPIOD_CLK_EN;
 80028a2:	4b09      	ldr	r3, [pc, #36]	; (80028c8 <gpio_clk_en+0x80>)
 80028a4:	695a      	ldr	r2, [r3, #20]
 80028a6:	4b08      	ldr	r3, [pc, #32]	; (80028c8 <gpio_clk_en+0x80>)
 80028a8:	2180      	movs	r1, #128	; 0x80
 80028aa:	0349      	lsls	r1, r1, #13
 80028ac:	430a      	orrs	r2, r1
 80028ae:	615a      	str	r2, [r3, #20]
}
 80028b0:	e006      	b.n	80028c0 <gpio_clk_en+0x78>
		GPIOF_CLK_EN;
 80028b2:	4b05      	ldr	r3, [pc, #20]	; (80028c8 <gpio_clk_en+0x80>)
 80028b4:	695a      	ldr	r2, [r3, #20]
 80028b6:	4b04      	ldr	r3, [pc, #16]	; (80028c8 <gpio_clk_en+0x80>)
 80028b8:	2180      	movs	r1, #128	; 0x80
 80028ba:	03c9      	lsls	r1, r1, #15
 80028bc:	430a      	orrs	r2, r1
 80028be:	615a      	str	r2, [r3, #20]
}
 80028c0:	46c0      	nop			; (mov r8, r8)
 80028c2:	46bd      	mov	sp, r7
 80028c4:	b002      	add	sp, #8
 80028c6:	bd80      	pop	{r7, pc}
 80028c8:	40021000 	.word	0x40021000
 80028cc:	48000400 	.word	0x48000400
 80028d0:	48000800 	.word	0x48000800
 80028d4:	48000c00 	.word	0x48000c00

080028d8 <gpio_config>:
/**********************************************************************************/

/********************GPIO Configuration Functions**********************************/
void gpio_config(GPIO_TypeDef *port, uint32_t pinNumber, uint32_t pinMode,
		uint32_t pinSpeed, uint32_t pinPUPD, uint32_t PHPL_OD) {
 80028d8:	b580      	push	{r7, lr}
 80028da:	b084      	sub	sp, #16
 80028dc:	af00      	add	r7, sp, #0
 80028de:	60f8      	str	r0, [r7, #12]
 80028e0:	60b9      	str	r1, [r7, #8]
 80028e2:	607a      	str	r2, [r7, #4]
 80028e4:	603b      	str	r3, [r7, #0]

	if (pinMode == OUTPUT_MODE) {
 80028e6:	687b      	ldr	r3, [r7, #4]
 80028e8:	2b01      	cmp	r3, #1
 80028ea:	d11c      	bne.n	8002926 <gpio_config+0x4e>
		gpio_clk_en(port);
 80028ec:	68fb      	ldr	r3, [r7, #12]
 80028ee:	0018      	movs	r0, r3
 80028f0:	f7ff ffaa 	bl	8002848 <gpio_clk_en>
		gpio_moder(port, pinNumber, pinMode);
 80028f4:	687a      	ldr	r2, [r7, #4]
 80028f6:	68b9      	ldr	r1, [r7, #8]
 80028f8:	68fb      	ldr	r3, [r7, #12]
 80028fa:	0018      	movs	r0, r3
 80028fc:	f000 f85a 	bl	80029b4 <gpio_moder>
		gpio_speed(port, pinNumber, pinSpeed);
 8002900:	683a      	ldr	r2, [r7, #0]
 8002902:	68b9      	ldr	r1, [r7, #8]
 8002904:	68fb      	ldr	r3, [r7, #12]
 8002906:	0018      	movs	r0, r3
 8002908:	f000 f86c 	bl	80029e4 <gpio_speed>
		gpio_PUPD(port, pinNumber, pinPUPD);
 800290c:	69ba      	ldr	r2, [r7, #24]
 800290e:	68b9      	ldr	r1, [r7, #8]
 8002910:	68fb      	ldr	r3, [r7, #12]
 8002912:	0018      	movs	r0, r3
 8002914:	f000 f87e 	bl	8002a14 <gpio_PUPD>
		gpio_PHPL_OD(port, pinNumber, PHPL_OD);
 8002918:	69fa      	ldr	r2, [r7, #28]
 800291a:	68b9      	ldr	r1, [r7, #8]
 800291c:	68fb      	ldr	r3, [r7, #12]
 800291e:	0018      	movs	r0, r3
 8002920:	f000 f890 	bl	8002a44 <gpio_PHPL_OD>
	} else if (pinMode == ANALOG_MODE) {
		gpio_clk_en(port);
		gpio_moder(port, pinNumber, pinMode);
		adc_chsel(port, pinNumber);
	}
}
 8002924:	e041      	b.n	80029aa <gpio_config+0xd2>
	} else if (pinMode == INPUT_MODE) {
 8002926:	687b      	ldr	r3, [r7, #4]
 8002928:	2b00      	cmp	r3, #0
 800292a:	d110      	bne.n	800294e <gpio_config+0x76>
		gpio_clk_en(port);
 800292c:	68fb      	ldr	r3, [r7, #12]
 800292e:	0018      	movs	r0, r3
 8002930:	f7ff ff8a 	bl	8002848 <gpio_clk_en>
		gpio_moder(port, pinNumber, pinMode);
 8002934:	687a      	ldr	r2, [r7, #4]
 8002936:	68b9      	ldr	r1, [r7, #8]
 8002938:	68fb      	ldr	r3, [r7, #12]
 800293a:	0018      	movs	r0, r3
 800293c:	f000 f83a 	bl	80029b4 <gpio_moder>
		gpio_PUPD(port, pinNumber, pinPUPD);
 8002940:	69ba      	ldr	r2, [r7, #24]
 8002942:	68b9      	ldr	r1, [r7, #8]
 8002944:	68fb      	ldr	r3, [r7, #12]
 8002946:	0018      	movs	r0, r3
 8002948:	f000 f864 	bl	8002a14 <gpio_PUPD>
}
 800294c:	e02d      	b.n	80029aa <gpio_config+0xd2>
	} else if (pinMode == ALT_MODE) {
 800294e:	687b      	ldr	r3, [r7, #4]
 8002950:	2b02      	cmp	r3, #2
 8002952:	d116      	bne.n	8002982 <gpio_config+0xaa>
		gpio_clk_en(port);
 8002954:	68fb      	ldr	r3, [r7, #12]
 8002956:	0018      	movs	r0, r3
 8002958:	f7ff ff76 	bl	8002848 <gpio_clk_en>
		gpio_moder(port, pinNumber, pinMode);
 800295c:	687a      	ldr	r2, [r7, #4]
 800295e:	68b9      	ldr	r1, [r7, #8]
 8002960:	68fb      	ldr	r3, [r7, #12]
 8002962:	0018      	movs	r0, r3
 8002964:	f000 f826 	bl	80029b4 <gpio_moder>
		gpio_PUPD(port, pinNumber, pinPUPD);
 8002968:	69ba      	ldr	r2, [r7, #24]
 800296a:	68b9      	ldr	r1, [r7, #8]
 800296c:	68fb      	ldr	r3, [r7, #12]
 800296e:	0018      	movs	r0, r3
 8002970:	f000 f850 	bl	8002a14 <gpio_PUPD>
		gpio_PHPL_OD(port, pinNumber, PHPL_OD);
 8002974:	69fa      	ldr	r2, [r7, #28]
 8002976:	68b9      	ldr	r1, [r7, #8]
 8002978:	68fb      	ldr	r3, [r7, #12]
 800297a:	0018      	movs	r0, r3
 800297c:	f000 f862 	bl	8002a44 <gpio_PHPL_OD>
}
 8002980:	e013      	b.n	80029aa <gpio_config+0xd2>
	} else if (pinMode == ANALOG_MODE) {
 8002982:	687b      	ldr	r3, [r7, #4]
 8002984:	2b03      	cmp	r3, #3
 8002986:	d110      	bne.n	80029aa <gpio_config+0xd2>
		gpio_clk_en(port);
 8002988:	68fb      	ldr	r3, [r7, #12]
 800298a:	0018      	movs	r0, r3
 800298c:	f7ff ff5c 	bl	8002848 <gpio_clk_en>
		gpio_moder(port, pinNumber, pinMode);
 8002990:	687a      	ldr	r2, [r7, #4]
 8002992:	68b9      	ldr	r1, [r7, #8]
 8002994:	68fb      	ldr	r3, [r7, #12]
 8002996:	0018      	movs	r0, r3
 8002998:	f000 f80c 	bl	80029b4 <gpio_moder>
		adc_chsel(port, pinNumber);
 800299c:	68bb      	ldr	r3, [r7, #8]
 800299e:	b29a      	uxth	r2, r3
 80029a0:	68fb      	ldr	r3, [r7, #12]
 80029a2:	0011      	movs	r1, r2
 80029a4:	0018      	movs	r0, r3
 80029a6:	f000 f953 	bl	8002c50 <adc_chsel>
}
 80029aa:	46c0      	nop			; (mov r8, r8)
 80029ac:	46bd      	mov	sp, r7
 80029ae:	b004      	add	sp, #16
 80029b0:	bd80      	pop	{r7, pc}
	...

080029b4 <gpio_moder>:

void gpio_moder(GPIO_TypeDef *port, uint32_t pinNumber, uint32_t pinMode) {	// Config the mode
 80029b4:	b580      	push	{r7, lr}
 80029b6:	b084      	sub	sp, #16
 80029b8:	af00      	add	r7, sp, #0
 80029ba:	60f8      	str	r0, [r7, #12]
 80029bc:	60b9      	str	r1, [r7, #8]
 80029be:	607a      	str	r2, [r7, #4]
	port->MODER |= (pinMode << (PINPOS_2B[pinNumber]));	// IN/OP/Alternate/ANALOG
 80029c0:	68fb      	ldr	r3, [r7, #12]
 80029c2:	681a      	ldr	r2, [r3, #0]
 80029c4:	4b06      	ldr	r3, [pc, #24]	; (80029e0 <gpio_moder+0x2c>)
 80029c6:	68b9      	ldr	r1, [r7, #8]
 80029c8:	0089      	lsls	r1, r1, #2
 80029ca:	58cb      	ldr	r3, [r1, r3]
 80029cc:	6879      	ldr	r1, [r7, #4]
 80029ce:	4099      	lsls	r1, r3
 80029d0:	000b      	movs	r3, r1
 80029d2:	431a      	orrs	r2, r3
 80029d4:	68fb      	ldr	r3, [r7, #12]
 80029d6:	601a      	str	r2, [r3, #0]
}
 80029d8:	46c0      	nop			; (mov r8, r8)
 80029da:	46bd      	mov	sp, r7
 80029dc:	b004      	add	sp, #16
 80029de:	bd80      	pop	{r7, pc}
 80029e0:	20000024 	.word	0x20000024

080029e4 <gpio_speed>:

void gpio_speed(GPIO_TypeDef *port, uint32_t pinNumber, uint32_t pinSpeed) {// Config the speed
 80029e4:	b580      	push	{r7, lr}
 80029e6:	b084      	sub	sp, #16
 80029e8:	af00      	add	r7, sp, #0
 80029ea:	60f8      	str	r0, [r7, #12]
 80029ec:	60b9      	str	r1, [r7, #8]
 80029ee:	607a      	str	r2, [r7, #4]
	port->OSPEEDR |= (pinSpeed << PINPOS_2B[pinNumber]);		// LOW/MED/HIGH
 80029f0:	68fb      	ldr	r3, [r7, #12]
 80029f2:	689a      	ldr	r2, [r3, #8]
 80029f4:	4b06      	ldr	r3, [pc, #24]	; (8002a10 <gpio_speed+0x2c>)
 80029f6:	68b9      	ldr	r1, [r7, #8]
 80029f8:	0089      	lsls	r1, r1, #2
 80029fa:	58cb      	ldr	r3, [r1, r3]
 80029fc:	6879      	ldr	r1, [r7, #4]
 80029fe:	4099      	lsls	r1, r3
 8002a00:	000b      	movs	r3, r1
 8002a02:	431a      	orrs	r2, r3
 8002a04:	68fb      	ldr	r3, [r7, #12]
 8002a06:	609a      	str	r2, [r3, #8]
}
 8002a08:	46c0      	nop			; (mov r8, r8)
 8002a0a:	46bd      	mov	sp, r7
 8002a0c:	b004      	add	sp, #16
 8002a0e:	bd80      	pop	{r7, pc}
 8002a10:	20000024 	.word	0x20000024

08002a14 <gpio_PUPD>:

void gpio_PUPD(GPIO_TypeDef *port, uint32_t pinNumber, uint32_t pinPUPD) {// ENABLE/DISABLE
 8002a14:	b580      	push	{r7, lr}
 8002a16:	b084      	sub	sp, #16
 8002a18:	af00      	add	r7, sp, #0
 8002a1a:	60f8      	str	r0, [r7, #12]
 8002a1c:	60b9      	str	r1, [r7, #8]
 8002a1e:	607a      	str	r2, [r7, #4]
	port->PUPDR |= (pinPUPD << PINPOS_2B[pinNumber]);		// PULL-UP/PULL-DOWN
 8002a20:	68fb      	ldr	r3, [r7, #12]
 8002a22:	68da      	ldr	r2, [r3, #12]
 8002a24:	4b06      	ldr	r3, [pc, #24]	; (8002a40 <gpio_PUPD+0x2c>)
 8002a26:	68b9      	ldr	r1, [r7, #8]
 8002a28:	0089      	lsls	r1, r1, #2
 8002a2a:	58cb      	ldr	r3, [r1, r3]
 8002a2c:	6879      	ldr	r1, [r7, #4]
 8002a2e:	4099      	lsls	r1, r3
 8002a30:	000b      	movs	r3, r1
 8002a32:	431a      	orrs	r2, r3
 8002a34:	68fb      	ldr	r3, [r7, #12]
 8002a36:	60da      	str	r2, [r3, #12]
}
 8002a38:	46c0      	nop			; (mov r8, r8)
 8002a3a:	46bd      	mov	sp, r7
 8002a3c:	b004      	add	sp, #16
 8002a3e:	bd80      	pop	{r7, pc}
 8002a40:	20000024 	.word	0x20000024

08002a44 <gpio_PHPL_OD>:
void gpio_PHPL_OD(GPIO_TypeDef *port, uint32_t pinNumber, uint32_t PHPL_OD) {// ENABLE/DISABLE
 8002a44:	b580      	push	{r7, lr}
 8002a46:	b084      	sub	sp, #16
 8002a48:	af00      	add	r7, sp, #0
 8002a4a:	60f8      	str	r0, [r7, #12]
 8002a4c:	60b9      	str	r1, [r7, #8]
 8002a4e:	607a      	str	r2, [r7, #4]
	port->OTYPER |= (PHPL_OD << pinNumber);	// PUSH-PULL/OPEN DRAIN
 8002a50:	68fb      	ldr	r3, [r7, #12]
 8002a52:	685a      	ldr	r2, [r3, #4]
 8002a54:	6879      	ldr	r1, [r7, #4]
 8002a56:	68bb      	ldr	r3, [r7, #8]
 8002a58:	4099      	lsls	r1, r3
 8002a5a:	000b      	movs	r3, r1
 8002a5c:	431a      	orrs	r2, r3
 8002a5e:	68fb      	ldr	r3, [r7, #12]
 8002a60:	605a      	str	r2, [r3, #4]
}
 8002a62:	46c0      	nop			; (mov r8, r8)
 8002a64:	46bd      	mov	sp, r7
 8002a66:	b004      	add	sp, #16
 8002a68:	bd80      	pop	{r7, pc}

08002a6a <gpio_altfn>:

void gpio_altfn(GPIO_TypeDef *port, uint32_t pinNumber,
		uint32_t alternate_function) {
 8002a6a:	b580      	push	{r7, lr}
 8002a6c:	b084      	sub	sp, #16
 8002a6e:	af00      	add	r7, sp, #0
 8002a70:	60f8      	str	r0, [r7, #12]
 8002a72:	60b9      	str	r1, [r7, #8]
 8002a74:	607a      	str	r2, [r7, #4]
	if (pinNumber < 8) {
 8002a76:	68bb      	ldr	r3, [r7, #8]
 8002a78:	2b07      	cmp	r3, #7
 8002a7a:	d80a      	bhi.n	8002a92 <gpio_altfn+0x28>
		port->AFR[0] |= (alternate_function << (4 * pinNumber));
 8002a7c:	68fb      	ldr	r3, [r7, #12]
 8002a7e:	6a1a      	ldr	r2, [r3, #32]
 8002a80:	68bb      	ldr	r3, [r7, #8]
 8002a82:	009b      	lsls	r3, r3, #2
 8002a84:	6879      	ldr	r1, [r7, #4]
 8002a86:	4099      	lsls	r1, r3
 8002a88:	000b      	movs	r3, r1
 8002a8a:	431a      	orrs	r2, r3
 8002a8c:	68fb      	ldr	r3, [r7, #12]
 8002a8e:	621a      	str	r2, [r3, #32]
	} else {
		port->AFR[1] |= (alternate_function << (4 * (pinNumber - 8)));
	}
}
 8002a90:	e00a      	b.n	8002aa8 <gpio_altfn+0x3e>
		port->AFR[1] |= (alternate_function << (4 * (pinNumber - 8)));
 8002a92:	68fb      	ldr	r3, [r7, #12]
 8002a94:	6a5a      	ldr	r2, [r3, #36]	; 0x24
 8002a96:	68bb      	ldr	r3, [r7, #8]
 8002a98:	3b08      	subs	r3, #8
 8002a9a:	009b      	lsls	r3, r3, #2
 8002a9c:	6879      	ldr	r1, [r7, #4]
 8002a9e:	4099      	lsls	r1, r3
 8002aa0:	000b      	movs	r3, r1
 8002aa2:	431a      	orrs	r2, r3
 8002aa4:	68fb      	ldr	r3, [r7, #12]
 8002aa6:	625a      	str	r2, [r3, #36]	; 0x24
}
 8002aa8:	46c0      	nop			; (mov r8, r8)
 8002aaa:	46bd      	mov	sp, r7
 8002aac:	b004      	add	sp, #16
 8002aae:	bd80      	pop	{r7, pc}

08002ab0 <gpio_write>:

/************************************************************************************/

/************************GPIO OPERATION FUNCTION*************************************/
void gpio_write(GPIO_TypeDef *port, uint32_t pinNumber, uint8_t state) {
 8002ab0:	b580      	push	{r7, lr}
 8002ab2:	b084      	sub	sp, #16
 8002ab4:	af00      	add	r7, sp, #0
 8002ab6:	60f8      	str	r0, [r7, #12]
 8002ab8:	60b9      	str	r1, [r7, #8]
 8002aba:	1dfb      	adds	r3, r7, #7
 8002abc:	701a      	strb	r2, [r3, #0]
	if (state) {
 8002abe:	1dfb      	adds	r3, r7, #7
 8002ac0:	781b      	ldrb	r3, [r3, #0]
 8002ac2:	2b00      	cmp	r3, #0
 8002ac4:	d007      	beq.n	8002ad6 <gpio_write+0x26>
		port->BSRR = (1 << pinNumber);
 8002ac6:	2201      	movs	r2, #1
 8002ac8:	68bb      	ldr	r3, [r7, #8]
 8002aca:	409a      	lsls	r2, r3
 8002acc:	0013      	movs	r3, r2
 8002ace:	001a      	movs	r2, r3
 8002ad0:	68fb      	ldr	r3, [r7, #12]
 8002ad2:	619a      	str	r2, [r3, #24]
	} else {
		port->BSRR = (1 << (pinNumber + 16));
	}
}
 8002ad4:	e007      	b.n	8002ae6 <gpio_write+0x36>
		port->BSRR = (1 << (pinNumber + 16));
 8002ad6:	68bb      	ldr	r3, [r7, #8]
 8002ad8:	3310      	adds	r3, #16
 8002ada:	2201      	movs	r2, #1
 8002adc:	409a      	lsls	r2, r3
 8002ade:	0013      	movs	r3, r2
 8002ae0:	001a      	movs	r2, r3
 8002ae2:	68fb      	ldr	r3, [r7, #12]
 8002ae4:	619a      	str	r2, [r3, #24]
}
 8002ae6:	46c0      	nop			; (mov r8, r8)
 8002ae8:	46bd      	mov	sp, r7
 8002aea:	b004      	add	sp, #16
 8002aec:	bd80      	pop	{r7, pc}
	...

08002af0 <print>:

//*******************************************************************************************//

//************************** UART SERIAL PRINTING *******************************************//

void print(const char *fmt, ...) {
 8002af0:	b40f      	push	{r0, r1, r2, r3}
 8002af2:	b580      	push	{r7, lr}
 8002af4:	b084      	sub	sp, #16
 8002af6:	af00      	add	r7, sp, #0
	static char buffer[256];
	va_list args;
	va_start(args, fmt);
 8002af8:	231c      	movs	r3, #28
 8002afa:	18fb      	adds	r3, r7, r3
 8002afc:	607b      	str	r3, [r7, #4]
	vsnprintf(buffer, sizeof(buffer), fmt, args);
 8002afe:	687b      	ldr	r3, [r7, #4]
 8002b00:	69ba      	ldr	r2, [r7, #24]
 8002b02:	2180      	movs	r1, #128	; 0x80
 8002b04:	0049      	lsls	r1, r1, #1
 8002b06:	4818      	ldr	r0, [pc, #96]	; (8002b68 <print+0x78>)
 8002b08:	f004 ffb6 	bl	8007a78 <vsniprintf>
	va_end(args);

	int len = strlen(buffer);
 8002b0c:	4b16      	ldr	r3, [pc, #88]	; (8002b68 <print+0x78>)
 8002b0e:	0018      	movs	r0, r3
 8002b10:	f7fd fafa 	bl	8000108 <strlen>
 8002b14:	0003      	movs	r3, r0
 8002b16:	60bb      	str	r3, [r7, #8]
	for (uint8_t i = 0; i < len; i++) {
 8002b18:	230f      	movs	r3, #15
 8002b1a:	18fb      	adds	r3, r7, r3
 8002b1c:	2200      	movs	r2, #0
 8002b1e:	701a      	strb	r2, [r3, #0]
 8002b20:	e013      	b.n	8002b4a <print+0x5a>
		USART2->TDR = buffer[i];
 8002b22:	230f      	movs	r3, #15
 8002b24:	18fb      	adds	r3, r7, r3
 8002b26:	781b      	ldrb	r3, [r3, #0]
 8002b28:	4a0f      	ldr	r2, [pc, #60]	; (8002b68 <print+0x78>)
 8002b2a:	5cd2      	ldrb	r2, [r2, r3]
 8002b2c:	4b0f      	ldr	r3, [pc, #60]	; (8002b6c <print+0x7c>)
 8002b2e:	b292      	uxth	r2, r2
 8002b30:	851a      	strh	r2, [r3, #40]	; 0x28
		while (!(USART2->ISR & USART_ISR_TXE))
 8002b32:	46c0      	nop			; (mov r8, r8)
 8002b34:	4b0d      	ldr	r3, [pc, #52]	; (8002b6c <print+0x7c>)
 8002b36:	69db      	ldr	r3, [r3, #28]
 8002b38:	2280      	movs	r2, #128	; 0x80
 8002b3a:	4013      	ands	r3, r2
 8002b3c:	d0fa      	beq.n	8002b34 <print+0x44>
	for (uint8_t i = 0; i < len; i++) {
 8002b3e:	210f      	movs	r1, #15
 8002b40:	187b      	adds	r3, r7, r1
 8002b42:	781a      	ldrb	r2, [r3, #0]
 8002b44:	187b      	adds	r3, r7, r1
 8002b46:	3201      	adds	r2, #1
 8002b48:	701a      	strb	r2, [r3, #0]
 8002b4a:	230f      	movs	r3, #15
 8002b4c:	18fb      	adds	r3, r7, r3
 8002b4e:	781b      	ldrb	r3, [r3, #0]
 8002b50:	68ba      	ldr	r2, [r7, #8]
 8002b52:	429a      	cmp	r2, r3
 8002b54:	dce5      	bgt.n	8002b22 <print+0x32>
			;
	}

}
 8002b56:	46c0      	nop			; (mov r8, r8)
 8002b58:	46c0      	nop			; (mov r8, r8)
 8002b5a:	46bd      	mov	sp, r7
 8002b5c:	b004      	add	sp, #16
 8002b5e:	bc80      	pop	{r7}
 8002b60:	bc08      	pop	{r3}
 8002b62:	b004      	add	sp, #16
 8002b64:	4718      	bx	r3
 8002b66:	46c0      	nop			; (mov r8, r8)
 8002b68:	2000016c 	.word	0x2000016c
 8002b6c:	40004400 	.word	0x40004400

08002b70 <uart_print_config>:

void uart_print_config(uint32_t baudRate) {
 8002b70:	b580      	push	{r7, lr}
 8002b72:	b086      	sub	sp, #24
 8002b74:	af02      	add	r7, sp, #8
 8002b76:	6078      	str	r0, [r7, #4]

	RCC->APB1ENR |= RCC_APB1ENR_USART2EN;
 8002b78:	4b21      	ldr	r3, [pc, #132]	; (8002c00 <uart_print_config+0x90>)
 8002b7a:	69da      	ldr	r2, [r3, #28]
 8002b7c:	4b20      	ldr	r3, [pc, #128]	; (8002c00 <uart_print_config+0x90>)
 8002b7e:	2180      	movs	r1, #128	; 0x80
 8002b80:	0289      	lsls	r1, r1, #10
 8002b82:	430a      	orrs	r2, r1
 8002b84:	61da      	str	r2, [r3, #28]
	gpio_config(GPIOA, 2, ALT_MODE, HIGH_SPEED, DI_PUPD, PHPL);
 8002b86:	2390      	movs	r3, #144	; 0x90
 8002b88:	05d8      	lsls	r0, r3, #23
 8002b8a:	2300      	movs	r3, #0
 8002b8c:	9301      	str	r3, [sp, #4]
 8002b8e:	2300      	movs	r3, #0
 8002b90:	9300      	str	r3, [sp, #0]
 8002b92:	2302      	movs	r3, #2
 8002b94:	2202      	movs	r2, #2
 8002b96:	2102      	movs	r1, #2
 8002b98:	f7ff fe9e 	bl	80028d8 <gpio_config>
	gpio_config(GPIOA, 3, ALT_MODE, HIGH_SPEED, DI_PUPD, PHPL);
 8002b9c:	2390      	movs	r3, #144	; 0x90
 8002b9e:	05d8      	lsls	r0, r3, #23
 8002ba0:	2300      	movs	r3, #0
 8002ba2:	9301      	str	r3, [sp, #4]
 8002ba4:	2300      	movs	r3, #0
 8002ba6:	9300      	str	r3, [sp, #0]
 8002ba8:	2302      	movs	r3, #2
 8002baa:	2202      	movs	r2, #2
 8002bac:	2103      	movs	r1, #3
 8002bae:	f7ff fe93 	bl	80028d8 <gpio_config>

	gpio_altfn(GPIOA, 2, USART2_TX_PA2);
 8002bb2:	2390      	movs	r3, #144	; 0x90
 8002bb4:	05db      	lsls	r3, r3, #23
 8002bb6:	2201      	movs	r2, #1
 8002bb8:	2102      	movs	r1, #2
 8002bba:	0018      	movs	r0, r3
 8002bbc:	f7ff ff55 	bl	8002a6a <gpio_altfn>
	gpio_altfn(GPIOA, 3, USART2_RX_PA3);
 8002bc0:	2390      	movs	r3, #144	; 0x90
 8002bc2:	05db      	lsls	r3, r3, #23
 8002bc4:	2201      	movs	r2, #1
 8002bc6:	2103      	movs	r1, #3
 8002bc8:	0018      	movs	r0, r3
 8002bca:	f7ff ff4e 	bl	8002a6a <gpio_altfn>
//		else if (baudRate == 9600)
//			USART2->BRR = 0x1388;
//		else if (baudRate == 19200)
//			USART2->BRR = 0x9c4;
//	}
	uint32_t baud = (uint32_t) (SystemCoreClock / baudRate);
 8002bce:	4b0d      	ldr	r3, [pc, #52]	; (8002c04 <uart_print_config+0x94>)
 8002bd0:	681b      	ldr	r3, [r3, #0]
 8002bd2:	6879      	ldr	r1, [r7, #4]
 8002bd4:	0018      	movs	r0, r3
 8002bd6:	f7fd faa9 	bl	800012c <__udivsi3>
 8002bda:	0003      	movs	r3, r0
 8002bdc:	60fb      	str	r3, [r7, #12]
	USART2->BRR |= baud;
 8002bde:	4b0a      	ldr	r3, [pc, #40]	; (8002c08 <uart_print_config+0x98>)
 8002be0:	68d9      	ldr	r1, [r3, #12]
 8002be2:	4b09      	ldr	r3, [pc, #36]	; (8002c08 <uart_print_config+0x98>)
 8002be4:	68fa      	ldr	r2, [r7, #12]
 8002be6:	430a      	orrs	r2, r1
 8002be8:	60da      	str	r2, [r3, #12]

	USART2->CR1 |= USART_CR1_RE | USART_CR1_TE | USART_CR1_UE;
 8002bea:	4b07      	ldr	r3, [pc, #28]	; (8002c08 <uart_print_config+0x98>)
 8002bec:	681a      	ldr	r2, [r3, #0]
 8002bee:	4b06      	ldr	r3, [pc, #24]	; (8002c08 <uart_print_config+0x98>)
 8002bf0:	210d      	movs	r1, #13
 8002bf2:	430a      	orrs	r2, r1
 8002bf4:	601a      	str	r2, [r3, #0]
}
 8002bf6:	46c0      	nop			; (mov r8, r8)
 8002bf8:	46bd      	mov	sp, r7
 8002bfa:	b004      	add	sp, #16
 8002bfc:	bd80      	pop	{r7, pc}
 8002bfe:	46c0      	nop			; (mov r8, r8)
 8002c00:	40021000 	.word	0x40021000
 8002c04:	20000000 	.word	0x20000000
 8002c08:	40004400 	.word	0x40004400

08002c0c <TIM6_IRQHandler>:
	return ticks;
}
void ticks_reset() {
	ticks = 0;
}
void TIM6_IRQHandler(void) {		// Timer Interrupt helping in delay
 8002c0c:	b580      	push	{r7, lr}
 8002c0e:	af00      	add	r7, sp, #0
	ticks++;
 8002c10:	4b07      	ldr	r3, [pc, #28]	; (8002c30 <TIM6_IRQHandler+0x24>)
 8002c12:	881b      	ldrh	r3, [r3, #0]
 8002c14:	3301      	adds	r3, #1
 8002c16:	b29a      	uxth	r2, r3
 8002c18:	4b05      	ldr	r3, [pc, #20]	; (8002c30 <TIM6_IRQHandler+0x24>)
 8002c1a:	801a      	strh	r2, [r3, #0]
	TIM6->SR &= ~TIM_SR_UIF;
 8002c1c:	4b05      	ldr	r3, [pc, #20]	; (8002c34 <TIM6_IRQHandler+0x28>)
 8002c1e:	691a      	ldr	r2, [r3, #16]
 8002c20:	4b04      	ldr	r3, [pc, #16]	; (8002c34 <TIM6_IRQHandler+0x28>)
 8002c22:	2101      	movs	r1, #1
 8002c24:	438a      	bics	r2, r1
 8002c26:	611a      	str	r2, [r3, #16]
}
 8002c28:	46c0      	nop			; (mov r8, r8)
 8002c2a:	46bd      	mov	sp, r7
 8002c2c:	bd80      	pop	{r7, pc}
 8002c2e:	46c0      	nop			; (mov r8, r8)
 8002c30:	20000164 	.word	0x20000164
 8002c34:	40001000 	.word	0x40001000

08002c38 <sysIncrementTicks>:

uint32_t sysDelayVal(){
	return sysTicks;
}

void sysIncrementTicks(){
 8002c38:	b580      	push	{r7, lr}
 8002c3a:	af00      	add	r7, sp, #0
	sysTicks++;
 8002c3c:	4b03      	ldr	r3, [pc, #12]	; (8002c4c <sysIncrementTicks+0x14>)
 8002c3e:	681b      	ldr	r3, [r3, #0]
 8002c40:	1c5a      	adds	r2, r3, #1
 8002c42:	4b02      	ldr	r3, [pc, #8]	; (8002c4c <sysIncrementTicks+0x14>)
 8002c44:	601a      	str	r2, [r3, #0]
}
 8002c46:	46c0      	nop			; (mov r8, r8)
 8002c48:	46bd      	mov	sp, r7
 8002c4a:	bd80      	pop	{r7, pc}
 8002c4c:	20000168 	.word	0x20000168

08002c50 <adc_chsel>:
	while ((ADC1->CR & ADC_CR_ADEN) != 0) /* (4) */
	{
		/* For robust implementation, add here time-out management */
	}
}
void adc_chsel(GPIO_TypeDef *port, uint16_t pin) {
 8002c50:	b580      	push	{r7, lr}
 8002c52:	b082      	sub	sp, #8
 8002c54:	af00      	add	r7, sp, #0
 8002c56:	6078      	str	r0, [r7, #4]
 8002c58:	000a      	movs	r2, r1
 8002c5a:	1cbb      	adds	r3, r7, #2
 8002c5c:	801a      	strh	r2, [r3, #0]

	if (port == GPIOA) {
 8002c5e:	687a      	ldr	r2, [r7, #4]
 8002c60:	2390      	movs	r3, #144	; 0x90
 8002c62:	05db      	lsls	r3, r3, #23
 8002c64:	429a      	cmp	r2, r3
 8002c66:	d133      	bne.n	8002cd0 <adc_chsel+0x80>
		switch (pin) {
 8002c68:	1cbb      	adds	r3, r7, #2
 8002c6a:	881b      	ldrh	r3, [r3, #0]
 8002c6c:	2b07      	cmp	r3, #7
 8002c6e:	d900      	bls.n	8002c72 <adc_chsel+0x22>
 8002c70:	e086      	b.n	8002d80 <adc_chsel+0x130>
 8002c72:	009a      	lsls	r2, r3, #2
 8002c74:	4b47      	ldr	r3, [pc, #284]	; (8002d94 <adc_chsel+0x144>)
 8002c76:	18d3      	adds	r3, r2, r3
 8002c78:	681b      	ldr	r3, [r3, #0]
 8002c7a:	469f      	mov	pc, r3
		case 0:
			ADC1->CHSELR |= ADC_CHSELR_CHSEL0;
 8002c7c:	4b46      	ldr	r3, [pc, #280]	; (8002d98 <adc_chsel+0x148>)
 8002c7e:	6a9a      	ldr	r2, [r3, #40]	; 0x28
 8002c80:	4b45      	ldr	r3, [pc, #276]	; (8002d98 <adc_chsel+0x148>)
 8002c82:	2101      	movs	r1, #1
 8002c84:	430a      	orrs	r2, r1
 8002c86:	629a      	str	r2, [r3, #40]	; 0x28
			break;
 8002c88:	e07f      	b.n	8002d8a <adc_chsel+0x13a>
		case 1:
			ADC1->CHSELR |= ADC_CHSELR_CHSEL1;
 8002c8a:	4b43      	ldr	r3, [pc, #268]	; (8002d98 <adc_chsel+0x148>)
 8002c8c:	6a9a      	ldr	r2, [r3, #40]	; 0x28
 8002c8e:	4b42      	ldr	r3, [pc, #264]	; (8002d98 <adc_chsel+0x148>)
 8002c90:	2102      	movs	r1, #2
 8002c92:	430a      	orrs	r2, r1
 8002c94:	629a      	str	r2, [r3, #40]	; 0x28
			break;
 8002c96:	e078      	b.n	8002d8a <adc_chsel+0x13a>
		case 4:
			ADC1->CHSELR |= ADC_CHSELR_CHSEL4;
 8002c98:	4b3f      	ldr	r3, [pc, #252]	; (8002d98 <adc_chsel+0x148>)
 8002c9a:	6a9a      	ldr	r2, [r3, #40]	; 0x28
 8002c9c:	4b3e      	ldr	r3, [pc, #248]	; (8002d98 <adc_chsel+0x148>)
 8002c9e:	2110      	movs	r1, #16
 8002ca0:	430a      	orrs	r2, r1
 8002ca2:	629a      	str	r2, [r3, #40]	; 0x28
			break;
 8002ca4:	e071      	b.n	8002d8a <adc_chsel+0x13a>
		case 5:
			ADC1->CHSELR |= ADC_CHSELR_CHSEL5;
 8002ca6:	4b3c      	ldr	r3, [pc, #240]	; (8002d98 <adc_chsel+0x148>)
 8002ca8:	6a9a      	ldr	r2, [r3, #40]	; 0x28
 8002caa:	4b3b      	ldr	r3, [pc, #236]	; (8002d98 <adc_chsel+0x148>)
 8002cac:	2120      	movs	r1, #32
 8002cae:	430a      	orrs	r2, r1
 8002cb0:	629a      	str	r2, [r3, #40]	; 0x28
			break;
 8002cb2:	e06a      	b.n	8002d8a <adc_chsel+0x13a>
		case 6:
			ADC1->CHSELR |= ADC_CHSELR_CHSEL6;
 8002cb4:	4b38      	ldr	r3, [pc, #224]	; (8002d98 <adc_chsel+0x148>)
 8002cb6:	6a9a      	ldr	r2, [r3, #40]	; 0x28
 8002cb8:	4b37      	ldr	r3, [pc, #220]	; (8002d98 <adc_chsel+0x148>)
 8002cba:	2140      	movs	r1, #64	; 0x40
 8002cbc:	430a      	orrs	r2, r1
 8002cbe:	629a      	str	r2, [r3, #40]	; 0x28
			break;
 8002cc0:	e063      	b.n	8002d8a <adc_chsel+0x13a>
		case 7:
			ADC1->CHSELR |= ADC_CHSELR_CHSEL7;
 8002cc2:	4b35      	ldr	r3, [pc, #212]	; (8002d98 <adc_chsel+0x148>)
 8002cc4:	6a9a      	ldr	r2, [r3, #40]	; 0x28
 8002cc6:	4b34      	ldr	r3, [pc, #208]	; (8002d98 <adc_chsel+0x148>)
 8002cc8:	2180      	movs	r1, #128	; 0x80
 8002cca:	430a      	orrs	r2, r1
 8002ccc:	629a      	str	r2, [r3, #40]	; 0x28
			break;
 8002cce:	e05c      	b.n	8002d8a <adc_chsel+0x13a>
		default:
			break;
		}
	} else if (port == GPIOB) {
 8002cd0:	687b      	ldr	r3, [r7, #4]
 8002cd2:	4a32      	ldr	r2, [pc, #200]	; (8002d9c <adc_chsel+0x14c>)
 8002cd4:	4293      	cmp	r3, r2
 8002cd6:	d116      	bne.n	8002d06 <adc_chsel+0xb6>
		switch (pin) {
 8002cd8:	1cbb      	adds	r3, r7, #2
 8002cda:	881b      	ldrh	r3, [r3, #0]
 8002cdc:	2b00      	cmp	r3, #0
 8002cde:	d002      	beq.n	8002ce6 <adc_chsel+0x96>
 8002ce0:	2b01      	cmp	r3, #1
 8002ce2:	d008      	beq.n	8002cf6 <adc_chsel+0xa6>
			break;
		case 1:
			ADC1->CHSELR |= ADC_CHSELR_CHSEL9;
			break;
		default:
			break;
 8002ce4:	e051      	b.n	8002d8a <adc_chsel+0x13a>
			ADC1->CHSELR |= ADC_CHSELR_CHSEL8;
 8002ce6:	4b2c      	ldr	r3, [pc, #176]	; (8002d98 <adc_chsel+0x148>)
 8002ce8:	6a9a      	ldr	r2, [r3, #40]	; 0x28
 8002cea:	4b2b      	ldr	r3, [pc, #172]	; (8002d98 <adc_chsel+0x148>)
 8002cec:	2180      	movs	r1, #128	; 0x80
 8002cee:	0049      	lsls	r1, r1, #1
 8002cf0:	430a      	orrs	r2, r1
 8002cf2:	629a      	str	r2, [r3, #40]	; 0x28
			break;
 8002cf4:	e049      	b.n	8002d8a <adc_chsel+0x13a>
			ADC1->CHSELR |= ADC_CHSELR_CHSEL9;
 8002cf6:	4b28      	ldr	r3, [pc, #160]	; (8002d98 <adc_chsel+0x148>)
 8002cf8:	6a9a      	ldr	r2, [r3, #40]	; 0x28
 8002cfa:	4b27      	ldr	r3, [pc, #156]	; (8002d98 <adc_chsel+0x148>)
 8002cfc:	2180      	movs	r1, #128	; 0x80
 8002cfe:	0089      	lsls	r1, r1, #2
 8002d00:	430a      	orrs	r2, r1
 8002d02:	629a      	str	r2, [r3, #40]	; 0x28
			break;
 8002d04:	e041      	b.n	8002d8a <adc_chsel+0x13a>
		}
	} else if (port == GPIOC) {
 8002d06:	687b      	ldr	r3, [r7, #4]
 8002d08:	4a25      	ldr	r2, [pc, #148]	; (8002da0 <adc_chsel+0x150>)
 8002d0a:	4293      	cmp	r3, r2
 8002d0c:	d13a      	bne.n	8002d84 <adc_chsel+0x134>
		switch (pin) {
 8002d0e:	1cbb      	adds	r3, r7, #2
 8002d10:	881b      	ldrh	r3, [r3, #0]
 8002d12:	2b05      	cmp	r3, #5
 8002d14:	d838      	bhi.n	8002d88 <adc_chsel+0x138>
 8002d16:	009a      	lsls	r2, r3, #2
 8002d18:	4b22      	ldr	r3, [pc, #136]	; (8002da4 <adc_chsel+0x154>)
 8002d1a:	18d3      	adds	r3, r2, r3
 8002d1c:	681b      	ldr	r3, [r3, #0]
 8002d1e:	469f      	mov	pc, r3
		case 0:
			ADC1->CHSELR |= ADC_CHSELR_CHSEL10;
 8002d20:	4b1d      	ldr	r3, [pc, #116]	; (8002d98 <adc_chsel+0x148>)
 8002d22:	6a9a      	ldr	r2, [r3, #40]	; 0x28
 8002d24:	4b1c      	ldr	r3, [pc, #112]	; (8002d98 <adc_chsel+0x148>)
 8002d26:	2180      	movs	r1, #128	; 0x80
 8002d28:	00c9      	lsls	r1, r1, #3
 8002d2a:	430a      	orrs	r2, r1
 8002d2c:	629a      	str	r2, [r3, #40]	; 0x28
			break;
 8002d2e:	e02c      	b.n	8002d8a <adc_chsel+0x13a>
		case 1:
			ADC1->CHSELR |= ADC_CHSELR_CHSEL11;
 8002d30:	4b19      	ldr	r3, [pc, #100]	; (8002d98 <adc_chsel+0x148>)
 8002d32:	6a9a      	ldr	r2, [r3, #40]	; 0x28
 8002d34:	4b18      	ldr	r3, [pc, #96]	; (8002d98 <adc_chsel+0x148>)
 8002d36:	2180      	movs	r1, #128	; 0x80
 8002d38:	0109      	lsls	r1, r1, #4
 8002d3a:	430a      	orrs	r2, r1
 8002d3c:	629a      	str	r2, [r3, #40]	; 0x28
			break;
 8002d3e:	e024      	b.n	8002d8a <adc_chsel+0x13a>
		case 2:
			ADC1->CHSELR |= ADC_CHSELR_CHSEL12;
 8002d40:	4b15      	ldr	r3, [pc, #84]	; (8002d98 <adc_chsel+0x148>)
 8002d42:	6a9a      	ldr	r2, [r3, #40]	; 0x28
 8002d44:	4b14      	ldr	r3, [pc, #80]	; (8002d98 <adc_chsel+0x148>)
 8002d46:	2180      	movs	r1, #128	; 0x80
 8002d48:	0149      	lsls	r1, r1, #5
 8002d4a:	430a      	orrs	r2, r1
 8002d4c:	629a      	str	r2, [r3, #40]	; 0x28
			break;
 8002d4e:	e01c      	b.n	8002d8a <adc_chsel+0x13a>
		case 3:
			ADC1->CHSELR |= ADC_CHSELR_CHSEL13;
 8002d50:	4b11      	ldr	r3, [pc, #68]	; (8002d98 <adc_chsel+0x148>)
 8002d52:	6a9a      	ldr	r2, [r3, #40]	; 0x28
 8002d54:	4b10      	ldr	r3, [pc, #64]	; (8002d98 <adc_chsel+0x148>)
 8002d56:	2180      	movs	r1, #128	; 0x80
 8002d58:	0189      	lsls	r1, r1, #6
 8002d5a:	430a      	orrs	r2, r1
 8002d5c:	629a      	str	r2, [r3, #40]	; 0x28
			break;
 8002d5e:	e014      	b.n	8002d8a <adc_chsel+0x13a>
		case 4:
			ADC1->CHSELR |= ADC_CHSELR_CHSEL14;
 8002d60:	4b0d      	ldr	r3, [pc, #52]	; (8002d98 <adc_chsel+0x148>)
 8002d62:	6a9a      	ldr	r2, [r3, #40]	; 0x28
 8002d64:	4b0c      	ldr	r3, [pc, #48]	; (8002d98 <adc_chsel+0x148>)
 8002d66:	2180      	movs	r1, #128	; 0x80
 8002d68:	01c9      	lsls	r1, r1, #7
 8002d6a:	430a      	orrs	r2, r1
 8002d6c:	629a      	str	r2, [r3, #40]	; 0x28
			break;
 8002d6e:	e00c      	b.n	8002d8a <adc_chsel+0x13a>
		case 5:
			ADC1->CHSELR |= ADC_CHSELR_CHSEL15;
 8002d70:	4b09      	ldr	r3, [pc, #36]	; (8002d98 <adc_chsel+0x148>)
 8002d72:	6a9a      	ldr	r2, [r3, #40]	; 0x28
 8002d74:	4b08      	ldr	r3, [pc, #32]	; (8002d98 <adc_chsel+0x148>)
 8002d76:	2180      	movs	r1, #128	; 0x80
 8002d78:	0209      	lsls	r1, r1, #8
 8002d7a:	430a      	orrs	r2, r1
 8002d7c:	629a      	str	r2, [r3, #40]	; 0x28
			break;
 8002d7e:	e004      	b.n	8002d8a <adc_chsel+0x13a>
			break;
 8002d80:	46c0      	nop			; (mov r8, r8)
 8002d82:	e002      	b.n	8002d8a <adc_chsel+0x13a>
		default:
			break;
		}
	}
 8002d84:	46c0      	nop			; (mov r8, r8)
 8002d86:	e000      	b.n	8002d8a <adc_chsel+0x13a>
			break;
 8002d88:	46c0      	nop			; (mov r8, r8)
}
 8002d8a:	46c0      	nop			; (mov r8, r8)
 8002d8c:	46bd      	mov	sp, r7
 8002d8e:	b002      	add	sp, #8
 8002d90:	bd80      	pop	{r7, pc}
 8002d92:	46c0      	nop			; (mov r8, r8)
 8002d94:	08008868 	.word	0x08008868
 8002d98:	40012400 	.word	0x40012400
 8002d9c:	48000400 	.word	0x48000400
 8002da0:	48000800 	.word	0x48000800
 8002da4:	08008888 	.word	0x08008888

08002da8 <RCC_CONFIG_48MHZ>:
}

//*******************************************************************************//

//*****************************| RCC CLOCK FUNCTION |****************************//
void RCC_CONFIG_48MHZ() {
 8002da8:	b590      	push	{r4, r7, lr}
 8002daa:	b091      	sub	sp, #68	; 0x44
 8002dac:	af00      	add	r7, sp, #0
//	}
//
//	SystemCoreClockUpdate();
//	SysTick_Config(SystemCoreClock/1000);

	RCC_OscInitTypeDef RCC_OscInitStruct = { 0 };
 8002dae:	2410      	movs	r4, #16
 8002db0:	193b      	adds	r3, r7, r4
 8002db2:	0018      	movs	r0, r3
 8002db4:	2330      	movs	r3, #48	; 0x30
 8002db6:	001a      	movs	r2, r3
 8002db8:	2100      	movs	r1, #0
 8002dba:	f004 fe15 	bl	80079e8 <memset>
	RCC_ClkInitTypeDef RCC_ClkInitStruct = { 0 };
 8002dbe:	003b      	movs	r3, r7
 8002dc0:	0018      	movs	r0, r3
 8002dc2:	2310      	movs	r3, #16
 8002dc4:	001a      	movs	r2, r3
 8002dc6:	2100      	movs	r1, #0
 8002dc8:	f004 fe0e 	bl	80079e8 <memset>

	/** Initializes the RCC Oscillators according to the specified parameters
	 * in the RCC_OscInitTypeDef structure.
	 */
	RCC_OscInitStruct.OscillatorType = RCC_OSCILLATORTYPE_HSI;
 8002dcc:	0021      	movs	r1, r4
 8002dce:	187b      	adds	r3, r7, r1
 8002dd0:	2202      	movs	r2, #2
 8002dd2:	601a      	str	r2, [r3, #0]
	RCC_OscInitStruct.HSIState = RCC_HSI_ON;
 8002dd4:	187b      	adds	r3, r7, r1
 8002dd6:	2201      	movs	r2, #1
 8002dd8:	60da      	str	r2, [r3, #12]
	RCC_OscInitStruct.HSICalibrationValue = RCC_HSICALIBRATION_DEFAULT;
 8002dda:	187b      	adds	r3, r7, r1
 8002ddc:	2210      	movs	r2, #16
 8002dde:	611a      	str	r2, [r3, #16]
	RCC_OscInitStruct.PLL.PLLState = RCC_PLL_ON;
 8002de0:	187b      	adds	r3, r7, r1
 8002de2:	2202      	movs	r2, #2
 8002de4:	621a      	str	r2, [r3, #32]
	RCC_OscInitStruct.PLL.PLLSource = RCC_PLLSOURCE_HSI;
 8002de6:	187b      	adds	r3, r7, r1
 8002de8:	2280      	movs	r2, #128	; 0x80
 8002dea:	0212      	lsls	r2, r2, #8
 8002dec:	625a      	str	r2, [r3, #36]	; 0x24
	RCC_OscInitStruct.PLL.PLLMUL = RCC_PLL_MUL6;
 8002dee:	187b      	adds	r3, r7, r1
 8002df0:	2280      	movs	r2, #128	; 0x80
 8002df2:	0352      	lsls	r2, r2, #13
 8002df4:	629a      	str	r2, [r3, #40]	; 0x28
	RCC_OscInitStruct.PLL.PREDIV = RCC_PREDIV_DIV1;
 8002df6:	187b      	adds	r3, r7, r1
 8002df8:	2200      	movs	r2, #0
 8002dfa:	62da      	str	r2, [r3, #44]	; 0x2c
	if (HAL_RCC_OscConfig(&RCC_OscInitStruct) != HAL_OK) {
 8002dfc:	187b      	adds	r3, r7, r1
 8002dfe:	0018      	movs	r0, r3
 8002e00:	f7fd feda 	bl	8000bb8 <HAL_RCC_OscConfig>
 8002e04:	1e03      	subs	r3, r0, #0
 8002e06:	d003      	beq.n	8002e10 <RCC_CONFIG_48MHZ+0x68>
		print("Error1 in clock\n\r");
 8002e08:	4b0f      	ldr	r3, [pc, #60]	; (8002e48 <RCC_CONFIG_48MHZ+0xa0>)
 8002e0a:	0018      	movs	r0, r3
 8002e0c:	f7ff fe70 	bl	8002af0 <print>
	}
	/** Initializes the CPU, AHB and APB buses clocks
	 */
	RCC_ClkInitStruct.ClockType = RCC_CLOCKTYPE_HCLK | RCC_CLOCKTYPE_SYSCLK
 8002e10:	003b      	movs	r3, r7
 8002e12:	2207      	movs	r2, #7
 8002e14:	601a      	str	r2, [r3, #0]
			| RCC_CLOCKTYPE_PCLK1;
	RCC_ClkInitStruct.SYSCLKSource = RCC_SYSCLKSOURCE_PLLCLK;
 8002e16:	003b      	movs	r3, r7
 8002e18:	2202      	movs	r2, #2
 8002e1a:	605a      	str	r2, [r3, #4]
	RCC_ClkInitStruct.AHBCLKDivider = RCC_SYSCLK_DIV1;
 8002e1c:	003b      	movs	r3, r7
 8002e1e:	2200      	movs	r2, #0
 8002e20:	609a      	str	r2, [r3, #8]
	RCC_ClkInitStruct.APB1CLKDivider = RCC_HCLK_DIV1;
 8002e22:	003b      	movs	r3, r7
 8002e24:	2200      	movs	r2, #0
 8002e26:	60da      	str	r2, [r3, #12]

	if (HAL_RCC_ClockConfig(&RCC_ClkInitStruct, FLASH_LATENCY_1) != HAL_OK) {
 8002e28:	003b      	movs	r3, r7
 8002e2a:	2101      	movs	r1, #1
 8002e2c:	0018      	movs	r0, r3
 8002e2e:	f7fe f9e1 	bl	80011f4 <HAL_RCC_ClockConfig>
 8002e32:	1e03      	subs	r3, r0, #0
 8002e34:	d003      	beq.n	8002e3e <RCC_CONFIG_48MHZ+0x96>
		print("Error2 in clock\n\r");
 8002e36:	4b05      	ldr	r3, [pc, #20]	; (8002e4c <RCC_CONFIG_48MHZ+0xa4>)
 8002e38:	0018      	movs	r0, r3
 8002e3a:	f7ff fe59 	bl	8002af0 <print>
	}
}
 8002e3e:	46c0      	nop			; (mov r8, r8)
 8002e40:	46bd      	mov	sp, r7
 8002e42:	b011      	add	sp, #68	; 0x44
 8002e44:	bd90      	pop	{r4, r7, pc}
 8002e46:	46c0      	nop			; (mov r8, r8)
 8002e48:	080083cc 	.word	0x080083cc
 8002e4c:	080083e0 	.word	0x080083e0

08002e50 <sd_mount>:

//Read 30 bytes from "test.txt" on the SD card
BYTE readBuf[100];
uint8_t b;

void sd_mount() {
 8002e50:	b580      	push	{r7, lr}
 8002e52:	af00      	add	r7, sp, #0
	//Open the file system
	fres = f_mount(&FatFs, "", 1); //1=mount now
 8002e54:	490e      	ldr	r1, [pc, #56]	; (8002e90 <sd_mount+0x40>)
 8002e56:	4b0f      	ldr	r3, [pc, #60]	; (8002e94 <sd_mount+0x44>)
 8002e58:	2201      	movs	r2, #1
 8002e5a:	0018      	movs	r0, r3
 8002e5c:	f003 fbe6 	bl	800662c <f_mount>
 8002e60:	0003      	movs	r3, r0
 8002e62:	001a      	movs	r2, r3
 8002e64:	4b0c      	ldr	r3, [pc, #48]	; (8002e98 <sd_mount+0x48>)
 8002e66:	701a      	strb	r2, [r3, #0]
	if (fres != FR_OK) {
 8002e68:	4b0b      	ldr	r3, [pc, #44]	; (8002e98 <sd_mount+0x48>)
 8002e6a:	781b      	ldrb	r3, [r3, #0]
 8002e6c:	2b00      	cmp	r3, #0
 8002e6e:	d00b      	beq.n	8002e88 <sd_mount+0x38>
		print("Error in Mounting --- ");
 8002e70:	4b0a      	ldr	r3, [pc, #40]	; (8002e9c <sd_mount+0x4c>)
 8002e72:	0018      	movs	r0, r3
 8002e74:	f7ff fe3c 	bl	8002af0 <print>
		print("f_mount error (%i)\r\n", fres);
 8002e78:	4b07      	ldr	r3, [pc, #28]	; (8002e98 <sd_mount+0x48>)
 8002e7a:	781b      	ldrb	r3, [r3, #0]
 8002e7c:	001a      	movs	r2, r3
 8002e7e:	4b08      	ldr	r3, [pc, #32]	; (8002ea0 <sd_mount+0x50>)
 8002e80:	0011      	movs	r1, r2
 8002e82:	0018      	movs	r0, r3
 8002e84:	f7ff fe34 	bl	8002af0 <print>
//		while (1)
//			;
	}
}
 8002e88:	46c0      	nop			; (mov r8, r8)
 8002e8a:	46bd      	mov	sp, r7
 8002e8c:	bd80      	pop	{r7, pc}
 8002e8e:	46c0      	nop			; (mov r8, r8)
 8002e90:	080083f4 	.word	0x080083f4
 8002e94:	2000026c 	.word	0x2000026c
 8002e98:	200006c8 	.word	0x200006c8
 8002e9c:	080083f8 	.word	0x080083f8
 8002ea0:	08008410 	.word	0x08008410

08002ea4 <sd_space>:

void sd_space() {
 8002ea4:	b580      	push	{r7, lr}
 8002ea6:	b084      	sub	sp, #16
 8002ea8:	af00      	add	r7, sp, #0
	//Let's get some statistics from the SD card
	DWORD free_clusters, free_sectors, total_sectors;

	FATFS *getFreeFs;

	fres = f_getfree("", &free_clusters, &getFreeFs);
 8002eaa:	003a      	movs	r2, r7
 8002eac:	1d39      	adds	r1, r7, #4
 8002eae:	4b1a      	ldr	r3, [pc, #104]	; (8002f18 <sd_space+0x74>)
 8002eb0:	0018      	movs	r0, r3
 8002eb2:	f004 fbe3 	bl	800767c <f_getfree>
 8002eb6:	0003      	movs	r3, r0
 8002eb8:	001a      	movs	r2, r3
 8002eba:	4b18      	ldr	r3, [pc, #96]	; (8002f1c <sd_space+0x78>)
 8002ebc:	701a      	strb	r2, [r3, #0]
	if (fres != FR_OK) {
 8002ebe:	4b17      	ldr	r3, [pc, #92]	; (8002f1c <sd_space+0x78>)
 8002ec0:	781b      	ldrb	r3, [r3, #0]
 8002ec2:	2b00      	cmp	r3, #0
 8002ec4:	d00b      	beq.n	8002ede <sd_space+0x3a>
		print("Error in fetching space data --- ");
 8002ec6:	4b16      	ldr	r3, [pc, #88]	; (8002f20 <sd_space+0x7c>)
 8002ec8:	0018      	movs	r0, r3
 8002eca:	f7ff fe11 	bl	8002af0 <print>
		print("f_getfree error (%i)\r\n", fres);
 8002ece:	4b13      	ldr	r3, [pc, #76]	; (8002f1c <sd_space+0x78>)
 8002ed0:	781b      	ldrb	r3, [r3, #0]
 8002ed2:	001a      	movs	r2, r3
 8002ed4:	4b13      	ldr	r3, [pc, #76]	; (8002f24 <sd_space+0x80>)
 8002ed6:	0011      	movs	r1, r2
 8002ed8:	0018      	movs	r0, r3
 8002eda:	f7ff fe09 	bl	8002af0 <print>
//		while (1)
//			;
	}

	//Formula comes from ChaN's documentation
	total_sectors = (getFreeFs->n_fatent - 2) * getFreeFs->csize;
 8002ede:	683a      	ldr	r2, [r7, #0]
 8002ee0:	2385      	movs	r3, #133	; 0x85
 8002ee2:	009b      	lsls	r3, r3, #2
 8002ee4:	58d3      	ldr	r3, [r2, r3]
 8002ee6:	3b02      	subs	r3, #2
 8002ee8:	683a      	ldr	r2, [r7, #0]
 8002eea:	490f      	ldr	r1, [pc, #60]	; (8002f28 <sd_space+0x84>)
 8002eec:	5c52      	ldrb	r2, [r2, r1]
 8002eee:	4353      	muls	r3, r2
 8002ef0:	60fb      	str	r3, [r7, #12]
	free_sectors = free_clusters * getFreeFs->csize;
 8002ef2:	683b      	ldr	r3, [r7, #0]
 8002ef4:	4a0c      	ldr	r2, [pc, #48]	; (8002f28 <sd_space+0x84>)
 8002ef6:	5c9b      	ldrb	r3, [r3, r2]
 8002ef8:	001a      	movs	r2, r3
 8002efa:	687b      	ldr	r3, [r7, #4]
 8002efc:	4353      	muls	r3, r2
 8002efe:	60bb      	str	r3, [r7, #8]

	print(
 8002f00:	68fb      	ldr	r3, [r7, #12]
 8002f02:	0859      	lsrs	r1, r3, #1
 8002f04:	68bb      	ldr	r3, [r7, #8]
 8002f06:	085a      	lsrs	r2, r3, #1
 8002f08:	4b08      	ldr	r3, [pc, #32]	; (8002f2c <sd_space+0x88>)
 8002f0a:	0018      	movs	r0, r3
 8002f0c:	f7ff fdf0 	bl	8002af0 <print>
			"SD card stats:\r\n%10lu KiB total drive space.\r\n%10lu KiB available.\r\n",
			total_sectors / 2, free_sectors / 2);
}
 8002f10:	46c0      	nop			; (mov r8, r8)
 8002f12:	46bd      	mov	sp, r7
 8002f14:	b004      	add	sp, #16
 8002f16:	bd80      	pop	{r7, pc}
 8002f18:	080083f4 	.word	0x080083f4
 8002f1c:	200006c8 	.word	0x200006c8
 8002f20:	08008428 	.word	0x08008428
 8002f24:	0800844c 	.word	0x0800844c
 8002f28:	00000202 	.word	0x00000202
 8002f2c:	08008464 	.word	0x08008464

08002f30 <sd_openFile>:

int sd_openFile(char *c) {
 8002f30:	b590      	push	{r4, r7, lr}
 8002f32:	b08b      	sub	sp, #44	; 0x2c
 8002f34:	af00      	add	r7, sp, #0
 8002f36:	6078      	str	r0, [r7, #4]
	BYTE fileName[30];
	strncpy((char*) fileName, c, 30);
 8002f38:	6879      	ldr	r1, [r7, #4]
 8002f3a:	2408      	movs	r4, #8
 8002f3c:	193b      	adds	r3, r7, r4
 8002f3e:	221e      	movs	r2, #30
 8002f40:	0018      	movs	r0, r3
 8002f42:	f004 fd59 	bl	80079f8 <strncpy>
	fres = f_open(&fil, c, FA_READ);
 8002f46:	6879      	ldr	r1, [r7, #4]
 8002f48:	4b10      	ldr	r3, [pc, #64]	; (8002f8c <sd_openFile+0x5c>)
 8002f4a:	2201      	movs	r2, #1
 8002f4c:	0018      	movs	r0, r3
 8002f4e:	f003 fbbd 	bl	80066cc <f_open>
 8002f52:	0003      	movs	r3, r0
 8002f54:	001a      	movs	r2, r3
 8002f56:	4b0e      	ldr	r3, [pc, #56]	; (8002f90 <sd_openFile+0x60>)
 8002f58:	701a      	strb	r2, [r3, #0]
	if (fres != FR_OK) {
 8002f5a:	4b0d      	ldr	r3, [pc, #52]	; (8002f90 <sd_openFile+0x60>)
 8002f5c:	781b      	ldrb	r3, [r3, #0]
 8002f5e:	2b00      	cmp	r3, #0
 8002f60:	d00f      	beq.n	8002f82 <sd_openFile+0x52>
		print("Could not open '%s'", fileName);
 8002f62:	193a      	adds	r2, r7, r4
 8002f64:	4b0b      	ldr	r3, [pc, #44]	; (8002f94 <sd_openFile+0x64>)
 8002f66:	0011      	movs	r1, r2
 8002f68:	0018      	movs	r0, r3
 8002f6a:	f7ff fdc1 	bl	8002af0 <print>
		print("f_open error (%i)\r\n", fres);
 8002f6e:	4b08      	ldr	r3, [pc, #32]	; (8002f90 <sd_openFile+0x60>)
 8002f70:	781b      	ldrb	r3, [r3, #0]
 8002f72:	001a      	movs	r2, r3
 8002f74:	4b08      	ldr	r3, [pc, #32]	; (8002f98 <sd_openFile+0x68>)
 8002f76:	0011      	movs	r1, r2
 8002f78:	0018      	movs	r0, r3
 8002f7a:	f7ff fdb9 	bl	8002af0 <print>
		return 0;
 8002f7e:	2300      	movs	r3, #0
 8002f80:	e000      	b.n	8002f84 <sd_openFile+0x54>
	}
	return 1;
 8002f82:	2301      	movs	r3, #1
//	print("I was able to open '%s' for reading!\r\n", fileName);
}
 8002f84:	0018      	movs	r0, r3
 8002f86:	46bd      	mov	sp, r7
 8002f88:	b00b      	add	sp, #44	; 0x2c
 8002f8a:	bd90      	pop	{r4, r7, pc}
 8002f8c:	2000049c 	.word	0x2000049c
 8002f90:	200006c8 	.word	0x200006c8
 8002f94:	080084ac 	.word	0x080084ac
 8002f98:	080084c0 	.word	0x080084c0

08002f9c <sd_closeFile>:
		print("f_open error (%i).\r\n", fres);
		return 0;
	}
}

uint8_t sd_closeFile() {
 8002f9c:	b580      	push	{r7, lr}
 8002f9e:	af00      	add	r7, sp, #0
	fres = f_close(&fil);
 8002fa0:	4b0e      	ldr	r3, [pc, #56]	; (8002fdc <sd_closeFile+0x40>)
 8002fa2:	0018      	movs	r0, r3
 8002fa4:	f004 f886 	bl	80070b4 <f_close>
 8002fa8:	0003      	movs	r3, r0
 8002faa:	001a      	movs	r2, r3
 8002fac:	4b0c      	ldr	r3, [pc, #48]	; (8002fe0 <sd_closeFile+0x44>)
 8002fae:	701a      	strb	r2, [r3, #0]
	if (fres == FR_OK) {
 8002fb0:	4b0b      	ldr	r3, [pc, #44]	; (8002fe0 <sd_closeFile+0x44>)
 8002fb2:	781b      	ldrb	r3, [r3, #0]
 8002fb4:	2b00      	cmp	r3, #0
 8002fb6:	d101      	bne.n	8002fbc <sd_closeFile+0x20>
		return 1;
 8002fb8:	2301      	movs	r3, #1
 8002fba:	e00c      	b.n	8002fd6 <sd_closeFile+0x3a>
	} else {
		print("Could not close the file.");
 8002fbc:	4b09      	ldr	r3, [pc, #36]	; (8002fe4 <sd_closeFile+0x48>)
 8002fbe:	0018      	movs	r0, r3
 8002fc0:	f7ff fd96 	bl	8002af0 <print>
		print("f_close error (%i).\r\n", fres);
 8002fc4:	4b06      	ldr	r3, [pc, #24]	; (8002fe0 <sd_closeFile+0x44>)
 8002fc6:	781b      	ldrb	r3, [r3, #0]
 8002fc8:	001a      	movs	r2, r3
 8002fca:	4b07      	ldr	r3, [pc, #28]	; (8002fe8 <sd_closeFile+0x4c>)
 8002fcc:	0011      	movs	r1, r2
 8002fce:	0018      	movs	r0, r3
 8002fd0:	f7ff fd8e 	bl	8002af0 <print>
		return 0;
 8002fd4:	2300      	movs	r3, #0
	}
}
 8002fd6:	0018      	movs	r0, r3
 8002fd8:	46bd      	mov	sp, r7
 8002fda:	bd80      	pop	{r7, pc}
 8002fdc:	2000049c 	.word	0x2000049c
 8002fe0:	200006c8 	.word	0x200006c8
 8002fe4:	08008504 	.word	0x08008504
 8002fe8:	08008520 	.word	0x08008520

08002fec <sd_read8bits>:
		print("f_lseek error (%i).\r\n", fres);
		return 0;
	}
}

char sd_read8bits(char *c, int offset) {
 8002fec:	b590      	push	{r4, r7, lr}
 8002fee:	b08d      	sub	sp, #52	; 0x34
 8002ff0:	af00      	add	r7, sp, #0
 8002ff2:	6078      	str	r0, [r7, #4]
 8002ff4:	6039      	str	r1, [r7, #0]
	BYTE fileName[30];
	strncpy((char*) fileName, c, 30);
 8002ff6:	6879      	ldr	r1, [r7, #4]
 8002ff8:	230c      	movs	r3, #12
 8002ffa:	18fb      	adds	r3, r7, r3
 8002ffc:	221e      	movs	r2, #30
 8002ffe:	0018      	movs	r0, r3
 8003000:	f004 fcfa 	bl	80079f8 <strncpy>
	char data_buf[2];
	fres = f_lseek(&fil, offset);
 8003004:	683a      	ldr	r2, [r7, #0]
 8003006:	4b14      	ldr	r3, [pc, #80]	; (8003058 <sd_read8bits+0x6c>)
 8003008:	0011      	movs	r1, r2
 800300a:	0018      	movs	r0, r3
 800300c:	f004 f88a 	bl	8007124 <f_lseek>
 8003010:	0003      	movs	r3, r0
 8003012:	001a      	movs	r2, r3
 8003014:	4b11      	ldr	r3, [pc, #68]	; (800305c <sd_read8bits+0x70>)
 8003016:	701a      	strb	r2, [r3, #0]

	TCHAR *rres = f_gets(data_buf, 2, &fil);
 8003018:	4a0f      	ldr	r2, [pc, #60]	; (8003058 <sd_read8bits+0x6c>)
 800301a:	2408      	movs	r4, #8
 800301c:	193b      	adds	r3, r7, r4
 800301e:	2102      	movs	r1, #2
 8003020:	0018      	movs	r0, r3
 8003022:	f004 fc0f 	bl	8007844 <f_gets>
 8003026:	0003      	movs	r3, r0
 8003028:	62fb      	str	r3, [r7, #44]	; 0x2c
	if (rres != 0) {
 800302a:	6afb      	ldr	r3, [r7, #44]	; 0x2c
 800302c:	2b00      	cmp	r3, #0
 800302e:	d002      	beq.n	8003036 <sd_read8bits+0x4a>
//		print("Read string from '%s' contents: %c\r\n", fileName, data_buf[0]);
//		print("Read string from '%s' contents: %c\r\n", fileName, data_buf[1]);
		return data_buf[0];
 8003030:	193b      	adds	r3, r7, r4
 8003032:	781b      	ldrb	r3, [r3, #0]
 8003034:	e00c      	b.n	8003050 <sd_read8bits+0x64>
	} else {
		print("Error in read8 --- ");
 8003036:	4b0a      	ldr	r3, [pc, #40]	; (8003060 <sd_read8bits+0x74>)
 8003038:	0018      	movs	r0, r3
 800303a:	f7ff fd59 	bl	8002af0 <print>
		print("f_gets error (%i)\r\n", fres);
 800303e:	4b07      	ldr	r3, [pc, #28]	; (800305c <sd_read8bits+0x70>)
 8003040:	781b      	ldrb	r3, [r3, #0]
 8003042:	001a      	movs	r2, r3
 8003044:	4b07      	ldr	r3, [pc, #28]	; (8003064 <sd_read8bits+0x78>)
 8003046:	0011      	movs	r1, r2
 8003048:	0018      	movs	r0, r3
 800304a:	f7ff fd51 	bl	8002af0 <print>
		return '\0';
 800304e:	2300      	movs	r3, #0
	}
}
 8003050:	0018      	movs	r0, r3
 8003052:	46bd      	mov	sp, r7
 8003054:	b00d      	add	sp, #52	; 0x34
 8003056:	bd90      	pop	{r4, r7, pc}
 8003058:	2000049c 	.word	0x2000049c
 800305c:	200006c8 	.word	0x200006c8
 8003060:	08008570 	.word	0x08008570
 8003064:	08008584 	.word	0x08008584

08003068 <sd_read32bits>:
	result = sd_read24bits(c, offset);
	sd_closeFile();
	return result;
}

uint32_t sd_read32bits(char *c, int offset) {
 8003068:	b5b0      	push	{r4, r5, r7, lr}
 800306a:	b084      	sub	sp, #16
 800306c:	af00      	add	r7, sp, #0
 800306e:	6078      	str	r0, [r7, #4]
 8003070:	6039      	str	r1, [r7, #0]
	uint32_t result;
	((uint8_t*) &result)[0] = sd_read8bits(c, offset);
 8003072:	250c      	movs	r5, #12
 8003074:	197c      	adds	r4, r7, r5
 8003076:	683a      	ldr	r2, [r7, #0]
 8003078:	687b      	ldr	r3, [r7, #4]
 800307a:	0011      	movs	r1, r2
 800307c:	0018      	movs	r0, r3
 800307e:	f7ff ffb5 	bl	8002fec <sd_read8bits>
 8003082:	0003      	movs	r3, r0
 8003084:	7023      	strb	r3, [r4, #0]
	((uint8_t*) &result)[1] = sd_read8bits(c, offset + 1);
 8003086:	683b      	ldr	r3, [r7, #0]
 8003088:	1c5a      	adds	r2, r3, #1
 800308a:	197c      	adds	r4, r7, r5
 800308c:	3401      	adds	r4, #1
 800308e:	687b      	ldr	r3, [r7, #4]
 8003090:	0011      	movs	r1, r2
 8003092:	0018      	movs	r0, r3
 8003094:	f7ff ffaa 	bl	8002fec <sd_read8bits>
 8003098:	0003      	movs	r3, r0
 800309a:	7023      	strb	r3, [r4, #0]
	((uint8_t*) &result)[2] = sd_read8bits(c, offset + 2);
 800309c:	683b      	ldr	r3, [r7, #0]
 800309e:	1c9a      	adds	r2, r3, #2
 80030a0:	197c      	adds	r4, r7, r5
 80030a2:	3402      	adds	r4, #2
 80030a4:	687b      	ldr	r3, [r7, #4]
 80030a6:	0011      	movs	r1, r2
 80030a8:	0018      	movs	r0, r3
 80030aa:	f7ff ff9f 	bl	8002fec <sd_read8bits>
 80030ae:	0003      	movs	r3, r0
 80030b0:	7023      	strb	r3, [r4, #0]
	((uint8_t*) &result)[3] = sd_read8bits(c, offset + 3);
 80030b2:	683b      	ldr	r3, [r7, #0]
 80030b4:	1cda      	adds	r2, r3, #3
 80030b6:	197c      	adds	r4, r7, r5
 80030b8:	3403      	adds	r4, #3
 80030ba:	687b      	ldr	r3, [r7, #4]
 80030bc:	0011      	movs	r1, r2
 80030be:	0018      	movs	r0, r3
 80030c0:	f7ff ff94 	bl	8002fec <sd_read8bits>
 80030c4:	0003      	movs	r3, r0
 80030c6:	7023      	strb	r3, [r4, #0]
	return result;
 80030c8:	68fb      	ldr	r3, [r7, #12]
}
 80030ca:	0018      	movs	r0, r3
 80030cc:	46bd      	mov	sp, r7
 80030ce:	b004      	add	sp, #16
 80030d0:	bdb0      	pop	{r4, r5, r7, pc}
	...

080030d4 <sd_deMount>:

	//Be a tidy kiwi - don't forget to close your file!
	f_close(&fil);
}

void sd_deMount() {
 80030d4:	b580      	push	{r7, lr}
 80030d6:	af00      	add	r7, sp, #0
	//We're done, so de-mount the drive
	f_mount(NULL, "", 0);
 80030d8:	4b04      	ldr	r3, [pc, #16]	; (80030ec <sd_deMount+0x18>)
 80030da:	2200      	movs	r2, #0
 80030dc:	0019      	movs	r1, r3
 80030de:	2000      	movs	r0, #0
 80030e0:	f003 faa4 	bl	800662c <f_mount>
}
 80030e4:	46c0      	nop			; (mov r8, r8)
 80030e6:	46bd      	mov	sp, r7
 80030e8:	bd80      	pop	{r7, pc}
 80030ea:	46c0      	nop			; (mov r8, r8)
 80030ec:	080083f4 	.word	0x080083f4

080030f0 <displayPic24bit>:
	offset += 4;
//	sd_closeFile();
	f_close(&fil);
}

void displayPic24bit(char *c, uint16_t row, uint16_t col) {
 80030f0:	b5f0      	push	{r4, r5, r6, r7, lr}
 80030f2:	46c6      	mov	lr, r8
 80030f4:	b500      	push	{lr}
 80030f6:	b0a2      	sub	sp, #136	; 0x88
 80030f8:	af00      	add	r7, sp, #0
 80030fa:	63f8      	str	r0, [r7, #60]	; 0x3c
 80030fc:	000b      	movs	r3, r1
 80030fe:	0011      	movs	r1, r2
 8003100:	223a      	movs	r2, #58	; 0x3a
 8003102:	18ba      	adds	r2, r7, r2
 8003104:	8013      	strh	r3, [r2, #0]
 8003106:	2438      	movs	r4, #56	; 0x38
 8003108:	193a      	adds	r2, r7, r4
 800310a:	1c0b      	adds	r3, r1, #0
 800310c:	8013      	strh	r3, [r2, #0]
 800310e:	466b      	mov	r3, sp
 8003110:	4698      	mov	r8, r3

	sd_openFile(c);
 8003112:	6bfb      	ldr	r3, [r7, #60]	; 0x3c
 8003114:	0018      	movs	r0, r3
 8003116:	f7ff ff0b 	bl	8002f30 <sd_openFile>

	uint32_t picWidth, picHeight;
	uint32_t k = 0;
 800311a:	2300      	movs	r3, #0
 800311c:	67fb      	str	r3, [r7, #124]	; 0x7c
	bool drawFlag = true;
 800311e:	234b      	movs	r3, #75	; 0x4b
 8003120:	0021      	movs	r1, r4
 8003122:	1858      	adds	r0, r3, r1
 8003124:	19c2      	adds	r2, r0, r7
 8003126:	2301      	movs	r3, #1
 8003128:	7013      	strb	r3, [r2, #0]
	uint8_t r, b, g;
	uint16_t color_buf_val = 0;
 800312a:	234c      	movs	r3, #76	; 0x4c
 800312c:	1858      	adds	r0, r3, r1
 800312e:	19c2      	adds	r2, r0, r7
 8003130:	2300      	movs	r3, #0
 8003132:	8013      	strh	r3, [r2, #0]
	uint16_t row_pt = row, col_pt = col;
 8003134:	232e      	movs	r3, #46	; 0x2e
 8003136:	1858      	adds	r0, r3, r1
 8003138:	19c2      	adds	r2, r0, r7
 800313a:	233a      	movs	r3, #58	; 0x3a
 800313c:	18fb      	adds	r3, r7, r3
 800313e:	881b      	ldrh	r3, [r3, #0]
 8003140:	8013      	strh	r3, [r2, #0]
 8003142:	232c      	movs	r3, #44	; 0x2c
 8003144:	000c      	movs	r4, r1
 8003146:	191a      	adds	r2, r3, r4
 8003148:	19d2      	adds	r2, r2, r7
 800314a:	193b      	adds	r3, r7, r4
 800314c:	881b      	ldrh	r3, [r3, #0]
 800314e:	8013      	strh	r3, [r2, #0]
	bool ft = true;
 8003150:	234f      	movs	r3, #79	; 0x4f
 8003152:	191a      	adds	r2, r3, r4
 8003154:	19d2      	adds	r2, r2, r7
 8003156:	2301      	movs	r3, #1
 8003158:	7013      	strb	r3, [r2, #0]
	uint8_t rotation = LCD_getRotation();
 800315a:	f001 f879 	bl	8004250 <LCD_getRotation>
 800315e:	0003      	movs	r3, r0
 8003160:	222b      	movs	r2, #43	; 0x2b
 8003162:	0021      	movs	r1, r4
 8003164:	1852      	adds	r2, r2, r1
 8003166:	19d2      	adds	r2, r2, r7
 8003168:	7013      	strb	r3, [r2, #0]
	uint16_t coordR1 = 0, coordC1 = 0, coordR2 = 0, coordC2 = 0;
 800316a:	2342      	movs	r3, #66	; 0x42
 800316c:	185a      	adds	r2, r3, r1
 800316e:	19d2      	adds	r2, r2, r7
 8003170:	2300      	movs	r3, #0
 8003172:	8013      	strh	r3, [r2, #0]
 8003174:	2340      	movs	r3, #64	; 0x40
 8003176:	185a      	adds	r2, r3, r1
 8003178:	19d2      	adds	r2, r2, r7
 800317a:	2300      	movs	r3, #0
 800317c:	8013      	strh	r3, [r2, #0]
 800317e:	233e      	movs	r3, #62	; 0x3e
 8003180:	185a      	adds	r2, r3, r1
 8003182:	19d2      	adds	r2, r2, r7
 8003184:	2300      	movs	r3, #0
 8003186:	8013      	strh	r3, [r2, #0]
 8003188:	233c      	movs	r3, #60	; 0x3c
 800318a:	185a      	adds	r2, r3, r1
 800318c:	19d2      	adds	r2, r2, r7
 800318e:	2300      	movs	r3, #0
 8003190:	8013      	strh	r3, [r2, #0]

	uint32_t offsetPointer = sd_read8bits(c, 10);
 8003192:	6bfb      	ldr	r3, [r7, #60]	; 0x3c
 8003194:	210a      	movs	r1, #10
 8003196:	0018      	movs	r0, r3
 8003198:	f7ff ff28 	bl	8002fec <sd_read8bits>
 800319c:	0003      	movs	r3, r0
 800319e:	673b      	str	r3, [r7, #112]	; 0x70
	print("Offset: %d\n", offsetPointer);
 80031a0:	6f3a      	ldr	r2, [r7, #112]	; 0x70
 80031a2:	4bdd      	ldr	r3, [pc, #884]	; (8003518 <displayPic24bit+0x428>)
 80031a4:	0011      	movs	r1, r2
 80031a6:	0018      	movs	r0, r3
 80031a8:	f7ff fca2 	bl	8002af0 <print>
	picWidth = sd_read32bits(c, 18);
 80031ac:	6bfb      	ldr	r3, [r7, #60]	; 0x3c
 80031ae:	2112      	movs	r1, #18
 80031b0:	0018      	movs	r0, r3
 80031b2:	f7ff ff59 	bl	8003068 <sd_read32bits>
 80031b6:	0003      	movs	r3, r0
 80031b8:	65fb      	str	r3, [r7, #92]	; 0x5c
	print("Width: %d\n", picWidth);
 80031ba:	6dfa      	ldr	r2, [r7, #92]	; 0x5c
 80031bc:	4bd7      	ldr	r3, [pc, #860]	; (800351c <displayPic24bit+0x42c>)
 80031be:	0011      	movs	r1, r2
 80031c0:	0018      	movs	r0, r3
 80031c2:	f7ff fc95 	bl	8002af0 <print>
	picHeight = sd_read32bits(c, 22);
 80031c6:	6bfb      	ldr	r3, [r7, #60]	; 0x3c
 80031c8:	2116      	movs	r1, #22
 80031ca:	0018      	movs	r0, r3
 80031cc:	f7ff ff4c 	bl	8003068 <sd_read32bits>
 80031d0:	0003      	movs	r3, r0
 80031d2:	65bb      	str	r3, [r7, #88]	; 0x58
	print("Height: %d\n", picHeight);
 80031d4:	6dba      	ldr	r2, [r7, #88]	; 0x58
 80031d6:	4bd2      	ldr	r3, [pc, #840]	; (8003520 <displayPic24bit+0x430>)
 80031d8:	0011      	movs	r1, r2
 80031da:	0018      	movs	r0, r3
 80031dc:	f7ff fc88 	bl	8002af0 <print>
	uint8_t color_buf[3 * picWidth];
 80031e0:	6dfa      	ldr	r2, [r7, #92]	; 0x5c
 80031e2:	0013      	movs	r3, r2
 80031e4:	005b      	lsls	r3, r3, #1
 80031e6:	189c      	adds	r4, r3, r2
 80031e8:	0023      	movs	r3, r4
 80031ea:	3b01      	subs	r3, #1
 80031ec:	657b      	str	r3, [r7, #84]	; 0x54
 80031ee:	61bc      	str	r4, [r7, #24]
 80031f0:	2300      	movs	r3, #0
 80031f2:	61fb      	str	r3, [r7, #28]
 80031f4:	69b9      	ldr	r1, [r7, #24]
 80031f6:	69fa      	ldr	r2, [r7, #28]
 80031f8:	000b      	movs	r3, r1
 80031fa:	0f5b      	lsrs	r3, r3, #29
 80031fc:	0010      	movs	r0, r2
 80031fe:	00c6      	lsls	r6, r0, #3
 8003200:	431e      	orrs	r6, r3
 8003202:	000b      	movs	r3, r1
 8003204:	00dd      	lsls	r5, r3, #3
 8003206:	613c      	str	r4, [r7, #16]
 8003208:	2300      	movs	r3, #0
 800320a:	617b      	str	r3, [r7, #20]
 800320c:	6939      	ldr	r1, [r7, #16]
 800320e:	697a      	ldr	r2, [r7, #20]
 8003210:	000b      	movs	r3, r1
 8003212:	0f5b      	lsrs	r3, r3, #29
 8003214:	0010      	movs	r0, r2
 8003216:	00c0      	lsls	r0, r0, #3
 8003218:	6378      	str	r0, [r7, #52]	; 0x34
 800321a:	6b78      	ldr	r0, [r7, #52]	; 0x34
 800321c:	4318      	orrs	r0, r3
 800321e:	6378      	str	r0, [r7, #52]	; 0x34
 8003220:	000b      	movs	r3, r1
 8003222:	00db      	lsls	r3, r3, #3
 8003224:	633b      	str	r3, [r7, #48]	; 0x30
 8003226:	1de3      	adds	r3, r4, #7
 8003228:	08db      	lsrs	r3, r3, #3
 800322a:	00db      	lsls	r3, r3, #3
 800322c:	466a      	mov	r2, sp
 800322e:	1ad3      	subs	r3, r2, r3
 8003230:	469d      	mov	sp, r3
 8003232:	466b      	mov	r3, sp
 8003234:	3300      	adds	r3, #0
 8003236:	653b      	str	r3, [r7, #80]	; 0x50
	uint16_t pixel_buf[picWidth];
 8003238:	6dfb      	ldr	r3, [r7, #92]	; 0x5c
 800323a:	001a      	movs	r2, r3
 800323c:	3a01      	subs	r2, #1
 800323e:	64fa      	str	r2, [r7, #76]	; 0x4c
 8003240:	60bb      	str	r3, [r7, #8]
 8003242:	2200      	movs	r2, #0
 8003244:	60fa      	str	r2, [r7, #12]
 8003246:	68b8      	ldr	r0, [r7, #8]
 8003248:	68f9      	ldr	r1, [r7, #12]
 800324a:	0002      	movs	r2, r0
 800324c:	0f12      	lsrs	r2, r2, #28
 800324e:	000d      	movs	r5, r1
 8003250:	012d      	lsls	r5, r5, #4
 8003252:	62fd      	str	r5, [r7, #44]	; 0x2c
 8003254:	6afd      	ldr	r5, [r7, #44]	; 0x2c
 8003256:	4315      	orrs	r5, r2
 8003258:	62fd      	str	r5, [r7, #44]	; 0x2c
 800325a:	0002      	movs	r2, r0
 800325c:	0112      	lsls	r2, r2, #4
 800325e:	62ba      	str	r2, [r7, #40]	; 0x28
 8003260:	603b      	str	r3, [r7, #0]
 8003262:	2200      	movs	r2, #0
 8003264:	607a      	str	r2, [r7, #4]
 8003266:	6838      	ldr	r0, [r7, #0]
 8003268:	6879      	ldr	r1, [r7, #4]
 800326a:	0002      	movs	r2, r0
 800326c:	0f12      	lsrs	r2, r2, #28
 800326e:	000d      	movs	r5, r1
 8003270:	012d      	lsls	r5, r5, #4
 8003272:	627d      	str	r5, [r7, #36]	; 0x24
 8003274:	6a7d      	ldr	r5, [r7, #36]	; 0x24
 8003276:	4315      	orrs	r5, r2
 8003278:	627d      	str	r5, [r7, #36]	; 0x24
 800327a:	0002      	movs	r2, r0
 800327c:	0112      	lsls	r2, r2, #4
 800327e:	623a      	str	r2, [r7, #32]
 8003280:	005b      	lsls	r3, r3, #1
 8003282:	3307      	adds	r3, #7
 8003284:	08db      	lsrs	r3, r3, #3
 8003286:	00db      	lsls	r3, r3, #3
 8003288:	466a      	mov	r2, sp
 800328a:	1ad3      	subs	r3, r2, r3
 800328c:	469d      	mov	sp, r3
 800328e:	466b      	mov	r3, sp
 8003290:	3301      	adds	r3, #1
 8003292:	085b      	lsrs	r3, r3, #1
 8003294:	005b      	lsls	r3, r3, #1
 8003296:	64bb      	str	r3, [r7, #72]	; 0x48

	if (picWidth + row > 240) {
 8003298:	213a      	movs	r1, #58	; 0x3a
 800329a:	187b      	adds	r3, r7, r1
 800329c:	881a      	ldrh	r2, [r3, #0]
 800329e:	6dfb      	ldr	r3, [r7, #92]	; 0x5c
 80032a0:	18d3      	adds	r3, r2, r3
 80032a2:	2bf0      	cmp	r3, #240	; 0xf0
 80032a4:	d902      	bls.n	80032ac <displayPic24bit+0x1bc>
		row = 0;
 80032a6:	187b      	adds	r3, r7, r1
 80032a8:	2200      	movs	r2, #0
 80032aa:	801a      	strh	r2, [r3, #0]
	}
	if (picHeight + col > 320) {
 80032ac:	2138      	movs	r1, #56	; 0x38
 80032ae:	187b      	adds	r3, r7, r1
 80032b0:	881a      	ldrh	r2, [r3, #0]
 80032b2:	6dbb      	ldr	r3, [r7, #88]	; 0x58
 80032b4:	18d2      	adds	r2, r2, r3
 80032b6:	23a0      	movs	r3, #160	; 0xa0
 80032b8:	005b      	lsls	r3, r3, #1
 80032ba:	429a      	cmp	r2, r3
 80032bc:	d902      	bls.n	80032c4 <displayPic24bit+0x1d4>
		col = 0;
 80032be:	187b      	adds	r3, r7, r1
 80032c0:	2200      	movs	r2, #0
 80032c2:	801a      	strh	r2, [r3, #0]
	}

	if ((rotation & 0x01) == 0) {
 80032c4:	232b      	movs	r3, #43	; 0x2b
 80032c6:	2138      	movs	r1, #56	; 0x38
 80032c8:	185b      	adds	r3, r3, r1
 80032ca:	19db      	adds	r3, r3, r7
 80032cc:	781b      	ldrb	r3, [r3, #0]
 80032ce:	2201      	movs	r2, #1
 80032d0:	4013      	ands	r3, r2
 80032d2:	d123      	bne.n	800331c <displayPic24bit+0x22c>
		coordR1 = row;
 80032d4:	2342      	movs	r3, #66	; 0x42
 80032d6:	185b      	adds	r3, r3, r1
 80032d8:	19db      	adds	r3, r3, r7
 80032da:	203a      	movs	r0, #58	; 0x3a
 80032dc:	183a      	adds	r2, r7, r0
 80032de:	8812      	ldrh	r2, [r2, #0]
 80032e0:	801a      	strh	r2, [r3, #0]
		coordC1 = col;
 80032e2:	2340      	movs	r3, #64	; 0x40
 80032e4:	185b      	adds	r3, r3, r1
 80032e6:	19db      	adds	r3, r3, r7
 80032e8:	187a      	adds	r2, r7, r1
 80032ea:	8812      	ldrh	r2, [r2, #0]
 80032ec:	801a      	strh	r2, [r3, #0]
		coordR2 = (row + picWidth - 1);
 80032ee:	6dfb      	ldr	r3, [r7, #92]	; 0x5c
 80032f0:	b29a      	uxth	r2, r3
 80032f2:	183b      	adds	r3, r7, r0
 80032f4:	881b      	ldrh	r3, [r3, #0]
 80032f6:	18d3      	adds	r3, r2, r3
 80032f8:	b29a      	uxth	r2, r3
 80032fa:	233e      	movs	r3, #62	; 0x3e
 80032fc:	185b      	adds	r3, r3, r1
 80032fe:	19db      	adds	r3, r3, r7
 8003300:	3a01      	subs	r2, #1
 8003302:	801a      	strh	r2, [r3, #0]
		coordC2 = (col + picHeight - 1);
 8003304:	6dbb      	ldr	r3, [r7, #88]	; 0x58
 8003306:	b29a      	uxth	r2, r3
 8003308:	187b      	adds	r3, r7, r1
 800330a:	881b      	ldrh	r3, [r3, #0]
 800330c:	18d3      	adds	r3, r2, r3
 800330e:	b29a      	uxth	r2, r3
 8003310:	233c      	movs	r3, #60	; 0x3c
 8003312:	185b      	adds	r3, r3, r1
 8003314:	19db      	adds	r3, r3, r7
 8003316:	3a01      	subs	r2, #1
 8003318:	801a      	strh	r2, [r3, #0]
 800331a:	e02a      	b.n	8003372 <displayPic24bit+0x282>
	} else if ((rotation & 0x01) == 1) {
 800331c:	232b      	movs	r3, #43	; 0x2b
 800331e:	2138      	movs	r1, #56	; 0x38
 8003320:	185b      	adds	r3, r3, r1
 8003322:	19db      	adds	r3, r3, r7
 8003324:	781b      	ldrb	r3, [r3, #0]
 8003326:	2201      	movs	r2, #1
 8003328:	4013      	ands	r3, r2
 800332a:	d022      	beq.n	8003372 <displayPic24bit+0x282>
		coordR1 = col;
 800332c:	2342      	movs	r3, #66	; 0x42
 800332e:	185b      	adds	r3, r3, r1
 8003330:	19db      	adds	r3, r3, r7
 8003332:	187a      	adds	r2, r7, r1
 8003334:	8812      	ldrh	r2, [r2, #0]
 8003336:	801a      	strh	r2, [r3, #0]
		coordC1 = row;
 8003338:	2340      	movs	r3, #64	; 0x40
 800333a:	185b      	adds	r3, r3, r1
 800333c:	19db      	adds	r3, r3, r7
 800333e:	203a      	movs	r0, #58	; 0x3a
 8003340:	183a      	adds	r2, r7, r0
 8003342:	8812      	ldrh	r2, [r2, #0]
 8003344:	801a      	strh	r2, [r3, #0]
		coordR2 = (col + picHeight - 1);
 8003346:	6dbb      	ldr	r3, [r7, #88]	; 0x58
 8003348:	b29a      	uxth	r2, r3
 800334a:	187b      	adds	r3, r7, r1
 800334c:	881b      	ldrh	r3, [r3, #0]
 800334e:	18d3      	adds	r3, r2, r3
 8003350:	b29a      	uxth	r2, r3
 8003352:	233e      	movs	r3, #62	; 0x3e
 8003354:	185b      	adds	r3, r3, r1
 8003356:	19db      	adds	r3, r3, r7
 8003358:	3a01      	subs	r2, #1
 800335a:	801a      	strh	r2, [r3, #0]
		coordC2 = (row + picWidth - 1);
 800335c:	6dfb      	ldr	r3, [r7, #92]	; 0x5c
 800335e:	b29a      	uxth	r2, r3
 8003360:	183b      	adds	r3, r7, r0
 8003362:	881b      	ldrh	r3, [r3, #0]
 8003364:	18d3      	adds	r3, r2, r3
 8003366:	b29a      	uxth	r2, r3
 8003368:	233c      	movs	r3, #60	; 0x3c
 800336a:	185b      	adds	r3, r3, r1
 800336c:	19db      	adds	r3, r3, r7
 800336e:	3a01      	subs	r2, #1
 8003370:	801a      	strh	r2, [r3, #0]
	}
	LCD_SetAddrWindow(coordR1, coordC1, coordR2, coordC2);
 8003372:	2342      	movs	r3, #66	; 0x42
 8003374:	2538      	movs	r5, #56	; 0x38
 8003376:	195b      	adds	r3, r3, r5
 8003378:	19db      	adds	r3, r3, r7
 800337a:	8818      	ldrh	r0, [r3, #0]
 800337c:	2340      	movs	r3, #64	; 0x40
 800337e:	195b      	adds	r3, r3, r5
 8003380:	19db      	adds	r3, r3, r7
 8003382:	8819      	ldrh	r1, [r3, #0]
 8003384:	233e      	movs	r3, #62	; 0x3e
 8003386:	195b      	adds	r3, r3, r5
 8003388:	19db      	adds	r3, r3, r7
 800338a:	881a      	ldrh	r2, [r3, #0]
 800338c:	233c      	movs	r3, #60	; 0x3c
 800338e:	195b      	adds	r3, r3, r5
 8003390:	19db      	adds	r3, r3, r7
 8003392:	881b      	ldrh	r3, [r3, #0]
 8003394:	f000 ff66 	bl	8004264 <LCD_SetAddrWindow>

	for (uint32_t i = row + 0; i < row + picHeight; i++) {
 8003398:	233a      	movs	r3, #58	; 0x3a
 800339a:	18fb      	adds	r3, r7, r3
 800339c:	881b      	ldrh	r3, [r3, #0]
 800339e:	66fb      	str	r3, [r7, #108]	; 0x6c
 80033a0:	e0a1      	b.n	80034e6 <displayPic24bit+0x3f6>
		k = 0;
 80033a2:	2300      	movs	r3, #0
 80033a4:	67fb      	str	r3, [r7, #124]	; 0x7c
		ft = true;
 80033a6:	234f      	movs	r3, #79	; 0x4f
 80033a8:	2138      	movs	r1, #56	; 0x38
 80033aa:	185b      	adds	r3, r3, r1
 80033ac:	19db      	adds	r3, r3, r7
 80033ae:	2201      	movs	r2, #1
 80033b0:	701a      	strb	r2, [r3, #0]
		color_buf_val = 0;
 80033b2:	234c      	movs	r3, #76	; 0x4c
 80033b4:	185b      	adds	r3, r3, r1
 80033b6:	19db      	adds	r3, r3, r7
 80033b8:	2200      	movs	r2, #0
 80033ba:	801a      	strh	r2, [r3, #0]
		for (uint32_t j = col + 0; j < col + picWidth; j++) {
 80033bc:	187b      	adds	r3, r7, r1
 80033be:	881b      	ldrh	r3, [r3, #0]
 80033c0:	66bb      	str	r3, [r7, #104]	; 0x68
 80033c2:	e066      	b.n	8003492 <displayPic24bit+0x3a2>
			if (ft == true) {
 80033c4:	254f      	movs	r5, #79	; 0x4f
 80033c6:	2638      	movs	r6, #56	; 0x38
 80033c8:	19ab      	adds	r3, r5, r6
 80033ca:	19db      	adds	r3, r3, r7
 80033cc:	781b      	ldrb	r3, [r3, #0]
 80033ce:	2b00      	cmp	r3, #0
 80033d0:	d016      	beq.n	8003400 <displayPic24bit+0x310>

				f_lseek(&fil, offsetPointer);
 80033d2:	6f3a      	ldr	r2, [r7, #112]	; 0x70
 80033d4:	4b53      	ldr	r3, [pc, #332]	; (8003524 <displayPic24bit+0x434>)
 80033d6:	0011      	movs	r1, r2
 80033d8:	0018      	movs	r0, r3
 80033da:	f003 fea3 	bl	8007124 <f_lseek>
				f_gets(color_buf, sizeof(color_buf), &fil);
 80033de:	0021      	movs	r1, r4
 80033e0:	4a50      	ldr	r2, [pc, #320]	; (8003524 <displayPic24bit+0x434>)
 80033e2:	6d3b      	ldr	r3, [r7, #80]	; 0x50
 80033e4:	0018      	movs	r0, r3
 80033e6:	f004 fa2d 	bl	8007844 <f_gets>
				offsetPointer += (3 * picWidth);
 80033ea:	6dfa      	ldr	r2, [r7, #92]	; 0x5c
 80033ec:	0013      	movs	r3, r2
 80033ee:	005b      	lsls	r3, r3, #1
 80033f0:	189b      	adds	r3, r3, r2
 80033f2:	6f3a      	ldr	r2, [r7, #112]	; 0x70
 80033f4:	18d3      	adds	r3, r2, r3
 80033f6:	673b      	str	r3, [r7, #112]	; 0x70
				ft = false;
 80033f8:	19ab      	adds	r3, r5, r6
 80033fa:	19db      	adds	r3, r3, r7
 80033fc:	2200      	movs	r2, #0
 80033fe:	701a      	strb	r2, [r3, #0]
			}
			r = color_buf[color_buf_val++];
 8003400:	204c      	movs	r0, #76	; 0x4c
 8003402:	2638      	movs	r6, #56	; 0x38
 8003404:	1983      	adds	r3, r0, r6
 8003406:	19db      	adds	r3, r3, r7
 8003408:	881b      	ldrh	r3, [r3, #0]
 800340a:	1982      	adds	r2, r0, r6
 800340c:	19d2      	adds	r2, r2, r7
 800340e:	1c59      	adds	r1, r3, #1
 8003410:	8011      	strh	r1, [r2, #0]
 8003412:	0019      	movs	r1, r3
 8003414:	250f      	movs	r5, #15
 8003416:	19ab      	adds	r3, r5, r6
 8003418:	19db      	adds	r3, r3, r7
 800341a:	6d3a      	ldr	r2, [r7, #80]	; 0x50
 800341c:	5c52      	ldrb	r2, [r2, r1]
 800341e:	701a      	strb	r2, [r3, #0]
			b = color_buf[color_buf_val++];
 8003420:	0032      	movs	r2, r6
 8003422:	1883      	adds	r3, r0, r2
 8003424:	19db      	adds	r3, r3, r7
 8003426:	881b      	ldrh	r3, [r3, #0]
 8003428:	1881      	adds	r1, r0, r2
 800342a:	19ca      	adds	r2, r1, r7
 800342c:	1c59      	adds	r1, r3, #1
 800342e:	8011      	strh	r1, [r2, #0]
 8003430:	0019      	movs	r1, r3
 8003432:	260e      	movs	r6, #14
 8003434:	2238      	movs	r2, #56	; 0x38
 8003436:	18b3      	adds	r3, r6, r2
 8003438:	19db      	adds	r3, r3, r7
 800343a:	6d3a      	ldr	r2, [r7, #80]	; 0x50
 800343c:	5c52      	ldrb	r2, [r2, r1]
 800343e:	701a      	strb	r2, [r3, #0]
			g = color_buf[color_buf_val++];
 8003440:	2238      	movs	r2, #56	; 0x38
 8003442:	1883      	adds	r3, r0, r2
 8003444:	19db      	adds	r3, r3, r7
 8003446:	881b      	ldrh	r3, [r3, #0]
 8003448:	1881      	adds	r1, r0, r2
 800344a:	19ca      	adds	r2, r1, r7
 800344c:	1c59      	adds	r1, r3, #1
 800344e:	8011      	strh	r1, [r2, #0]
 8003450:	0019      	movs	r1, r3
 8003452:	200d      	movs	r0, #13
 8003454:	2238      	movs	r2, #56	; 0x38
 8003456:	1883      	adds	r3, r0, r2
 8003458:	19db      	adds	r3, r3, r7
 800345a:	6d3a      	ldr	r2, [r7, #80]	; 0x50
 800345c:	5c52      	ldrb	r2, [r2, r1]
 800345e:	701a      	strb	r2, [r3, #0]
			pixel_buf[k] = LCD_Color565(g, b, r);
 8003460:	2238      	movs	r2, #56	; 0x38
 8003462:	1883      	adds	r3, r0, r2
 8003464:	19db      	adds	r3, r3, r7
 8003466:	7818      	ldrb	r0, [r3, #0]
 8003468:	18b3      	adds	r3, r6, r2
 800346a:	19db      	adds	r3, r3, r7
 800346c:	7819      	ldrb	r1, [r3, #0]
 800346e:	18ab      	adds	r3, r5, r2
 8003470:	19db      	adds	r3, r3, r7
 8003472:	781b      	ldrb	r3, [r3, #0]
 8003474:	001a      	movs	r2, r3
 8003476:	f000 fbcf 	bl	8003c18 <LCD_Color565>
 800347a:	0003      	movs	r3, r0
 800347c:	b299      	uxth	r1, r3
 800347e:	6cbb      	ldr	r3, [r7, #72]	; 0x48
 8003480:	6ffa      	ldr	r2, [r7, #124]	; 0x7c
 8003482:	0052      	lsls	r2, r2, #1
 8003484:	52d1      	strh	r1, [r2, r3]
			k++;
 8003486:	6ffb      	ldr	r3, [r7, #124]	; 0x7c
 8003488:	3301      	adds	r3, #1
 800348a:	67fb      	str	r3, [r7, #124]	; 0x7c
		for (uint32_t j = col + 0; j < col + picWidth; j++) {
 800348c:	6ebb      	ldr	r3, [r7, #104]	; 0x68
 800348e:	3301      	adds	r3, #1
 8003490:	66bb      	str	r3, [r7, #104]	; 0x68
 8003492:	2138      	movs	r1, #56	; 0x38
 8003494:	187b      	adds	r3, r7, r1
 8003496:	881a      	ldrh	r2, [r3, #0]
 8003498:	6dfb      	ldr	r3, [r7, #92]	; 0x5c
 800349a:	18d3      	adds	r3, r2, r3
 800349c:	6eba      	ldr	r2, [r7, #104]	; 0x68
 800349e:	429a      	cmp	r2, r3
 80034a0:	d390      	bcc.n	80033c4 <displayPic24bit+0x2d4>
		}
		if (drawFlag == true) {
 80034a2:	224b      	movs	r2, #75	; 0x4b
 80034a4:	1853      	adds	r3, r2, r1
 80034a6:	19db      	adds	r3, r3, r7
 80034a8:	781b      	ldrb	r3, [r3, #0]
 80034aa:	2b00      	cmp	r3, #0
 80034ac:	d00e      	beq.n	80034cc <displayPic24bit+0x3dc>
			LCD_pushColors(pixel_buf, picWidth, drawFlag);
 80034ae:	0015      	movs	r5, r2
 80034b0:	000e      	movs	r6, r1
 80034b2:	1853      	adds	r3, r2, r1
 80034b4:	19db      	adds	r3, r3, r7
 80034b6:	781a      	ldrb	r2, [r3, #0]
 80034b8:	6df9      	ldr	r1, [r7, #92]	; 0x5c
 80034ba:	6cbb      	ldr	r3, [r7, #72]	; 0x48
 80034bc:	0018      	movs	r0, r3
 80034be:	f000 fdd1 	bl	8004064 <LCD_pushColors>
			drawFlag = false;
 80034c2:	19ab      	adds	r3, r5, r6
 80034c4:	19db      	adds	r3, r3, r7
 80034c6:	2200      	movs	r2, #0
 80034c8:	701a      	strb	r2, [r3, #0]
 80034ca:	e009      	b.n	80034e0 <displayPic24bit+0x3f0>
		} else {
			LCD_pushColors(pixel_buf, picWidth, drawFlag);
 80034cc:	234b      	movs	r3, #75	; 0x4b
 80034ce:	2238      	movs	r2, #56	; 0x38
 80034d0:	189b      	adds	r3, r3, r2
 80034d2:	19db      	adds	r3, r3, r7
 80034d4:	781a      	ldrb	r2, [r3, #0]
 80034d6:	6df9      	ldr	r1, [r7, #92]	; 0x5c
 80034d8:	6cbb      	ldr	r3, [r7, #72]	; 0x48
 80034da:	0018      	movs	r0, r3
 80034dc:	f000 fdc2 	bl	8004064 <LCD_pushColors>
	for (uint32_t i = row + 0; i < row + picHeight; i++) {
 80034e0:	6efb      	ldr	r3, [r7, #108]	; 0x6c
 80034e2:	3301      	adds	r3, #1
 80034e4:	66fb      	str	r3, [r7, #108]	; 0x6c
 80034e6:	233a      	movs	r3, #58	; 0x3a
 80034e8:	18fb      	adds	r3, r7, r3
 80034ea:	881a      	ldrh	r2, [r3, #0]
 80034ec:	6dbb      	ldr	r3, [r7, #88]	; 0x58
 80034ee:	18d3      	adds	r3, r2, r3
 80034f0:	6efa      	ldr	r2, [r7, #108]	; 0x6c
 80034f2:	429a      	cmp	r2, r3
 80034f4:	d200      	bcs.n	80034f8 <displayPic24bit+0x408>
 80034f6:	e754      	b.n	80033a2 <displayPic24bit+0x2b2>
		}
	}
	sd_closeFile();
 80034f8:	f7ff fd50 	bl	8002f9c <sd_closeFile>
	LCD_SetAddrWindow(0, 0, 240, 320);
 80034fc:	23a0      	movs	r3, #160	; 0xa0
 80034fe:	005b      	lsls	r3, r3, #1
 8003500:	22f0      	movs	r2, #240	; 0xf0
 8003502:	2100      	movs	r1, #0
 8003504:	2000      	movs	r0, #0
 8003506:	f000 fead 	bl	8004264 <LCD_SetAddrWindow>
 800350a:	46c5      	mov	sp, r8
}
 800350c:	46c0      	nop			; (mov r8, r8)
 800350e:	46bd      	mov	sp, r7
 8003510:	b022      	add	sp, #136	; 0x88
 8003512:	bc80      	pop	{r7}
 8003514:	46b8      	mov	r8, r7
 8003516:	bdf0      	pop	{r4, r5, r6, r7, pc}
 8003518:	080087f0 	.word	0x080087f0
 800351c:	080087fc 	.word	0x080087fc
 8003520:	08008808 	.word	0x08008808
 8003524:	2000049c 	.word	0x2000049c

08003528 <displayPic32bit>:

void displayPic32bit(char *c, uint16_t row, uint16_t col) {
 8003528:	b5f0      	push	{r4, r5, r6, r7, lr}
 800352a:	46c6      	mov	lr, r8
 800352c:	b500      	push	{lr}
 800352e:	b0a2      	sub	sp, #136	; 0x88
 8003530:	af00      	add	r7, sp, #0
 8003532:	63f8      	str	r0, [r7, #60]	; 0x3c
 8003534:	000b      	movs	r3, r1
 8003536:	0011      	movs	r1, r2
 8003538:	223a      	movs	r2, #58	; 0x3a
 800353a:	18ba      	adds	r2, r7, r2
 800353c:	8013      	strh	r3, [r2, #0]
 800353e:	2438      	movs	r4, #56	; 0x38
 8003540:	193a      	adds	r2, r7, r4
 8003542:	1c0b      	adds	r3, r1, #0
 8003544:	8013      	strh	r3, [r2, #0]
 8003546:	466b      	mov	r3, sp
 8003548:	4698      	mov	r8, r3

	sd_openFile(c);
 800354a:	6bfb      	ldr	r3, [r7, #60]	; 0x3c
 800354c:	0018      	movs	r0, r3
 800354e:	f7ff fcef 	bl	8002f30 <sd_openFile>

	uint32_t picWidth, picHeight;
	uint32_t k = 0;
 8003552:	2300      	movs	r3, #0
 8003554:	67fb      	str	r3, [r7, #124]	; 0x7c
	bool drawFlag = true;
 8003556:	234b      	movs	r3, #75	; 0x4b
 8003558:	0021      	movs	r1, r4
 800355a:	1858      	adds	r0, r3, r1
 800355c:	19c2      	adds	r2, r0, r7
 800355e:	2301      	movs	r3, #1
 8003560:	7013      	strb	r3, [r2, #0]
	uint8_t r, b, g;
	uint16_t color_buf_val = 0;
 8003562:	234c      	movs	r3, #76	; 0x4c
 8003564:	1858      	adds	r0, r3, r1
 8003566:	19c2      	adds	r2, r0, r7
 8003568:	2300      	movs	r3, #0
 800356a:	8013      	strh	r3, [r2, #0]
	uint16_t row_pt = row, col_pt = col;
 800356c:	232e      	movs	r3, #46	; 0x2e
 800356e:	1858      	adds	r0, r3, r1
 8003570:	19c2      	adds	r2, r0, r7
 8003572:	233a      	movs	r3, #58	; 0x3a
 8003574:	18fb      	adds	r3, r7, r3
 8003576:	881b      	ldrh	r3, [r3, #0]
 8003578:	8013      	strh	r3, [r2, #0]
 800357a:	232c      	movs	r3, #44	; 0x2c
 800357c:	000c      	movs	r4, r1
 800357e:	191a      	adds	r2, r3, r4
 8003580:	19d2      	adds	r2, r2, r7
 8003582:	193b      	adds	r3, r7, r4
 8003584:	881b      	ldrh	r3, [r3, #0]
 8003586:	8013      	strh	r3, [r2, #0]
	bool ft = true;
 8003588:	234f      	movs	r3, #79	; 0x4f
 800358a:	191a      	adds	r2, r3, r4
 800358c:	19d2      	adds	r2, r2, r7
 800358e:	2301      	movs	r3, #1
 8003590:	7013      	strb	r3, [r2, #0]
	uint8_t rotation = LCD_getRotation();
 8003592:	f000 fe5d 	bl	8004250 <LCD_getRotation>
 8003596:	0003      	movs	r3, r0
 8003598:	222b      	movs	r2, #43	; 0x2b
 800359a:	0021      	movs	r1, r4
 800359c:	1852      	adds	r2, r2, r1
 800359e:	19d2      	adds	r2, r2, r7
 80035a0:	7013      	strb	r3, [r2, #0]
	uint16_t coordR1 = 0, coordC1 = 0, coordR2 = 0, coordC2 = 0;
 80035a2:	2342      	movs	r3, #66	; 0x42
 80035a4:	185a      	adds	r2, r3, r1
 80035a6:	19d2      	adds	r2, r2, r7
 80035a8:	2300      	movs	r3, #0
 80035aa:	8013      	strh	r3, [r2, #0]
 80035ac:	2340      	movs	r3, #64	; 0x40
 80035ae:	185a      	adds	r2, r3, r1
 80035b0:	19d2      	adds	r2, r2, r7
 80035b2:	2300      	movs	r3, #0
 80035b4:	8013      	strh	r3, [r2, #0]
 80035b6:	233e      	movs	r3, #62	; 0x3e
 80035b8:	185a      	adds	r2, r3, r1
 80035ba:	19d2      	adds	r2, r2, r7
 80035bc:	2300      	movs	r3, #0
 80035be:	8013      	strh	r3, [r2, #0]
 80035c0:	233c      	movs	r3, #60	; 0x3c
 80035c2:	185a      	adds	r2, r3, r1
 80035c4:	19d2      	adds	r2, r2, r7
 80035c6:	2300      	movs	r3, #0
 80035c8:	8013      	strh	r3, [r2, #0]

	uint32_t offsetPointer = sd_read8bits(c, 10);
 80035ca:	6bfb      	ldr	r3, [r7, #60]	; 0x3c
 80035cc:	210a      	movs	r1, #10
 80035ce:	0018      	movs	r0, r3
 80035d0:	f7ff fd0c 	bl	8002fec <sd_read8bits>
 80035d4:	0003      	movs	r3, r0
 80035d6:	673b      	str	r3, [r7, #112]	; 0x70
	print("Offset: %d\n", offsetPointer);
 80035d8:	6f3a      	ldr	r2, [r7, #112]	; 0x70
 80035da:	4bcd      	ldr	r3, [pc, #820]	; (8003910 <displayPic32bit+0x3e8>)
 80035dc:	0011      	movs	r1, r2
 80035de:	0018      	movs	r0, r3
 80035e0:	f7ff fa86 	bl	8002af0 <print>
	picWidth = sd_read32bits(c, 18);
 80035e4:	6bfb      	ldr	r3, [r7, #60]	; 0x3c
 80035e6:	2112      	movs	r1, #18
 80035e8:	0018      	movs	r0, r3
 80035ea:	f7ff fd3d 	bl	8003068 <sd_read32bits>
 80035ee:	0003      	movs	r3, r0
 80035f0:	65fb      	str	r3, [r7, #92]	; 0x5c
	print("Width: %d\n", picWidth);
 80035f2:	6dfa      	ldr	r2, [r7, #92]	; 0x5c
 80035f4:	4bc7      	ldr	r3, [pc, #796]	; (8003914 <displayPic32bit+0x3ec>)
 80035f6:	0011      	movs	r1, r2
 80035f8:	0018      	movs	r0, r3
 80035fa:	f7ff fa79 	bl	8002af0 <print>
	picHeight = sd_read32bits(c, 22);
 80035fe:	6bfb      	ldr	r3, [r7, #60]	; 0x3c
 8003600:	2116      	movs	r1, #22
 8003602:	0018      	movs	r0, r3
 8003604:	f7ff fd30 	bl	8003068 <sd_read32bits>
 8003608:	0003      	movs	r3, r0
 800360a:	65bb      	str	r3, [r7, #88]	; 0x58
	print("Height: %d\n", picHeight);
 800360c:	6dba      	ldr	r2, [r7, #88]	; 0x58
 800360e:	4bc2      	ldr	r3, [pc, #776]	; (8003918 <displayPic32bit+0x3f0>)
 8003610:	0011      	movs	r1, r2
 8003612:	0018      	movs	r0, r3
 8003614:	f7ff fa6c 	bl	8002af0 <print>
	uint8_t color_buf[4 * picWidth];
 8003618:	6dfb      	ldr	r3, [r7, #92]	; 0x5c
 800361a:	009c      	lsls	r4, r3, #2
 800361c:	0023      	movs	r3, r4
 800361e:	3b01      	subs	r3, #1
 8003620:	657b      	str	r3, [r7, #84]	; 0x54
 8003622:	61bc      	str	r4, [r7, #24]
 8003624:	2300      	movs	r3, #0
 8003626:	61fb      	str	r3, [r7, #28]
 8003628:	69b9      	ldr	r1, [r7, #24]
 800362a:	69fa      	ldr	r2, [r7, #28]
 800362c:	000b      	movs	r3, r1
 800362e:	0f5b      	lsrs	r3, r3, #29
 8003630:	0010      	movs	r0, r2
 8003632:	00c6      	lsls	r6, r0, #3
 8003634:	431e      	orrs	r6, r3
 8003636:	000b      	movs	r3, r1
 8003638:	00dd      	lsls	r5, r3, #3
 800363a:	613c      	str	r4, [r7, #16]
 800363c:	2300      	movs	r3, #0
 800363e:	617b      	str	r3, [r7, #20]
 8003640:	6939      	ldr	r1, [r7, #16]
 8003642:	697a      	ldr	r2, [r7, #20]
 8003644:	000b      	movs	r3, r1
 8003646:	0f5b      	lsrs	r3, r3, #29
 8003648:	0010      	movs	r0, r2
 800364a:	00c0      	lsls	r0, r0, #3
 800364c:	6378      	str	r0, [r7, #52]	; 0x34
 800364e:	6b78      	ldr	r0, [r7, #52]	; 0x34
 8003650:	4318      	orrs	r0, r3
 8003652:	6378      	str	r0, [r7, #52]	; 0x34
 8003654:	000b      	movs	r3, r1
 8003656:	00db      	lsls	r3, r3, #3
 8003658:	633b      	str	r3, [r7, #48]	; 0x30
 800365a:	1de3      	adds	r3, r4, #7
 800365c:	08db      	lsrs	r3, r3, #3
 800365e:	00db      	lsls	r3, r3, #3
 8003660:	466a      	mov	r2, sp
 8003662:	1ad3      	subs	r3, r2, r3
 8003664:	469d      	mov	sp, r3
 8003666:	466b      	mov	r3, sp
 8003668:	3300      	adds	r3, #0
 800366a:	653b      	str	r3, [r7, #80]	; 0x50
	uint16_t pixel_buf[picWidth];
 800366c:	6dfb      	ldr	r3, [r7, #92]	; 0x5c
 800366e:	001a      	movs	r2, r3
 8003670:	3a01      	subs	r2, #1
 8003672:	64fa      	str	r2, [r7, #76]	; 0x4c
 8003674:	60bb      	str	r3, [r7, #8]
 8003676:	2200      	movs	r2, #0
 8003678:	60fa      	str	r2, [r7, #12]
 800367a:	68b8      	ldr	r0, [r7, #8]
 800367c:	68f9      	ldr	r1, [r7, #12]
 800367e:	0002      	movs	r2, r0
 8003680:	0f12      	lsrs	r2, r2, #28
 8003682:	000d      	movs	r5, r1
 8003684:	012d      	lsls	r5, r5, #4
 8003686:	62fd      	str	r5, [r7, #44]	; 0x2c
 8003688:	6afd      	ldr	r5, [r7, #44]	; 0x2c
 800368a:	4315      	orrs	r5, r2
 800368c:	62fd      	str	r5, [r7, #44]	; 0x2c
 800368e:	0002      	movs	r2, r0
 8003690:	0112      	lsls	r2, r2, #4
 8003692:	62ba      	str	r2, [r7, #40]	; 0x28
 8003694:	603b      	str	r3, [r7, #0]
 8003696:	2200      	movs	r2, #0
 8003698:	607a      	str	r2, [r7, #4]
 800369a:	6838      	ldr	r0, [r7, #0]
 800369c:	6879      	ldr	r1, [r7, #4]
 800369e:	0002      	movs	r2, r0
 80036a0:	0f12      	lsrs	r2, r2, #28
 80036a2:	000d      	movs	r5, r1
 80036a4:	012d      	lsls	r5, r5, #4
 80036a6:	627d      	str	r5, [r7, #36]	; 0x24
 80036a8:	6a7d      	ldr	r5, [r7, #36]	; 0x24
 80036aa:	4315      	orrs	r5, r2
 80036ac:	627d      	str	r5, [r7, #36]	; 0x24
 80036ae:	0002      	movs	r2, r0
 80036b0:	0112      	lsls	r2, r2, #4
 80036b2:	623a      	str	r2, [r7, #32]
 80036b4:	005b      	lsls	r3, r3, #1
 80036b6:	3307      	adds	r3, #7
 80036b8:	08db      	lsrs	r3, r3, #3
 80036ba:	00db      	lsls	r3, r3, #3
 80036bc:	466a      	mov	r2, sp
 80036be:	1ad3      	subs	r3, r2, r3
 80036c0:	469d      	mov	sp, r3
 80036c2:	466b      	mov	r3, sp
 80036c4:	3301      	adds	r3, #1
 80036c6:	085b      	lsrs	r3, r3, #1
 80036c8:	005b      	lsls	r3, r3, #1
 80036ca:	64bb      	str	r3, [r7, #72]	; 0x48

	if (picWidth + row > 240) {
 80036cc:	213a      	movs	r1, #58	; 0x3a
 80036ce:	187b      	adds	r3, r7, r1
 80036d0:	881a      	ldrh	r2, [r3, #0]
 80036d2:	6dfb      	ldr	r3, [r7, #92]	; 0x5c
 80036d4:	18d3      	adds	r3, r2, r3
 80036d6:	2bf0      	cmp	r3, #240	; 0xf0
 80036d8:	d902      	bls.n	80036e0 <displayPic32bit+0x1b8>
		row = 0;
 80036da:	187b      	adds	r3, r7, r1
 80036dc:	2200      	movs	r2, #0
 80036de:	801a      	strh	r2, [r3, #0]
	}
	if (picHeight + col > 320) {
 80036e0:	2138      	movs	r1, #56	; 0x38
 80036e2:	187b      	adds	r3, r7, r1
 80036e4:	881a      	ldrh	r2, [r3, #0]
 80036e6:	6dbb      	ldr	r3, [r7, #88]	; 0x58
 80036e8:	18d2      	adds	r2, r2, r3
 80036ea:	23a0      	movs	r3, #160	; 0xa0
 80036ec:	005b      	lsls	r3, r3, #1
 80036ee:	429a      	cmp	r2, r3
 80036f0:	d902      	bls.n	80036f8 <displayPic32bit+0x1d0>
		col = 0;
 80036f2:	187b      	adds	r3, r7, r1
 80036f4:	2200      	movs	r2, #0
 80036f6:	801a      	strh	r2, [r3, #0]
	}

	if ((rotation & 0x01) == 0) {
 80036f8:	232b      	movs	r3, #43	; 0x2b
 80036fa:	2138      	movs	r1, #56	; 0x38
 80036fc:	185b      	adds	r3, r3, r1
 80036fe:	19db      	adds	r3, r3, r7
 8003700:	781b      	ldrb	r3, [r3, #0]
 8003702:	2201      	movs	r2, #1
 8003704:	4013      	ands	r3, r2
 8003706:	d123      	bne.n	8003750 <displayPic32bit+0x228>
		coordR1 = row;
 8003708:	2342      	movs	r3, #66	; 0x42
 800370a:	185b      	adds	r3, r3, r1
 800370c:	19db      	adds	r3, r3, r7
 800370e:	203a      	movs	r0, #58	; 0x3a
 8003710:	183a      	adds	r2, r7, r0
 8003712:	8812      	ldrh	r2, [r2, #0]
 8003714:	801a      	strh	r2, [r3, #0]
		coordC1 = col;
 8003716:	2340      	movs	r3, #64	; 0x40
 8003718:	185b      	adds	r3, r3, r1
 800371a:	19db      	adds	r3, r3, r7
 800371c:	187a      	adds	r2, r7, r1
 800371e:	8812      	ldrh	r2, [r2, #0]
 8003720:	801a      	strh	r2, [r3, #0]
		coordR2 = row + picWidth - 1;
 8003722:	6dfb      	ldr	r3, [r7, #92]	; 0x5c
 8003724:	b29a      	uxth	r2, r3
 8003726:	183b      	adds	r3, r7, r0
 8003728:	881b      	ldrh	r3, [r3, #0]
 800372a:	18d3      	adds	r3, r2, r3
 800372c:	b29a      	uxth	r2, r3
 800372e:	233e      	movs	r3, #62	; 0x3e
 8003730:	185b      	adds	r3, r3, r1
 8003732:	19db      	adds	r3, r3, r7
 8003734:	3a01      	subs	r2, #1
 8003736:	801a      	strh	r2, [r3, #0]
		coordC2 = col + picHeight - 1;
 8003738:	6dbb      	ldr	r3, [r7, #88]	; 0x58
 800373a:	b29a      	uxth	r2, r3
 800373c:	187b      	adds	r3, r7, r1
 800373e:	881b      	ldrh	r3, [r3, #0]
 8003740:	18d3      	adds	r3, r2, r3
 8003742:	b29a      	uxth	r2, r3
 8003744:	233c      	movs	r3, #60	; 0x3c
 8003746:	185b      	adds	r3, r3, r1
 8003748:	19db      	adds	r3, r3, r7
 800374a:	3a01      	subs	r2, #1
 800374c:	801a      	strh	r2, [r3, #0]
 800374e:	e02a      	b.n	80037a6 <displayPic32bit+0x27e>
	} else if ((rotation & 0x01) == 1) {
 8003750:	232b      	movs	r3, #43	; 0x2b
 8003752:	2138      	movs	r1, #56	; 0x38
 8003754:	185b      	adds	r3, r3, r1
 8003756:	19db      	adds	r3, r3, r7
 8003758:	781b      	ldrb	r3, [r3, #0]
 800375a:	2201      	movs	r2, #1
 800375c:	4013      	ands	r3, r2
 800375e:	d022      	beq.n	80037a6 <displayPic32bit+0x27e>
		coordR1 = col;
 8003760:	2342      	movs	r3, #66	; 0x42
 8003762:	185b      	adds	r3, r3, r1
 8003764:	19db      	adds	r3, r3, r7
 8003766:	187a      	adds	r2, r7, r1
 8003768:	8812      	ldrh	r2, [r2, #0]
 800376a:	801a      	strh	r2, [r3, #0]
		coordC1 = row;
 800376c:	2340      	movs	r3, #64	; 0x40
 800376e:	185b      	adds	r3, r3, r1
 8003770:	19db      	adds	r3, r3, r7
 8003772:	203a      	movs	r0, #58	; 0x3a
 8003774:	183a      	adds	r2, r7, r0
 8003776:	8812      	ldrh	r2, [r2, #0]
 8003778:	801a      	strh	r2, [r3, #0]
		coordR2 = col + picHeight - 1;
 800377a:	6dbb      	ldr	r3, [r7, #88]	; 0x58
 800377c:	b29a      	uxth	r2, r3
 800377e:	187b      	adds	r3, r7, r1
 8003780:	881b      	ldrh	r3, [r3, #0]
 8003782:	18d3      	adds	r3, r2, r3
 8003784:	b29a      	uxth	r2, r3
 8003786:	233e      	movs	r3, #62	; 0x3e
 8003788:	185b      	adds	r3, r3, r1
 800378a:	19db      	adds	r3, r3, r7
 800378c:	3a01      	subs	r2, #1
 800378e:	801a      	strh	r2, [r3, #0]
		coordC2 = row + picWidth - 1;
 8003790:	6dfb      	ldr	r3, [r7, #92]	; 0x5c
 8003792:	b29a      	uxth	r2, r3
 8003794:	183b      	adds	r3, r7, r0
 8003796:	881b      	ldrh	r3, [r3, #0]
 8003798:	18d3      	adds	r3, r2, r3
 800379a:	b29a      	uxth	r2, r3
 800379c:	233c      	movs	r3, #60	; 0x3c
 800379e:	185b      	adds	r3, r3, r1
 80037a0:	19db      	adds	r3, r3, r7
 80037a2:	3a01      	subs	r2, #1
 80037a4:	801a      	strh	r2, [r3, #0]
	}
	LCD_SetAddrWindow(coordR1, coordC1, coordR2, coordC2);
 80037a6:	2342      	movs	r3, #66	; 0x42
 80037a8:	2538      	movs	r5, #56	; 0x38
 80037aa:	195b      	adds	r3, r3, r5
 80037ac:	19db      	adds	r3, r3, r7
 80037ae:	8818      	ldrh	r0, [r3, #0]
 80037b0:	2340      	movs	r3, #64	; 0x40
 80037b2:	195b      	adds	r3, r3, r5
 80037b4:	19db      	adds	r3, r3, r7
 80037b6:	8819      	ldrh	r1, [r3, #0]
 80037b8:	233e      	movs	r3, #62	; 0x3e
 80037ba:	195b      	adds	r3, r3, r5
 80037bc:	19db      	adds	r3, r3, r7
 80037be:	881a      	ldrh	r2, [r3, #0]
 80037c0:	233c      	movs	r3, #60	; 0x3c
 80037c2:	195b      	adds	r3, r3, r5
 80037c4:	19db      	adds	r3, r3, r7
 80037c6:	881b      	ldrh	r3, [r3, #0]
 80037c8:	f000 fd4c 	bl	8004264 <LCD_SetAddrWindow>

	for (uint32_t i = row + 0; i < row + picHeight; i++) {
 80037cc:	233a      	movs	r3, #58	; 0x3a
 80037ce:	18fb      	adds	r3, r7, r3
 80037d0:	881b      	ldrh	r3, [r3, #0]
 80037d2:	66fb      	str	r3, [r7, #108]	; 0x6c
 80037d4:	e0b1      	b.n	800393a <displayPic32bit+0x412>
		k = 0;
 80037d6:	2300      	movs	r3, #0
 80037d8:	67fb      	str	r3, [r7, #124]	; 0x7c
		ft = true;
 80037da:	234f      	movs	r3, #79	; 0x4f
 80037dc:	2138      	movs	r1, #56	; 0x38
 80037de:	185b      	adds	r3, r3, r1
 80037e0:	19db      	adds	r3, r3, r7
 80037e2:	2201      	movs	r2, #1
 80037e4:	701a      	strb	r2, [r3, #0]
		color_buf_val = 0;
 80037e6:	234c      	movs	r3, #76	; 0x4c
 80037e8:	185b      	adds	r3, r3, r1
 80037ea:	19db      	adds	r3, r3, r7
 80037ec:	2200      	movs	r2, #0
 80037ee:	801a      	strh	r2, [r3, #0]
		for (uint32_t j = col + 0; j < col + picWidth; j++) {
 80037f0:	187b      	adds	r3, r7, r1
 80037f2:	881b      	ldrh	r3, [r3, #0]
 80037f4:	66bb      	str	r3, [r7, #104]	; 0x68
 80037f6:	e06d      	b.n	80038d4 <displayPic32bit+0x3ac>
			if (ft == true) {
 80037f8:	254f      	movs	r5, #79	; 0x4f
 80037fa:	2638      	movs	r6, #56	; 0x38
 80037fc:	19ab      	adds	r3, r5, r6
 80037fe:	19db      	adds	r3, r3, r7
 8003800:	781b      	ldrb	r3, [r3, #0]
 8003802:	2b00      	cmp	r3, #0
 8003804:	d014      	beq.n	8003830 <displayPic32bit+0x308>
				f_lseek(&fil, offsetPointer);
 8003806:	6f3a      	ldr	r2, [r7, #112]	; 0x70
 8003808:	4b44      	ldr	r3, [pc, #272]	; (800391c <displayPic32bit+0x3f4>)
 800380a:	0011      	movs	r1, r2
 800380c:	0018      	movs	r0, r3
 800380e:	f003 fc89 	bl	8007124 <f_lseek>
				f_gets(color_buf, sizeof(color_buf), &fil);
 8003812:	0021      	movs	r1, r4
 8003814:	4a41      	ldr	r2, [pc, #260]	; (800391c <displayPic32bit+0x3f4>)
 8003816:	6d3b      	ldr	r3, [r7, #80]	; 0x50
 8003818:	0018      	movs	r0, r3
 800381a:	f004 f813 	bl	8007844 <f_gets>
				offsetPointer += (4 * picWidth);
 800381e:	6dfb      	ldr	r3, [r7, #92]	; 0x5c
 8003820:	009b      	lsls	r3, r3, #2
 8003822:	6f3a      	ldr	r2, [r7, #112]	; 0x70
 8003824:	18d3      	adds	r3, r2, r3
 8003826:	673b      	str	r3, [r7, #112]	; 0x70
				ft = false;
 8003828:	19ab      	adds	r3, r5, r6
 800382a:	19db      	adds	r3, r3, r7
 800382c:	2200      	movs	r2, #0
 800382e:	701a      	strb	r2, [r3, #0]
			}
			r = color_buf[color_buf_val++];
 8003830:	204c      	movs	r0, #76	; 0x4c
 8003832:	2638      	movs	r6, #56	; 0x38
 8003834:	1983      	adds	r3, r0, r6
 8003836:	19db      	adds	r3, r3, r7
 8003838:	881b      	ldrh	r3, [r3, #0]
 800383a:	1982      	adds	r2, r0, r6
 800383c:	19d2      	adds	r2, r2, r7
 800383e:	1c59      	adds	r1, r3, #1
 8003840:	8011      	strh	r1, [r2, #0]
 8003842:	0019      	movs	r1, r3
 8003844:	250f      	movs	r5, #15
 8003846:	19ab      	adds	r3, r5, r6
 8003848:	19db      	adds	r3, r3, r7
 800384a:	6d3a      	ldr	r2, [r7, #80]	; 0x50
 800384c:	5c52      	ldrb	r2, [r2, r1]
 800384e:	701a      	strb	r2, [r3, #0]
			b = color_buf[color_buf_val++];
 8003850:	0031      	movs	r1, r6
 8003852:	1843      	adds	r3, r0, r1
 8003854:	19db      	adds	r3, r3, r7
 8003856:	881b      	ldrh	r3, [r3, #0]
 8003858:	1842      	adds	r2, r0, r1
 800385a:	19d2      	adds	r2, r2, r7
 800385c:	1c59      	adds	r1, r3, #1
 800385e:	8011      	strh	r1, [r2, #0]
 8003860:	0019      	movs	r1, r3
 8003862:	260e      	movs	r6, #14
 8003864:	2338      	movs	r3, #56	; 0x38
 8003866:	18f2      	adds	r2, r6, r3
 8003868:	19d3      	adds	r3, r2, r7
 800386a:	6d3a      	ldr	r2, [r7, #80]	; 0x50
 800386c:	5c52      	ldrb	r2, [r2, r1]
 800386e:	701a      	strb	r2, [r3, #0]
			g = color_buf[color_buf_val++];
 8003870:	2138      	movs	r1, #56	; 0x38
 8003872:	1843      	adds	r3, r0, r1
 8003874:	19db      	adds	r3, r3, r7
 8003876:	881b      	ldrh	r3, [r3, #0]
 8003878:	1842      	adds	r2, r0, r1
 800387a:	19d2      	adds	r2, r2, r7
 800387c:	1c59      	adds	r1, r3, #1
 800387e:	8011      	strh	r1, [r2, #0]
 8003880:	0019      	movs	r1, r3
 8003882:	230d      	movs	r3, #13
 8003884:	2238      	movs	r2, #56	; 0x38
 8003886:	189b      	adds	r3, r3, r2
 8003888:	19db      	adds	r3, r3, r7
 800388a:	6d3a      	ldr	r2, [r7, #80]	; 0x50
 800388c:	5c52      	ldrb	r2, [r2, r1]
 800388e:	701a      	strb	r2, [r3, #0]
			color_buf_val++;
 8003890:	2138      	movs	r1, #56	; 0x38
 8003892:	1843      	adds	r3, r0, r1
 8003894:	19db      	adds	r3, r3, r7
 8003896:	881a      	ldrh	r2, [r3, #0]
 8003898:	1843      	adds	r3, r0, r1
 800389a:	19db      	adds	r3, r3, r7
 800389c:	3201      	adds	r2, #1
 800389e:	801a      	strh	r2, [r3, #0]
			pixel_buf[k] = LCD_Color565(g, b, r);
 80038a0:	230d      	movs	r3, #13
 80038a2:	000a      	movs	r2, r1
 80038a4:	189b      	adds	r3, r3, r2
 80038a6:	19db      	adds	r3, r3, r7
 80038a8:	7818      	ldrb	r0, [r3, #0]
 80038aa:	18b3      	adds	r3, r6, r2
 80038ac:	19db      	adds	r3, r3, r7
 80038ae:	7819      	ldrb	r1, [r3, #0]
 80038b0:	18ab      	adds	r3, r5, r2
 80038b2:	19db      	adds	r3, r3, r7
 80038b4:	781b      	ldrb	r3, [r3, #0]
 80038b6:	001a      	movs	r2, r3
 80038b8:	f000 f9ae 	bl	8003c18 <LCD_Color565>
 80038bc:	0003      	movs	r3, r0
 80038be:	b299      	uxth	r1, r3
 80038c0:	6cbb      	ldr	r3, [r7, #72]	; 0x48
 80038c2:	6ffa      	ldr	r2, [r7, #124]	; 0x7c
 80038c4:	0052      	lsls	r2, r2, #1
 80038c6:	52d1      	strh	r1, [r2, r3]
			k++;
 80038c8:	6ffb      	ldr	r3, [r7, #124]	; 0x7c
 80038ca:	3301      	adds	r3, #1
 80038cc:	67fb      	str	r3, [r7, #124]	; 0x7c
		for (uint32_t j = col + 0; j < col + picWidth; j++) {
 80038ce:	6ebb      	ldr	r3, [r7, #104]	; 0x68
 80038d0:	3301      	adds	r3, #1
 80038d2:	66bb      	str	r3, [r7, #104]	; 0x68
 80038d4:	2138      	movs	r1, #56	; 0x38
 80038d6:	187b      	adds	r3, r7, r1
 80038d8:	881a      	ldrh	r2, [r3, #0]
 80038da:	6dfb      	ldr	r3, [r7, #92]	; 0x5c
 80038dc:	18d3      	adds	r3, r2, r3
 80038de:	6eba      	ldr	r2, [r7, #104]	; 0x68
 80038e0:	429a      	cmp	r2, r3
 80038e2:	d389      	bcc.n	80037f8 <displayPic32bit+0x2d0>
		}
		if (drawFlag == true) {
 80038e4:	224b      	movs	r2, #75	; 0x4b
 80038e6:	1853      	adds	r3, r2, r1
 80038e8:	19db      	adds	r3, r3, r7
 80038ea:	781b      	ldrb	r3, [r3, #0]
 80038ec:	2b00      	cmp	r3, #0
 80038ee:	d017      	beq.n	8003920 <displayPic32bit+0x3f8>
			LCD_pushColors(pixel_buf, picWidth, drawFlag);
 80038f0:	0015      	movs	r5, r2
 80038f2:	000e      	movs	r6, r1
 80038f4:	1853      	adds	r3, r2, r1
 80038f6:	19db      	adds	r3, r3, r7
 80038f8:	781a      	ldrb	r2, [r3, #0]
 80038fa:	6df9      	ldr	r1, [r7, #92]	; 0x5c
 80038fc:	6cbb      	ldr	r3, [r7, #72]	; 0x48
 80038fe:	0018      	movs	r0, r3
 8003900:	f000 fbb0 	bl	8004064 <LCD_pushColors>
			drawFlag = false;
 8003904:	19ab      	adds	r3, r5, r6
 8003906:	19db      	adds	r3, r3, r7
 8003908:	2200      	movs	r2, #0
 800390a:	701a      	strb	r2, [r3, #0]
 800390c:	e012      	b.n	8003934 <displayPic32bit+0x40c>
 800390e:	46c0      	nop			; (mov r8, r8)
 8003910:	080087f0 	.word	0x080087f0
 8003914:	080087fc 	.word	0x080087fc
 8003918:	08008808 	.word	0x08008808
 800391c:	2000049c 	.word	0x2000049c
		} else {
			LCD_pushColors(pixel_buf, picWidth, drawFlag);
 8003920:	234b      	movs	r3, #75	; 0x4b
 8003922:	2238      	movs	r2, #56	; 0x38
 8003924:	189b      	adds	r3, r3, r2
 8003926:	19db      	adds	r3, r3, r7
 8003928:	781a      	ldrb	r2, [r3, #0]
 800392a:	6df9      	ldr	r1, [r7, #92]	; 0x5c
 800392c:	6cbb      	ldr	r3, [r7, #72]	; 0x48
 800392e:	0018      	movs	r0, r3
 8003930:	f000 fb98 	bl	8004064 <LCD_pushColors>
	for (uint32_t i = row + 0; i < row + picHeight; i++) {
 8003934:	6efb      	ldr	r3, [r7, #108]	; 0x6c
 8003936:	3301      	adds	r3, #1
 8003938:	66fb      	str	r3, [r7, #108]	; 0x6c
 800393a:	233a      	movs	r3, #58	; 0x3a
 800393c:	18fb      	adds	r3, r7, r3
 800393e:	881a      	ldrh	r2, [r3, #0]
 8003940:	6dbb      	ldr	r3, [r7, #88]	; 0x58
 8003942:	18d3      	adds	r3, r2, r3
 8003944:	6efa      	ldr	r2, [r7, #108]	; 0x6c
 8003946:	429a      	cmp	r2, r3
 8003948:	d200      	bcs.n	800394c <displayPic32bit+0x424>
 800394a:	e744      	b.n	80037d6 <displayPic32bit+0x2ae>
		}

	}
	sd_closeFile();
 800394c:	f7ff fb26 	bl	8002f9c <sd_closeFile>
	LCD_SetAddrWindow(0, 0, 240, 320);
 8003950:	23a0      	movs	r3, #160	; 0xa0
 8003952:	005b      	lsls	r3, r3, #1
 8003954:	22f0      	movs	r2, #240	; 0xf0
 8003956:	2100      	movs	r1, #0
 8003958:	2000      	movs	r0, #0
 800395a:	f000 fc83 	bl	8004264 <LCD_SetAddrWindow>
 800395e:	46c5      	mov	sp, r8
}
 8003960:	46c0      	nop			; (mov r8, r8)
 8003962:	46bd      	mov	sp, r7
 8003964:	b022      	add	sp, #136	; 0x88
 8003966:	bc80      	pop	{r7}
 8003968:	46b8      	mov	r8, r7
 800396a:	bdf0      	pop	{r4, r5, r6, r7, pc}

0800396c <delay>:
		//-----FRAME RATE SETTING-------//
		0x0060, 0xA700, 0x0061, 0x0001, 0x0090, 0x0033, //RTNI setting
		//-------DISPLAY ON------//
		0x0007, 0x0133, };

void delay(unsigned int t) {
 800396c:	b580      	push	{r7, lr}
 800396e:	b082      	sub	sp, #8
 8003970:	af00      	add	r7, sp, #0
 8003972:	6078      	str	r0, [r7, #4]
	for (; t > 0; t--) {
 8003974:	e003      	b.n	800397e <delay+0x12>
		__asm("nop");
 8003976:	46c0      	nop			; (mov r8, r8)
	for (; t > 0; t--) {
 8003978:	687b      	ldr	r3, [r7, #4]
 800397a:	3b01      	subs	r3, #1
 800397c:	607b      	str	r3, [r7, #4]
 800397e:	687b      	ldr	r3, [r7, #4]
 8003980:	2b00      	cmp	r3, #0
 8003982:	d1f8      	bne.n	8003976 <delay+0xa>
	}
}
 8003984:	46c0      	nop			; (mov r8, r8)
 8003986:	46c0      	nop			; (mov r8, r8)
 8003988:	46bd      	mov	sp, r7
 800398a:	b002      	add	sp, #8
 800398c:	bd80      	pop	{r7, pc}
	...

08003990 <GPIO_Init>:
 * 
 * \param 
 * 
 * \return void
 */
static void GPIO_Init(void) {
 8003990:	b580      	push	{r7, lr}
 8003992:	b08a      	sub	sp, #40	; 0x28
 8003994:	af02      	add	r7, sp, #8
	GPIO_InitTypeDef GPIO_InitStruct;

	/* GPIO Ports Clock Enable */
	__GPIOC_CLK_ENABLE()
 8003996:	4b5b      	ldr	r3, [pc, #364]	; (8003b04 <GPIO_Init+0x174>)
 8003998:	695a      	ldr	r2, [r3, #20]
 800399a:	4b5a      	ldr	r3, [pc, #360]	; (8003b04 <GPIO_Init+0x174>)
 800399c:	2180      	movs	r1, #128	; 0x80
 800399e:	0309      	lsls	r1, r1, #12
 80039a0:	430a      	orrs	r2, r1
 80039a2:	615a      	str	r2, [r3, #20]
 80039a4:	4b57      	ldr	r3, [pc, #348]	; (8003b04 <GPIO_Init+0x174>)
 80039a6:	695a      	ldr	r2, [r3, #20]
 80039a8:	2380      	movs	r3, #128	; 0x80
 80039aa:	031b      	lsls	r3, r3, #12
 80039ac:	4013      	ands	r3, r2
 80039ae:	60bb      	str	r3, [r7, #8]
 80039b0:	68bb      	ldr	r3, [r7, #8]
	;
	__GPIOA_CLK_ENABLE()
 80039b2:	4b54      	ldr	r3, [pc, #336]	; (8003b04 <GPIO_Init+0x174>)
 80039b4:	695a      	ldr	r2, [r3, #20]
 80039b6:	4b53      	ldr	r3, [pc, #332]	; (8003b04 <GPIO_Init+0x174>)
 80039b8:	2180      	movs	r1, #128	; 0x80
 80039ba:	0289      	lsls	r1, r1, #10
 80039bc:	430a      	orrs	r2, r1
 80039be:	615a      	str	r2, [r3, #20]
 80039c0:	4b50      	ldr	r3, [pc, #320]	; (8003b04 <GPIO_Init+0x174>)
 80039c2:	695a      	ldr	r2, [r3, #20]
 80039c4:	2380      	movs	r3, #128	; 0x80
 80039c6:	029b      	lsls	r3, r3, #10
 80039c8:	4013      	ands	r3, r2
 80039ca:	607b      	str	r3, [r7, #4]
 80039cc:	687b      	ldr	r3, [r7, #4]
	;
	__GPIOB_CLK_ENABLE()
 80039ce:	4b4d      	ldr	r3, [pc, #308]	; (8003b04 <GPIO_Init+0x174>)
 80039d0:	695a      	ldr	r2, [r3, #20]
 80039d2:	4b4c      	ldr	r3, [pc, #304]	; (8003b04 <GPIO_Init+0x174>)
 80039d4:	2180      	movs	r1, #128	; 0x80
 80039d6:	02c9      	lsls	r1, r1, #11
 80039d8:	430a      	orrs	r2, r1
 80039da:	615a      	str	r2, [r3, #20]
 80039dc:	4b49      	ldr	r3, [pc, #292]	; (8003b04 <GPIO_Init+0x174>)
 80039de:	695a      	ldr	r2, [r3, #20]
 80039e0:	2380      	movs	r3, #128	; 0x80
 80039e2:	02db      	lsls	r3, r3, #11
 80039e4:	4013      	ands	r3, r2
 80039e6:	603b      	str	r3, [r7, #0]
 80039e8:	683b      	ldr	r3, [r7, #0]
	;

	/*Configure GPIO pins : PC1 PC7 */
	gpio_config(PORTC, 1, OUTPUT_MODE, HIGH_SPEED, DI_PUPD, PHPL);
 80039ea:	4847      	ldr	r0, [pc, #284]	; (8003b08 <GPIO_Init+0x178>)
 80039ec:	2300      	movs	r3, #0
 80039ee:	9301      	str	r3, [sp, #4]
 80039f0:	2300      	movs	r3, #0
 80039f2:	9300      	str	r3, [sp, #0]
 80039f4:	2302      	movs	r3, #2
 80039f6:	2201      	movs	r2, #1
 80039f8:	2101      	movs	r1, #1
 80039fa:	f7fe ff6d 	bl	80028d8 <gpio_config>
	gpio_config(PORTC, 7, OUTPUT_MODE, HIGH_SPEED, DI_PUPD, PHPL);
 80039fe:	4842      	ldr	r0, [pc, #264]	; (8003b08 <GPIO_Init+0x178>)
 8003a00:	2300      	movs	r3, #0
 8003a02:	9301      	str	r3, [sp, #4]
 8003a04:	2300      	movs	r3, #0
 8003a06:	9300      	str	r3, [sp, #0]
 8003a08:	2302      	movs	r3, #2
 8003a0a:	2201      	movs	r2, #1
 8003a0c:	2107      	movs	r1, #7
 8003a0e:	f7fe ff63 	bl	80028d8 <gpio_config>

	/*Configure GPIO pins : PA0 PA1 PA4 PA8 PA9 PA10 */
	gpio_config(PORTA, 0, OUTPUT_MODE, HIGH_SPEED, DI_PUPD, PHPL);
 8003a12:	2390      	movs	r3, #144	; 0x90
 8003a14:	05d8      	lsls	r0, r3, #23
 8003a16:	2300      	movs	r3, #0
 8003a18:	9301      	str	r3, [sp, #4]
 8003a1a:	2300      	movs	r3, #0
 8003a1c:	9300      	str	r3, [sp, #0]
 8003a1e:	2302      	movs	r3, #2
 8003a20:	2201      	movs	r2, #1
 8003a22:	2100      	movs	r1, #0
 8003a24:	f7fe ff58 	bl	80028d8 <gpio_config>
	gpio_config(PORTA, 1, OUTPUT_MODE, HIGH_SPEED, DI_PUPD, PHPL);
 8003a28:	2390      	movs	r3, #144	; 0x90
 8003a2a:	05d8      	lsls	r0, r3, #23
 8003a2c:	2300      	movs	r3, #0
 8003a2e:	9301      	str	r3, [sp, #4]
 8003a30:	2300      	movs	r3, #0
 8003a32:	9300      	str	r3, [sp, #0]
 8003a34:	2302      	movs	r3, #2
 8003a36:	2201      	movs	r2, #1
 8003a38:	2101      	movs	r1, #1
 8003a3a:	f7fe ff4d 	bl	80028d8 <gpio_config>
	gpio_config(PORTA, 4, OUTPUT_MODE, HIGH_SPEED, DI_PUPD, PHPL);
 8003a3e:	2390      	movs	r3, #144	; 0x90
 8003a40:	05d8      	lsls	r0, r3, #23
 8003a42:	2300      	movs	r3, #0
 8003a44:	9301      	str	r3, [sp, #4]
 8003a46:	2300      	movs	r3, #0
 8003a48:	9300      	str	r3, [sp, #0]
 8003a4a:	2302      	movs	r3, #2
 8003a4c:	2201      	movs	r2, #1
 8003a4e:	2104      	movs	r1, #4
 8003a50:	f7fe ff42 	bl	80028d8 <gpio_config>
	gpio_config(PORTA, 8, OUTPUT_MODE, HIGH_SPEED, DI_PUPD, PHPL);
 8003a54:	2390      	movs	r3, #144	; 0x90
 8003a56:	05d8      	lsls	r0, r3, #23
 8003a58:	2300      	movs	r3, #0
 8003a5a:	9301      	str	r3, [sp, #4]
 8003a5c:	2300      	movs	r3, #0
 8003a5e:	9300      	str	r3, [sp, #0]
 8003a60:	2302      	movs	r3, #2
 8003a62:	2201      	movs	r2, #1
 8003a64:	2108      	movs	r1, #8
 8003a66:	f7fe ff37 	bl	80028d8 <gpio_config>
	gpio_config(PORTA, 9, OUTPUT_MODE, HIGH_SPEED, DI_PUPD, PHPL);
 8003a6a:	2390      	movs	r3, #144	; 0x90
 8003a6c:	05d8      	lsls	r0, r3, #23
 8003a6e:	2300      	movs	r3, #0
 8003a70:	9301      	str	r3, [sp, #4]
 8003a72:	2300      	movs	r3, #0
 8003a74:	9300      	str	r3, [sp, #0]
 8003a76:	2302      	movs	r3, #2
 8003a78:	2201      	movs	r2, #1
 8003a7a:	2109      	movs	r1, #9
 8003a7c:	f7fe ff2c 	bl	80028d8 <gpio_config>
	gpio_config(PORTA, 10, OUTPUT_MODE, HIGH_SPEED, DI_PUPD, PHPL);
 8003a80:	2390      	movs	r3, #144	; 0x90
 8003a82:	05d8      	lsls	r0, r3, #23
 8003a84:	2300      	movs	r3, #0
 8003a86:	9301      	str	r3, [sp, #4]
 8003a88:	2300      	movs	r3, #0
 8003a8a:	9300      	str	r3, [sp, #0]
 8003a8c:	2302      	movs	r3, #2
 8003a8e:	2201      	movs	r2, #1
 8003a90:	210a      	movs	r1, #10
 8003a92:	f7fe ff21 	bl	80028d8 <gpio_config>

	/*Configure GPIO pins : PB0 PB3 PB4 PB5 PB10 */
	gpio_config(PORTB, 0, OUTPUT_MODE, HIGH_SPEED, DI_PUPD, PHPL);
 8003a96:	481d      	ldr	r0, [pc, #116]	; (8003b0c <GPIO_Init+0x17c>)
 8003a98:	2300      	movs	r3, #0
 8003a9a:	9301      	str	r3, [sp, #4]
 8003a9c:	2300      	movs	r3, #0
 8003a9e:	9300      	str	r3, [sp, #0]
 8003aa0:	2302      	movs	r3, #2
 8003aa2:	2201      	movs	r2, #1
 8003aa4:	2100      	movs	r1, #0
 8003aa6:	f7fe ff17 	bl	80028d8 <gpio_config>
	gpio_config(PORTB, 3, OUTPUT_MODE, HIGH_SPEED, DI_PUPD, PHPL);
 8003aaa:	4818      	ldr	r0, [pc, #96]	; (8003b0c <GPIO_Init+0x17c>)
 8003aac:	2300      	movs	r3, #0
 8003aae:	9301      	str	r3, [sp, #4]
 8003ab0:	2300      	movs	r3, #0
 8003ab2:	9300      	str	r3, [sp, #0]
 8003ab4:	2302      	movs	r3, #2
 8003ab6:	2201      	movs	r2, #1
 8003ab8:	2103      	movs	r1, #3
 8003aba:	f7fe ff0d 	bl	80028d8 <gpio_config>
	gpio_config(PORTB, 4, OUTPUT_MODE, HIGH_SPEED, DI_PUPD, PHPL);
 8003abe:	4813      	ldr	r0, [pc, #76]	; (8003b0c <GPIO_Init+0x17c>)
 8003ac0:	2300      	movs	r3, #0
 8003ac2:	9301      	str	r3, [sp, #4]
 8003ac4:	2300      	movs	r3, #0
 8003ac6:	9300      	str	r3, [sp, #0]
 8003ac8:	2302      	movs	r3, #2
 8003aca:	2201      	movs	r2, #1
 8003acc:	2104      	movs	r1, #4
 8003ace:	f7fe ff03 	bl	80028d8 <gpio_config>
	gpio_config(PORTB, 5, OUTPUT_MODE, HIGH_SPEED, DI_PUPD, PHPL);
 8003ad2:	480e      	ldr	r0, [pc, #56]	; (8003b0c <GPIO_Init+0x17c>)
 8003ad4:	2300      	movs	r3, #0
 8003ad6:	9301      	str	r3, [sp, #4]
 8003ad8:	2300      	movs	r3, #0
 8003ada:	9300      	str	r3, [sp, #0]
 8003adc:	2302      	movs	r3, #2
 8003ade:	2201      	movs	r2, #1
 8003ae0:	2105      	movs	r1, #5
 8003ae2:	f7fe fef9 	bl	80028d8 <gpio_config>
	gpio_config(PORTB, 10, OUTPUT_MODE, HIGH_SPEED, DI_PUPD, PHPL);
 8003ae6:	4809      	ldr	r0, [pc, #36]	; (8003b0c <GPIO_Init+0x17c>)
 8003ae8:	2300      	movs	r3, #0
 8003aea:	9301      	str	r3, [sp, #4]
 8003aec:	2300      	movs	r3, #0
 8003aee:	9300      	str	r3, [sp, #0]
 8003af0:	2302      	movs	r3, #2
 8003af2:	2201      	movs	r2, #1
 8003af4:	210a      	movs	r1, #10
 8003af6:	f7fe feef 	bl	80028d8 <gpio_config>
}
 8003afa:	46c0      	nop			; (mov r8, r8)
 8003afc:	46bd      	mov	sp, r7
 8003afe:	b008      	add	sp, #32
 8003b00:	bd80      	pop	{r7, pc}
 8003b02:	46c0      	nop			; (mov r8, r8)
 8003b04:	40021000 	.word	0x40021000
 8003b08:	48000800 	.word	0x48000800
 8003b0c:	48000400 	.word	0x48000400

08003b10 <LCD_Begin>:
 * 
 * \param 
 * 
 * \return void
 */
void LCD_Begin(void) {
 8003b10:	b580      	push	{r7, lr}
 8003b12:	b082      	sub	sp, #8
 8003b14:	af00      	add	r7, sp, #0
	m_width = TFTWIDTH;
 8003b16:	4b35      	ldr	r3, [pc, #212]	; (8003bec <LCD_Begin+0xdc>)
 8003b18:	22f0      	movs	r2, #240	; 0xf0
 8003b1a:	801a      	strh	r2, [r3, #0]
	m_height = TFTHEIGHT;
 8003b1c:	4b34      	ldr	r3, [pc, #208]	; (8003bf0 <LCD_Begin+0xe0>)
 8003b1e:	22a0      	movs	r2, #160	; 0xa0
 8003b20:	0052      	lsls	r2, r2, #1
 8003b22:	801a      	strh	r2, [r3, #0]
	m_rotation = 0;
 8003b24:	4b33      	ldr	r3, [pc, #204]	; (8003bf4 <LCD_Begin+0xe4>)
 8003b26:	2200      	movs	r2, #0
 8003b28:	701a      	strb	r2, [r3, #0]
	m_cursor_y = m_cursor_x = 0;
 8003b2a:	4b33      	ldr	r3, [pc, #204]	; (8003bf8 <LCD_Begin+0xe8>)
 8003b2c:	2200      	movs	r2, #0
 8003b2e:	801a      	strh	r2, [r3, #0]
 8003b30:	4b31      	ldr	r3, [pc, #196]	; (8003bf8 <LCD_Begin+0xe8>)
 8003b32:	2200      	movs	r2, #0
 8003b34:	5e9a      	ldrsh	r2, [r3, r2]
 8003b36:	4b31      	ldr	r3, [pc, #196]	; (8003bfc <LCD_Begin+0xec>)
 8003b38:	801a      	strh	r2, [r3, #0]
	m_textsize = 4;
 8003b3a:	4b31      	ldr	r3, [pc, #196]	; (8003c00 <LCD_Begin+0xf0>)
 8003b3c:	2204      	movs	r2, #4
 8003b3e:	701a      	strb	r2, [r3, #0]
	m_textcolor = m_textbgcolor = 0xFFFF;
 8003b40:	4b30      	ldr	r3, [pc, #192]	; (8003c04 <LCD_Begin+0xf4>)
 8003b42:	2201      	movs	r2, #1
 8003b44:	4252      	negs	r2, r2
 8003b46:	801a      	strh	r2, [r3, #0]
 8003b48:	4b2e      	ldr	r3, [pc, #184]	; (8003c04 <LCD_Begin+0xf4>)
 8003b4a:	881a      	ldrh	r2, [r3, #0]
 8003b4c:	4b2e      	ldr	r3, [pc, #184]	; (8003c08 <LCD_Begin+0xf8>)
 8003b4e:	801a      	strh	r2, [r3, #0]
	m_wrap = 1;
 8003b50:	4b2e      	ldr	r3, [pc, #184]	; (8003c0c <LCD_Begin+0xfc>)
 8003b52:	2201      	movs	r2, #1
 8003b54:	701a      	strb	r2, [r3, #0]

	uint8_t i = 0;
 8003b56:	1dfb      	adds	r3, r7, #7
 8003b58:	2200      	movs	r2, #0
 8003b5a:	701a      	strb	r2, [r3, #0]
	uint16_t a, d;

	GPIO_Init();
 8003b5c:	f7ff ff18 	bl	8003990 <GPIO_Init>

	LCD_Reset();
 8003b60:	f000 fadc 	bl	800411c <LCD_Reset>

	LCD_CS_LOW();
 8003b64:	4b2a      	ldr	r3, [pc, #168]	; (8003c10 <LCD_Begin+0x100>)
 8003b66:	2200      	movs	r2, #0
 8003b68:	2100      	movs	r1, #0
 8003b6a:	0018      	movs	r0, r3
 8003b6c:	f7fe ffa0 	bl	8002ab0 <gpio_write>

	while (i < sizeof(ST7781_regValues) / sizeof(uint16_t)) {
 8003b70:	e027      	b.n	8003bc2 <LCD_Begin+0xb2>
		a = ST7781_regValues[i++];
 8003b72:	1dfb      	adds	r3, r7, #7
 8003b74:	781b      	ldrb	r3, [r3, #0]
 8003b76:	1dfa      	adds	r2, r7, #7
 8003b78:	1c59      	adds	r1, r3, #1
 8003b7a:	7011      	strb	r1, [r2, #0]
 8003b7c:	0019      	movs	r1, r3
 8003b7e:	1d3b      	adds	r3, r7, #4
 8003b80:	4a24      	ldr	r2, [pc, #144]	; (8003c14 <LCD_Begin+0x104>)
 8003b82:	0049      	lsls	r1, r1, #1
 8003b84:	5a8a      	ldrh	r2, [r1, r2]
 8003b86:	801a      	strh	r2, [r3, #0]
		d = ST7781_regValues[i++];
 8003b88:	1dfb      	adds	r3, r7, #7
 8003b8a:	781b      	ldrb	r3, [r3, #0]
 8003b8c:	1dfa      	adds	r2, r7, #7
 8003b8e:	1c59      	adds	r1, r3, #1
 8003b90:	7011      	strb	r1, [r2, #0]
 8003b92:	0019      	movs	r1, r3
 8003b94:	1cbb      	adds	r3, r7, #2
 8003b96:	4a1f      	ldr	r2, [pc, #124]	; (8003c14 <LCD_Begin+0x104>)
 8003b98:	0049      	lsls	r1, r1, #1
 8003b9a:	5a8a      	ldrh	r2, [r1, r2]
 8003b9c:	801a      	strh	r2, [r3, #0]
		if (a == TFTLCD_DELAY) {
 8003b9e:	1d3b      	adds	r3, r7, #4
 8003ba0:	881b      	ldrh	r3, [r3, #0]
 8003ba2:	2bff      	cmp	r3, #255	; 0xff
 8003ba4:	d105      	bne.n	8003bb2 <LCD_Begin+0xa2>
			delay(d);
 8003ba6:	1cbb      	adds	r3, r7, #2
 8003ba8:	881b      	ldrh	r3, [r3, #0]
 8003baa:	0018      	movs	r0, r3
 8003bac:	f7ff fede 	bl	800396c <delay>
 8003bb0:	e007      	b.n	8003bc2 <LCD_Begin+0xb2>
		} else {
			LCD_WriteRegister16(a, d);
 8003bb2:	1cbb      	adds	r3, r7, #2
 8003bb4:	881a      	ldrh	r2, [r3, #0]
 8003bb6:	1d3b      	adds	r3, r7, #4
 8003bb8:	881b      	ldrh	r3, [r3, #0]
 8003bba:	0011      	movs	r1, r2
 8003bbc:	0018      	movs	r0, r3
 8003bbe:	f000 fc5b 	bl	8004478 <LCD_WriteRegister16>
	while (i < sizeof(ST7781_regValues) / sizeof(uint16_t)) {
 8003bc2:	1dfb      	adds	r3, r7, #7
 8003bc4:	781b      	ldrb	r3, [r3, #0]
 8003bc6:	2b83      	cmp	r3, #131	; 0x83
 8003bc8:	d9d3      	bls.n	8003b72 <LCD_Begin+0x62>
		}
	}

	LCD_SetRotation(m_rotation);
 8003bca:	4b0a      	ldr	r3, [pc, #40]	; (8003bf4 <LCD_Begin+0xe4>)
 8003bcc:	781b      	ldrb	r3, [r3, #0]
 8003bce:	0018      	movs	r0, r3
 8003bd0:	f000 fb0a 	bl	80041e8 <LCD_SetRotation>
	LCD_SetAddrWindow(0, 0, TFTWIDTH - 1, TFTHEIGHT - 1);
 8003bd4:	2340      	movs	r3, #64	; 0x40
 8003bd6:	33ff      	adds	r3, #255	; 0xff
 8003bd8:	22ef      	movs	r2, #239	; 0xef
 8003bda:	2100      	movs	r1, #0
 8003bdc:	2000      	movs	r0, #0
 8003bde:	f000 fb41 	bl	8004264 <LCD_SetAddrWindow>
}
 8003be2:	46c0      	nop			; (mov r8, r8)
 8003be4:	46bd      	mov	sp, r7
 8003be6:	b002      	add	sp, #8
 8003be8:	bd80      	pop	{r7, pc}
 8003bea:	46c0      	nop			; (mov r8, r8)
 8003bec:	200006ca 	.word	0x200006ca
 8003bf0:	200006cc 	.word	0x200006cc
 8003bf4:	200006d7 	.word	0x200006d7
 8003bf8:	200006ce 	.word	0x200006ce
 8003bfc:	200006d0 	.word	0x200006d0
 8003c00:	200006d6 	.word	0x200006d6
 8003c04:	200006d4 	.word	0x200006d4
 8003c08:	200006d2 	.word	0x200006d2
 8003c0c:	200006d8 	.word	0x200006d8
 8003c10:	48000400 	.word	0x48000400
 8003c14:	080088a0 	.word	0x080088a0

08003c18 <LCD_Color565>:
 * \param g	Green
 * \param b	Blue
 * 
 * \return uint16_t	16Bit-RGB
 */
uint16_t LCD_Color565(uint8_t r, uint8_t g, uint8_t b) {
 8003c18:	b590      	push	{r4, r7, lr}
 8003c1a:	b083      	sub	sp, #12
 8003c1c:	af00      	add	r7, sp, #0
 8003c1e:	0004      	movs	r4, r0
 8003c20:	0008      	movs	r0, r1
 8003c22:	0011      	movs	r1, r2
 8003c24:	1dfb      	adds	r3, r7, #7
 8003c26:	1c22      	adds	r2, r4, #0
 8003c28:	701a      	strb	r2, [r3, #0]
 8003c2a:	1dbb      	adds	r3, r7, #6
 8003c2c:	1c02      	adds	r2, r0, #0
 8003c2e:	701a      	strb	r2, [r3, #0]
 8003c30:	1d7b      	adds	r3, r7, #5
 8003c32:	1c0a      	adds	r2, r1, #0
 8003c34:	701a      	strb	r2, [r3, #0]
	return ((r & 0xF8) << 8) | ((g & 0xFC) << 3) | (b >> 3);
 8003c36:	1dfb      	adds	r3, r7, #7
 8003c38:	781b      	ldrb	r3, [r3, #0]
 8003c3a:	021b      	lsls	r3, r3, #8
 8003c3c:	b21b      	sxth	r3, r3
 8003c3e:	0adb      	lsrs	r3, r3, #11
 8003c40:	02db      	lsls	r3, r3, #11
 8003c42:	b21a      	sxth	r2, r3
 8003c44:	1dbb      	adds	r3, r7, #6
 8003c46:	781b      	ldrb	r3, [r3, #0]
 8003c48:	00db      	lsls	r3, r3, #3
 8003c4a:	b219      	sxth	r1, r3
 8003c4c:	23fc      	movs	r3, #252	; 0xfc
 8003c4e:	00db      	lsls	r3, r3, #3
 8003c50:	400b      	ands	r3, r1
 8003c52:	b21b      	sxth	r3, r3
 8003c54:	4313      	orrs	r3, r2
 8003c56:	b21a      	sxth	r2, r3
 8003c58:	1d7b      	adds	r3, r7, #5
 8003c5a:	781b      	ldrb	r3, [r3, #0]
 8003c5c:	08db      	lsrs	r3, r3, #3
 8003c5e:	b2db      	uxtb	r3, r3
 8003c60:	b21b      	sxth	r3, r3
 8003c62:	4313      	orrs	r3, r2
 8003c64:	b21b      	sxth	r3, r3
 8003c66:	b29b      	uxth	r3, r3
}
 8003c68:	0018      	movs	r0, r3
 8003c6a:	46bd      	mov	sp, r7
 8003c6c:	b003      	add	sp, #12
 8003c6e:	bd90      	pop	{r4, r7, pc}

08003c70 <LCD_FillScreen>:
 * 
 * \param color	Color
 * 
 * \return void
 */
void LCD_FillScreen(uint16_t color) {
 8003c70:	b580      	push	{r7, lr}
 8003c72:	b084      	sub	sp, #16
 8003c74:	af00      	add	r7, sp, #0
 8003c76:	0002      	movs	r2, r0
 8003c78:	1dbb      	adds	r3, r7, #6
 8003c7a:	801a      	strh	r2, [r3, #0]
	// state, just need to set the address pointer to the top-left corner.
	// Although we could fill in any direction, the code uses the current
	// screen rotation because some users find it disconcerting when a
	// fill does not occur top-to-bottom.
	uint16_t x, y;
	switch (m_rotation) {
 8003c7c:	4b27      	ldr	r3, [pc, #156]	; (8003d1c <LCD_FillScreen+0xac>)
 8003c7e:	781b      	ldrb	r3, [r3, #0]
 8003c80:	2b03      	cmp	r3, #3
 8003c82:	d020      	beq.n	8003cc6 <LCD_FillScreen+0x56>
 8003c84:	dc03      	bgt.n	8003c8e <LCD_FillScreen+0x1e>
 8003c86:	2b01      	cmp	r3, #1
 8003c88:	d00a      	beq.n	8003ca0 <LCD_FillScreen+0x30>
 8003c8a:	2b02      	cmp	r3, #2
 8003c8c:	d011      	beq.n	8003cb2 <LCD_FillScreen+0x42>
	default:
		x = 0;
 8003c8e:	230e      	movs	r3, #14
 8003c90:	18fb      	adds	r3, r7, r3
 8003c92:	2200      	movs	r2, #0
 8003c94:	801a      	strh	r2, [r3, #0]
		y = 0;
 8003c96:	230c      	movs	r3, #12
 8003c98:	18fb      	adds	r3, r7, r3
 8003c9a:	2200      	movs	r2, #0
 8003c9c:	801a      	strh	r2, [r3, #0]
		break;
 8003c9e:	e01c      	b.n	8003cda <LCD_FillScreen+0x6a>
	case 1:
		x = TFTWIDTH - 1;
 8003ca0:	230e      	movs	r3, #14
 8003ca2:	18fb      	adds	r3, r7, r3
 8003ca4:	22ef      	movs	r2, #239	; 0xef
 8003ca6:	801a      	strh	r2, [r3, #0]
		y = 0;
 8003ca8:	230c      	movs	r3, #12
 8003caa:	18fb      	adds	r3, r7, r3
 8003cac:	2200      	movs	r2, #0
 8003cae:	801a      	strh	r2, [r3, #0]
		break;
 8003cb0:	e013      	b.n	8003cda <LCD_FillScreen+0x6a>
	case 2:
		x = TFTWIDTH - 1;
 8003cb2:	230e      	movs	r3, #14
 8003cb4:	18fb      	adds	r3, r7, r3
 8003cb6:	22ef      	movs	r2, #239	; 0xef
 8003cb8:	801a      	strh	r2, [r3, #0]
		y = TFTHEIGHT - 1;
 8003cba:	230c      	movs	r3, #12
 8003cbc:	18fb      	adds	r3, r7, r3
 8003cbe:	2240      	movs	r2, #64	; 0x40
 8003cc0:	32ff      	adds	r2, #255	; 0xff
 8003cc2:	801a      	strh	r2, [r3, #0]
		break;
 8003cc4:	e009      	b.n	8003cda <LCD_FillScreen+0x6a>
	case 3:
		x = 0;
 8003cc6:	230e      	movs	r3, #14
 8003cc8:	18fb      	adds	r3, r7, r3
 8003cca:	2200      	movs	r2, #0
 8003ccc:	801a      	strh	r2, [r3, #0]
		y = TFTHEIGHT - 1;
 8003cce:	230c      	movs	r3, #12
 8003cd0:	18fb      	adds	r3, r7, r3
 8003cd2:	2240      	movs	r2, #64	; 0x40
 8003cd4:	32ff      	adds	r2, #255	; 0xff
 8003cd6:	801a      	strh	r2, [r3, #0]
		break;
 8003cd8:	46c0      	nop			; (mov r8, r8)
	}
	LCD_CS_LOW();
 8003cda:	4b11      	ldr	r3, [pc, #68]	; (8003d20 <LCD_FillScreen+0xb0>)
 8003cdc:	2200      	movs	r2, #0
 8003cde:	2100      	movs	r1, #0
 8003ce0:	0018      	movs	r0, r3
 8003ce2:	f7fe fee5 	bl	8002ab0 <gpio_write>
	LCD_WriteRegister16(0x0020, x);
 8003ce6:	230e      	movs	r3, #14
 8003ce8:	18fb      	adds	r3, r7, r3
 8003cea:	881b      	ldrh	r3, [r3, #0]
 8003cec:	0019      	movs	r1, r3
 8003cee:	2020      	movs	r0, #32
 8003cf0:	f000 fbc2 	bl	8004478 <LCD_WriteRegister16>
	LCD_WriteRegister16(0x0021, y);
 8003cf4:	230c      	movs	r3, #12
 8003cf6:	18fb      	adds	r3, r7, r3
 8003cf8:	881b      	ldrh	r3, [r3, #0]
 8003cfa:	0019      	movs	r1, r3
 8003cfc:	2021      	movs	r0, #33	; 0x21
 8003cfe:	f000 fbbb 	bl	8004478 <LCD_WriteRegister16>

	LCD_Flood(color, (long) TFTWIDTH * (long) TFTHEIGHT);
 8003d02:	2396      	movs	r3, #150	; 0x96
 8003d04:	025a      	lsls	r2, r3, #9
 8003d06:	1dbb      	adds	r3, r7, #6
 8003d08:	881b      	ldrh	r3, [r3, #0]
 8003d0a:	0011      	movs	r1, r2
 8003d0c:	0018      	movs	r0, r3
 8003d0e:	f000 f809 	bl	8003d24 <LCD_Flood>
}
 8003d12:	46c0      	nop			; (mov r8, r8)
 8003d14:	46bd      	mov	sp, r7
 8003d16:	b004      	add	sp, #16
 8003d18:	bd80      	pop	{r7, pc}
 8003d1a:	46c0      	nop			; (mov r8, r8)
 8003d1c:	200006d7 	.word	0x200006d7
 8003d20:	48000400 	.word	0x48000400

08003d24 <LCD_Flood>:
 * \param color	Color
 * \param len	Length
 * 
 * \return void
 */
void LCD_Flood(uint16_t color, uint32_t len) {
 8003d24:	b5b0      	push	{r4, r5, r7, lr}
 8003d26:	b084      	sub	sp, #16
 8003d28:	af00      	add	r7, sp, #0
 8003d2a:	0002      	movs	r2, r0
 8003d2c:	6039      	str	r1, [r7, #0]
 8003d2e:	1dbb      	adds	r3, r7, #6
 8003d30:	801a      	strh	r2, [r3, #0]
	uint16_t blocks;
	uint8_t i, hi = color >> 8, lo = color;
 8003d32:	1dbb      	adds	r3, r7, #6
 8003d34:	881b      	ldrh	r3, [r3, #0]
 8003d36:	0a1b      	lsrs	r3, r3, #8
 8003d38:	b29a      	uxth	r2, r3
 8003d3a:	240c      	movs	r4, #12
 8003d3c:	193b      	adds	r3, r7, r4
 8003d3e:	701a      	strb	r2, [r3, #0]
 8003d40:	250b      	movs	r5, #11
 8003d42:	197b      	adds	r3, r7, r5
 8003d44:	1dba      	adds	r2, r7, #6
 8003d46:	8812      	ldrh	r2, [r2, #0]
 8003d48:	701a      	strb	r2, [r3, #0]

	LCD_CS_LOW();
 8003d4a:	4bc5      	ldr	r3, [pc, #788]	; (8004060 <LCD_Flood+0x33c>)
 8003d4c:	2200      	movs	r2, #0
 8003d4e:	2100      	movs	r1, #0
 8003d50:	0018      	movs	r0, r3
 8003d52:	f7fe fead 	bl	8002ab0 <gpio_write>
	LCD_CD_LOW();
 8003d56:	2390      	movs	r3, #144	; 0x90
 8003d58:	05db      	lsls	r3, r3, #23
 8003d5a:	2200      	movs	r2, #0
 8003d5c:	2104      	movs	r1, #4
 8003d5e:	0018      	movs	r0, r3
 8003d60:	f7fe fea6 	bl	8002ab0 <gpio_write>
	LCD_Write8(0x00); // High byte of GRAM register...
 8003d64:	2000      	movs	r0, #0
 8003d66:	f000 fb0d 	bl	8004384 <LCD_Write8>
	LCD_Write8(0x22); // Write data to GRAM
 8003d6a:	2022      	movs	r0, #34	; 0x22
 8003d6c:	f000 fb0a 	bl	8004384 <LCD_Write8>

	// Write first pixel normally, decrement counter by 1
	LCD_CD_HIGH();
 8003d70:	2390      	movs	r3, #144	; 0x90
 8003d72:	05db      	lsls	r3, r3, #23
 8003d74:	2201      	movs	r2, #1
 8003d76:	2104      	movs	r1, #4
 8003d78:	0018      	movs	r0, r3
 8003d7a:	f7fe fe99 	bl	8002ab0 <gpio_write>
	LCD_Write8(hi);
 8003d7e:	193b      	adds	r3, r7, r4
 8003d80:	781b      	ldrb	r3, [r3, #0]
 8003d82:	0018      	movs	r0, r3
 8003d84:	f000 fafe 	bl	8004384 <LCD_Write8>
	LCD_Write8(lo);
 8003d88:	197b      	adds	r3, r7, r5
 8003d8a:	781b      	ldrb	r3, [r3, #0]
 8003d8c:	0018      	movs	r0, r3
 8003d8e:	f000 faf9 	bl	8004384 <LCD_Write8>
	len--;
 8003d92:	683b      	ldr	r3, [r7, #0]
 8003d94:	3b01      	subs	r3, #1
 8003d96:	603b      	str	r3, [r7, #0]

	blocks = (uint16_t) (len / 64); // 64 pixels/block
 8003d98:	683b      	ldr	r3, [r7, #0]
 8003d9a:	099a      	lsrs	r2, r3, #6
 8003d9c:	230e      	movs	r3, #14
 8003d9e:	18fb      	adds	r3, r7, r3
 8003da0:	801a      	strh	r2, [r3, #0]
	if (hi == lo) {
 8003da2:	193a      	adds	r2, r7, r4
 8003da4:	197b      	adds	r3, r7, r5
 8003da6:	7812      	ldrb	r2, [r2, #0]
 8003da8:	781b      	ldrb	r3, [r3, #0]
 8003daa:	429a      	cmp	r2, r3
 8003dac:	d000      	beq.n	8003db0 <LCD_Flood+0x8c>
 8003dae:	e129      	b.n	8004004 <LCD_Flood+0x2e0>
		// High and low bytes are identical.  Leave prior data
		// on the port(s) and just toggle the write strobe.
		while (blocks--) {
 8003db0:	e0ae      	b.n	8003f10 <LCD_Flood+0x1ec>
			i = 16; // 64 pixels/block / 4 pixels/pass
 8003db2:	230d      	movs	r3, #13
 8003db4:	18fb      	adds	r3, r7, r3
 8003db6:	2210      	movs	r2, #16
 8003db8:	701a      	strb	r2, [r3, #0]
			do {
				LCD_WR_STROBE();
 8003dba:	2390      	movs	r3, #144	; 0x90
 8003dbc:	05db      	lsls	r3, r3, #23
 8003dbe:	2200      	movs	r2, #0
 8003dc0:	2101      	movs	r1, #1
 8003dc2:	0018      	movs	r0, r3
 8003dc4:	f7fe fe74 	bl	8002ab0 <gpio_write>
 8003dc8:	2001      	movs	r0, #1
 8003dca:	f7ff fdcf 	bl	800396c <delay>
 8003dce:	2390      	movs	r3, #144	; 0x90
 8003dd0:	05db      	lsls	r3, r3, #23
 8003dd2:	2201      	movs	r2, #1
 8003dd4:	2101      	movs	r1, #1
 8003dd6:	0018      	movs	r0, r3
 8003dd8:	f7fe fe6a 	bl	8002ab0 <gpio_write>
 8003ddc:	2001      	movs	r0, #1
 8003dde:	f7ff fdc5 	bl	800396c <delay>
				LCD_WR_STROBE();
 8003de2:	2390      	movs	r3, #144	; 0x90
 8003de4:	05db      	lsls	r3, r3, #23
 8003de6:	2200      	movs	r2, #0
 8003de8:	2101      	movs	r1, #1
 8003dea:	0018      	movs	r0, r3
 8003dec:	f7fe fe60 	bl	8002ab0 <gpio_write>
 8003df0:	2001      	movs	r0, #1
 8003df2:	f7ff fdbb 	bl	800396c <delay>
 8003df6:	2390      	movs	r3, #144	; 0x90
 8003df8:	05db      	lsls	r3, r3, #23
 8003dfa:	2201      	movs	r2, #1
 8003dfc:	2101      	movs	r1, #1
 8003dfe:	0018      	movs	r0, r3
 8003e00:	f7fe fe56 	bl	8002ab0 <gpio_write>
 8003e04:	2001      	movs	r0, #1
 8003e06:	f7ff fdb1 	bl	800396c <delay>
				LCD_WR_STROBE();
 8003e0a:	2390      	movs	r3, #144	; 0x90
 8003e0c:	05db      	lsls	r3, r3, #23
 8003e0e:	2200      	movs	r2, #0
 8003e10:	2101      	movs	r1, #1
 8003e12:	0018      	movs	r0, r3
 8003e14:	f7fe fe4c 	bl	8002ab0 <gpio_write>
 8003e18:	2001      	movs	r0, #1
 8003e1a:	f7ff fda7 	bl	800396c <delay>
 8003e1e:	2390      	movs	r3, #144	; 0x90
 8003e20:	05db      	lsls	r3, r3, #23
 8003e22:	2201      	movs	r2, #1
 8003e24:	2101      	movs	r1, #1
 8003e26:	0018      	movs	r0, r3
 8003e28:	f7fe fe42 	bl	8002ab0 <gpio_write>
 8003e2c:	2001      	movs	r0, #1
 8003e2e:	f7ff fd9d 	bl	800396c <delay>
				LCD_WR_STROBE(); // 2 bytes/pixel
 8003e32:	2390      	movs	r3, #144	; 0x90
 8003e34:	05db      	lsls	r3, r3, #23
 8003e36:	2200      	movs	r2, #0
 8003e38:	2101      	movs	r1, #1
 8003e3a:	0018      	movs	r0, r3
 8003e3c:	f7fe fe38 	bl	8002ab0 <gpio_write>
 8003e40:	2001      	movs	r0, #1
 8003e42:	f7ff fd93 	bl	800396c <delay>
 8003e46:	2390      	movs	r3, #144	; 0x90
 8003e48:	05db      	lsls	r3, r3, #23
 8003e4a:	2201      	movs	r2, #1
 8003e4c:	2101      	movs	r1, #1
 8003e4e:	0018      	movs	r0, r3
 8003e50:	f7fe fe2e 	bl	8002ab0 <gpio_write>
 8003e54:	2001      	movs	r0, #1
 8003e56:	f7ff fd89 	bl	800396c <delay>
				LCD_WR_STROBE();
 8003e5a:	2390      	movs	r3, #144	; 0x90
 8003e5c:	05db      	lsls	r3, r3, #23
 8003e5e:	2200      	movs	r2, #0
 8003e60:	2101      	movs	r1, #1
 8003e62:	0018      	movs	r0, r3
 8003e64:	f7fe fe24 	bl	8002ab0 <gpio_write>
 8003e68:	2001      	movs	r0, #1
 8003e6a:	f7ff fd7f 	bl	800396c <delay>
 8003e6e:	2390      	movs	r3, #144	; 0x90
 8003e70:	05db      	lsls	r3, r3, #23
 8003e72:	2201      	movs	r2, #1
 8003e74:	2101      	movs	r1, #1
 8003e76:	0018      	movs	r0, r3
 8003e78:	f7fe fe1a 	bl	8002ab0 <gpio_write>
 8003e7c:	2001      	movs	r0, #1
 8003e7e:	f7ff fd75 	bl	800396c <delay>
				LCD_WR_STROBE();
 8003e82:	2390      	movs	r3, #144	; 0x90
 8003e84:	05db      	lsls	r3, r3, #23
 8003e86:	2200      	movs	r2, #0
 8003e88:	2101      	movs	r1, #1
 8003e8a:	0018      	movs	r0, r3
 8003e8c:	f7fe fe10 	bl	8002ab0 <gpio_write>
 8003e90:	2001      	movs	r0, #1
 8003e92:	f7ff fd6b 	bl	800396c <delay>
 8003e96:	2390      	movs	r3, #144	; 0x90
 8003e98:	05db      	lsls	r3, r3, #23
 8003e9a:	2201      	movs	r2, #1
 8003e9c:	2101      	movs	r1, #1
 8003e9e:	0018      	movs	r0, r3
 8003ea0:	f7fe fe06 	bl	8002ab0 <gpio_write>
 8003ea4:	2001      	movs	r0, #1
 8003ea6:	f7ff fd61 	bl	800396c <delay>
				LCD_WR_STROBE();
 8003eaa:	2390      	movs	r3, #144	; 0x90
 8003eac:	05db      	lsls	r3, r3, #23
 8003eae:	2200      	movs	r2, #0
 8003eb0:	2101      	movs	r1, #1
 8003eb2:	0018      	movs	r0, r3
 8003eb4:	f7fe fdfc 	bl	8002ab0 <gpio_write>
 8003eb8:	2001      	movs	r0, #1
 8003eba:	f7ff fd57 	bl	800396c <delay>
 8003ebe:	2390      	movs	r3, #144	; 0x90
 8003ec0:	05db      	lsls	r3, r3, #23
 8003ec2:	2201      	movs	r2, #1
 8003ec4:	2101      	movs	r1, #1
 8003ec6:	0018      	movs	r0, r3
 8003ec8:	f7fe fdf2 	bl	8002ab0 <gpio_write>
 8003ecc:	2001      	movs	r0, #1
 8003ece:	f7ff fd4d 	bl	800396c <delay>
				LCD_WR_STROBE(); // x 4 pixels
 8003ed2:	2390      	movs	r3, #144	; 0x90
 8003ed4:	05db      	lsls	r3, r3, #23
 8003ed6:	2200      	movs	r2, #0
 8003ed8:	2101      	movs	r1, #1
 8003eda:	0018      	movs	r0, r3
 8003edc:	f7fe fde8 	bl	8002ab0 <gpio_write>
 8003ee0:	2001      	movs	r0, #1
 8003ee2:	f7ff fd43 	bl	800396c <delay>
 8003ee6:	2390      	movs	r3, #144	; 0x90
 8003ee8:	05db      	lsls	r3, r3, #23
 8003eea:	2201      	movs	r2, #1
 8003eec:	2101      	movs	r1, #1
 8003eee:	0018      	movs	r0, r3
 8003ef0:	f7fe fdde 	bl	8002ab0 <gpio_write>
 8003ef4:	2001      	movs	r0, #1
 8003ef6:	f7ff fd39 	bl	800396c <delay>
			} while (--i);
 8003efa:	210d      	movs	r1, #13
 8003efc:	187b      	adds	r3, r7, r1
 8003efe:	187a      	adds	r2, r7, r1
 8003f00:	7812      	ldrb	r2, [r2, #0]
 8003f02:	3a01      	subs	r2, #1
 8003f04:	701a      	strb	r2, [r3, #0]
 8003f06:	187b      	adds	r3, r7, r1
 8003f08:	781b      	ldrb	r3, [r3, #0]
 8003f0a:	2b00      	cmp	r3, #0
 8003f0c:	d000      	beq.n	8003f10 <LCD_Flood+0x1ec>
 8003f0e:	e754      	b.n	8003dba <LCD_Flood+0x96>
		while (blocks--) {
 8003f10:	220e      	movs	r2, #14
 8003f12:	18bb      	adds	r3, r7, r2
 8003f14:	881b      	ldrh	r3, [r3, #0]
 8003f16:	18ba      	adds	r2, r7, r2
 8003f18:	1e59      	subs	r1, r3, #1
 8003f1a:	8011      	strh	r1, [r2, #0]
 8003f1c:	2b00      	cmp	r3, #0
 8003f1e:	d000      	beq.n	8003f22 <LCD_Flood+0x1fe>
 8003f20:	e747      	b.n	8003db2 <LCD_Flood+0x8e>
		}
		// Fill any remaining pixels (1 to 64)
		for (i = (uint8_t) len & 63; i--;) {
 8003f22:	683b      	ldr	r3, [r7, #0]
 8003f24:	b2da      	uxtb	r2, r3
 8003f26:	230d      	movs	r3, #13
 8003f28:	18fb      	adds	r3, r7, r3
 8003f2a:	213f      	movs	r1, #63	; 0x3f
 8003f2c:	400a      	ands	r2, r1
 8003f2e:	701a      	strb	r2, [r3, #0]
 8003f30:	e027      	b.n	8003f82 <LCD_Flood+0x25e>
			LCD_WR_STROBE();
 8003f32:	2390      	movs	r3, #144	; 0x90
 8003f34:	05db      	lsls	r3, r3, #23
 8003f36:	2200      	movs	r2, #0
 8003f38:	2101      	movs	r1, #1
 8003f3a:	0018      	movs	r0, r3
 8003f3c:	f7fe fdb8 	bl	8002ab0 <gpio_write>
 8003f40:	2001      	movs	r0, #1
 8003f42:	f7ff fd13 	bl	800396c <delay>
 8003f46:	2390      	movs	r3, #144	; 0x90
 8003f48:	05db      	lsls	r3, r3, #23
 8003f4a:	2201      	movs	r2, #1
 8003f4c:	2101      	movs	r1, #1
 8003f4e:	0018      	movs	r0, r3
 8003f50:	f7fe fdae 	bl	8002ab0 <gpio_write>
 8003f54:	2001      	movs	r0, #1
 8003f56:	f7ff fd09 	bl	800396c <delay>
			LCD_WR_STROBE();
 8003f5a:	2390      	movs	r3, #144	; 0x90
 8003f5c:	05db      	lsls	r3, r3, #23
 8003f5e:	2200      	movs	r2, #0
 8003f60:	2101      	movs	r1, #1
 8003f62:	0018      	movs	r0, r3
 8003f64:	f7fe fda4 	bl	8002ab0 <gpio_write>
 8003f68:	2001      	movs	r0, #1
 8003f6a:	f7ff fcff 	bl	800396c <delay>
 8003f6e:	2390      	movs	r3, #144	; 0x90
 8003f70:	05db      	lsls	r3, r3, #23
 8003f72:	2201      	movs	r2, #1
 8003f74:	2101      	movs	r1, #1
 8003f76:	0018      	movs	r0, r3
 8003f78:	f7fe fd9a 	bl	8002ab0 <gpio_write>
 8003f7c:	2001      	movs	r0, #1
 8003f7e:	f7ff fcf5 	bl	800396c <delay>
		for (i = (uint8_t) len & 63; i--;) {
 8003f82:	220d      	movs	r2, #13
 8003f84:	18bb      	adds	r3, r7, r2
 8003f86:	781b      	ldrb	r3, [r3, #0]
 8003f88:	18ba      	adds	r2, r7, r2
 8003f8a:	1e59      	subs	r1, r3, #1
 8003f8c:	7011      	strb	r1, [r2, #0]
 8003f8e:	2b00      	cmp	r3, #0
 8003f90:	d1cf      	bne.n	8003f32 <LCD_Flood+0x20e>
 8003f92:	e05b      	b.n	800404c <LCD_Flood+0x328>
		}
	} else {
		while (blocks--) {
			i = 16; // 64 pixels/block / 4 pixels/pass
 8003f94:	230d      	movs	r3, #13
 8003f96:	18fb      	adds	r3, r7, r3
 8003f98:	2210      	movs	r2, #16
 8003f9a:	701a      	strb	r2, [r3, #0]
			do {
				LCD_Write8(hi);
 8003f9c:	240c      	movs	r4, #12
 8003f9e:	193b      	adds	r3, r7, r4
 8003fa0:	781b      	ldrb	r3, [r3, #0]
 8003fa2:	0018      	movs	r0, r3
 8003fa4:	f000 f9ee 	bl	8004384 <LCD_Write8>
				LCD_Write8(lo);
 8003fa8:	250b      	movs	r5, #11
 8003faa:	197b      	adds	r3, r7, r5
 8003fac:	781b      	ldrb	r3, [r3, #0]
 8003fae:	0018      	movs	r0, r3
 8003fb0:	f000 f9e8 	bl	8004384 <LCD_Write8>
				LCD_Write8(hi);
 8003fb4:	193b      	adds	r3, r7, r4
 8003fb6:	781b      	ldrb	r3, [r3, #0]
 8003fb8:	0018      	movs	r0, r3
 8003fba:	f000 f9e3 	bl	8004384 <LCD_Write8>
				LCD_Write8(lo);
 8003fbe:	197b      	adds	r3, r7, r5
 8003fc0:	781b      	ldrb	r3, [r3, #0]
 8003fc2:	0018      	movs	r0, r3
 8003fc4:	f000 f9de 	bl	8004384 <LCD_Write8>
				LCD_Write8(hi);
 8003fc8:	193b      	adds	r3, r7, r4
 8003fca:	781b      	ldrb	r3, [r3, #0]
 8003fcc:	0018      	movs	r0, r3
 8003fce:	f000 f9d9 	bl	8004384 <LCD_Write8>
				LCD_Write8(lo);
 8003fd2:	197b      	adds	r3, r7, r5
 8003fd4:	781b      	ldrb	r3, [r3, #0]
 8003fd6:	0018      	movs	r0, r3
 8003fd8:	f000 f9d4 	bl	8004384 <LCD_Write8>
				LCD_Write8(hi);
 8003fdc:	193b      	adds	r3, r7, r4
 8003fde:	781b      	ldrb	r3, [r3, #0]
 8003fe0:	0018      	movs	r0, r3
 8003fe2:	f000 f9cf 	bl	8004384 <LCD_Write8>
				LCD_Write8(lo);
 8003fe6:	197b      	adds	r3, r7, r5
 8003fe8:	781b      	ldrb	r3, [r3, #0]
 8003fea:	0018      	movs	r0, r3
 8003fec:	f000 f9ca 	bl	8004384 <LCD_Write8>
			} while (--i);
 8003ff0:	210d      	movs	r1, #13
 8003ff2:	187b      	adds	r3, r7, r1
 8003ff4:	187a      	adds	r2, r7, r1
 8003ff6:	7812      	ldrb	r2, [r2, #0]
 8003ff8:	3a01      	subs	r2, #1
 8003ffa:	701a      	strb	r2, [r3, #0]
 8003ffc:	187b      	adds	r3, r7, r1
 8003ffe:	781b      	ldrb	r3, [r3, #0]
 8004000:	2b00      	cmp	r3, #0
 8004002:	d1cb      	bne.n	8003f9c <LCD_Flood+0x278>
		while (blocks--) {
 8004004:	220e      	movs	r2, #14
 8004006:	18bb      	adds	r3, r7, r2
 8004008:	881b      	ldrh	r3, [r3, #0]
 800400a:	18ba      	adds	r2, r7, r2
 800400c:	1e59      	subs	r1, r3, #1
 800400e:	8011      	strh	r1, [r2, #0]
 8004010:	2b00      	cmp	r3, #0
 8004012:	d1bf      	bne.n	8003f94 <LCD_Flood+0x270>
		}
		for (i = (uint8_t) len & 63; i--;) {
 8004014:	683b      	ldr	r3, [r7, #0]
 8004016:	b2da      	uxtb	r2, r3
 8004018:	230d      	movs	r3, #13
 800401a:	18fb      	adds	r3, r7, r3
 800401c:	213f      	movs	r1, #63	; 0x3f
 800401e:	400a      	ands	r2, r1
 8004020:	701a      	strb	r2, [r3, #0]
 8004022:	e00b      	b.n	800403c <LCD_Flood+0x318>
			LCD_Write8(hi);
 8004024:	230c      	movs	r3, #12
 8004026:	18fb      	adds	r3, r7, r3
 8004028:	781b      	ldrb	r3, [r3, #0]
 800402a:	0018      	movs	r0, r3
 800402c:	f000 f9aa 	bl	8004384 <LCD_Write8>
			LCD_Write8(lo);
 8004030:	230b      	movs	r3, #11
 8004032:	18fb      	adds	r3, r7, r3
 8004034:	781b      	ldrb	r3, [r3, #0]
 8004036:	0018      	movs	r0, r3
 8004038:	f000 f9a4 	bl	8004384 <LCD_Write8>
		for (i = (uint8_t) len & 63; i--;) {
 800403c:	220d      	movs	r2, #13
 800403e:	18bb      	adds	r3, r7, r2
 8004040:	781b      	ldrb	r3, [r3, #0]
 8004042:	18ba      	adds	r2, r7, r2
 8004044:	1e59      	subs	r1, r3, #1
 8004046:	7011      	strb	r1, [r2, #0]
 8004048:	2b00      	cmp	r3, #0
 800404a:	d1eb      	bne.n	8004024 <LCD_Flood+0x300>
		}
	}
	LCD_CS_HIGH();
 800404c:	4b04      	ldr	r3, [pc, #16]	; (8004060 <LCD_Flood+0x33c>)
 800404e:	2201      	movs	r2, #1
 8004050:	2100      	movs	r1, #0
 8004052:	0018      	movs	r0, r3
 8004054:	f7fe fd2c 	bl	8002ab0 <gpio_write>
}
 8004058:	46c0      	nop			; (mov r8, r8)
 800405a:	46bd      	mov	sp, r7
 800405c:	b004      	add	sp, #16
 800405e:	bdb0      	pop	{r4, r5, r7, pc}
 8004060:	48000400 	.word	0x48000400

08004064 <LCD_pushColors>:


void LCD_pushColors(uint16_t *data, uint8_t len, bool first) {
 8004064:	b590      	push	{r4, r7, lr}
 8004066:	b085      	sub	sp, #20
 8004068:	af00      	add	r7, sp, #0
 800406a:	6078      	str	r0, [r7, #4]
 800406c:	0008      	movs	r0, r1
 800406e:	0011      	movs	r1, r2
 8004070:	1cfb      	adds	r3, r7, #3
 8004072:	1c02      	adds	r2, r0, #0
 8004074:	701a      	strb	r2, [r3, #0]
 8004076:	1cbb      	adds	r3, r7, #2
 8004078:	1c0a      	adds	r2, r1, #0
 800407a:	701a      	strb	r2, [r3, #0]
	uint16_t color;
	uint8_t hi, lo;
	LCD_CS_LOW();
 800407c:	4b26      	ldr	r3, [pc, #152]	; (8004118 <LCD_pushColors+0xb4>)
 800407e:	2200      	movs	r2, #0
 8004080:	2100      	movs	r1, #0
 8004082:	0018      	movs	r0, r3
 8004084:	f7fe fd14 	bl	8002ab0 <gpio_write>

	if (first == true) {
 8004088:	1cbb      	adds	r3, r7, #2
 800408a:	781b      	ldrb	r3, [r3, #0]
 800408c:	2b00      	cmp	r3, #0
 800408e:	d00c      	beq.n	80040aa <LCD_pushColors+0x46>
	LCD_CD_LOW();
 8004090:	2390      	movs	r3, #144	; 0x90
 8004092:	05db      	lsls	r3, r3, #23
 8004094:	2200      	movs	r2, #0
 8004096:	2104      	movs	r1, #4
 8004098:	0018      	movs	r0, r3
 800409a:	f7fe fd09 	bl	8002ab0 <gpio_write>
	LCD_Write8(0x00); // High byte of GRAM register...
 800409e:	2000      	movs	r0, #0
 80040a0:	f000 f970 	bl	8004384 <LCD_Write8>
	LCD_Write8(0x22); // Write data to GRAM
 80040a4:	2022      	movs	r0, #34	; 0x22
 80040a6:	f000 f96d 	bl	8004384 <LCD_Write8>
	}

	LCD_CD_HIGH();
 80040aa:	2390      	movs	r3, #144	; 0x90
 80040ac:	05db      	lsls	r3, r3, #23
 80040ae:	2201      	movs	r2, #1
 80040b0:	2104      	movs	r1, #4
 80040b2:	0018      	movs	r0, r3
 80040b4:	f7fe fcfc 	bl	8002ab0 <gpio_write>
	while (len--) {
 80040b8:	e01c      	b.n	80040f4 <LCD_pushColors+0x90>
		color = *data++;
 80040ba:	687b      	ldr	r3, [r7, #4]
 80040bc:	1c9a      	adds	r2, r3, #2
 80040be:	607a      	str	r2, [r7, #4]
 80040c0:	210e      	movs	r1, #14
 80040c2:	187a      	adds	r2, r7, r1
 80040c4:	881b      	ldrh	r3, [r3, #0]
 80040c6:	8013      	strh	r3, [r2, #0]
		hi = color >> 8; // Don't simplify or merge these
 80040c8:	187b      	adds	r3, r7, r1
 80040ca:	881b      	ldrh	r3, [r3, #0]
 80040cc:	0a1b      	lsrs	r3, r3, #8
 80040ce:	b29a      	uxth	r2, r3
 80040d0:	200d      	movs	r0, #13
 80040d2:	183b      	adds	r3, r7, r0
 80040d4:	701a      	strb	r2, [r3, #0]
		lo = color;      // lines, there's macro shenanigans
 80040d6:	240c      	movs	r4, #12
 80040d8:	193b      	adds	r3, r7, r4
 80040da:	187a      	adds	r2, r7, r1
 80040dc:	8812      	ldrh	r2, [r2, #0]
 80040de:	701a      	strb	r2, [r3, #0]
		LCD_Write8(hi);		//going on
 80040e0:	183b      	adds	r3, r7, r0
 80040e2:	781b      	ldrb	r3, [r3, #0]
 80040e4:	0018      	movs	r0, r3
 80040e6:	f000 f94d 	bl	8004384 <LCD_Write8>
		LCD_Write8(lo);
 80040ea:	193b      	adds	r3, r7, r4
 80040ec:	781b      	ldrb	r3, [r3, #0]
 80040ee:	0018      	movs	r0, r3
 80040f0:	f000 f948 	bl	8004384 <LCD_Write8>
	while (len--) {
 80040f4:	1cfb      	adds	r3, r7, #3
 80040f6:	781b      	ldrb	r3, [r3, #0]
 80040f8:	1cfa      	adds	r2, r7, #3
 80040fa:	1e59      	subs	r1, r3, #1
 80040fc:	7011      	strb	r1, [r2, #0]
 80040fe:	2b00      	cmp	r3, #0
 8004100:	d1db      	bne.n	80040ba <LCD_pushColors+0x56>
	}
	LCD_CS_HIGH();
 8004102:	4b05      	ldr	r3, [pc, #20]	; (8004118 <LCD_pushColors+0xb4>)
 8004104:	2201      	movs	r2, #1
 8004106:	2100      	movs	r1, #0
 8004108:	0018      	movs	r0, r3
 800410a:	f7fe fcd1 	bl	8002ab0 <gpio_write>
}
 800410e:	46c0      	nop			; (mov r8, r8)
 8004110:	46bd      	mov	sp, r7
 8004112:	b005      	add	sp, #20
 8004114:	bd90      	pop	{r4, r7, pc}
 8004116:	46c0      	nop			; (mov r8, r8)
 8004118:	48000400 	.word	0x48000400

0800411c <LCD_Reset>:
 * 
 * \param 
 * 
 * \return void
 */
void LCD_Reset(void) {
 800411c:	b580      	push	{r7, lr}
 800411e:	b082      	sub	sp, #8
 8004120:	af00      	add	r7, sp, #0
	LCD_CS_HIGH();
 8004122:	4b2f      	ldr	r3, [pc, #188]	; (80041e0 <LCD_Reset+0xc4>)
 8004124:	2201      	movs	r2, #1
 8004126:	2100      	movs	r1, #0
 8004128:	0018      	movs	r0, r3
 800412a:	f7fe fcc1 	bl	8002ab0 <gpio_write>
	LCD_WR_HIGH();
 800412e:	2390      	movs	r3, #144	; 0x90
 8004130:	05db      	lsls	r3, r3, #23
 8004132:	2201      	movs	r2, #1
 8004134:	2101      	movs	r1, #1
 8004136:	0018      	movs	r0, r3
 8004138:	f7fe fcba 	bl	8002ab0 <gpio_write>
	LCD_RD_HIGH();
 800413c:	2390      	movs	r3, #144	; 0x90
 800413e:	05db      	lsls	r3, r3, #23
 8004140:	2201      	movs	r2, #1
 8004142:	2100      	movs	r1, #0
 8004144:	0018      	movs	r0, r3
 8004146:	f7fe fcb3 	bl	8002ab0 <gpio_write>

	LCD_RST_LOW();
 800414a:	4b26      	ldr	r3, [pc, #152]	; (80041e4 <LCD_Reset+0xc8>)
 800414c:	2200      	movs	r2, #0
 800414e:	2101      	movs	r1, #1
 8004150:	0018      	movs	r0, r3
 8004152:	f7fe fcad 	bl	8002ab0 <gpio_write>
	delay(100);
 8004156:	2064      	movs	r0, #100	; 0x64
 8004158:	f7ff fc08 	bl	800396c <delay>
	LCD_RST_HIGH();
 800415c:	4b21      	ldr	r3, [pc, #132]	; (80041e4 <LCD_Reset+0xc8>)
 800415e:	2201      	movs	r2, #1
 8004160:	2101      	movs	r1, #1
 8004162:	0018      	movs	r0, r3
 8004164:	f7fe fca4 	bl	8002ab0 <gpio_write>

	// Data transfer sync
	LCD_CS_LOW();
 8004168:	4b1d      	ldr	r3, [pc, #116]	; (80041e0 <LCD_Reset+0xc4>)
 800416a:	2200      	movs	r2, #0
 800416c:	2100      	movs	r1, #0
 800416e:	0018      	movs	r0, r3
 8004170:	f7fe fc9e 	bl	8002ab0 <gpio_write>

	LCD_CD_LOW();
 8004174:	2390      	movs	r3, #144	; 0x90
 8004176:	05db      	lsls	r3, r3, #23
 8004178:	2200      	movs	r2, #0
 800417a:	2104      	movs	r1, #4
 800417c:	0018      	movs	r0, r3
 800417e:	f7fe fc97 	bl	8002ab0 <gpio_write>
	LCD_Write8(0x00);
 8004182:	2000      	movs	r0, #0
 8004184:	f000 f8fe 	bl	8004384 <LCD_Write8>
	for (uint8_t i = 0; i < 3; i++)
 8004188:	1dfb      	adds	r3, r7, #7
 800418a:	2200      	movs	r2, #0
 800418c:	701a      	strb	r2, [r3, #0]
 800418e:	e018      	b.n	80041c2 <LCD_Reset+0xa6>
		LCD_WR_STROBE(); // Three extra 0x00s
 8004190:	2390      	movs	r3, #144	; 0x90
 8004192:	05db      	lsls	r3, r3, #23
 8004194:	2200      	movs	r2, #0
 8004196:	2101      	movs	r1, #1
 8004198:	0018      	movs	r0, r3
 800419a:	f7fe fc89 	bl	8002ab0 <gpio_write>
 800419e:	2001      	movs	r0, #1
 80041a0:	f7ff fbe4 	bl	800396c <delay>
 80041a4:	2390      	movs	r3, #144	; 0x90
 80041a6:	05db      	lsls	r3, r3, #23
 80041a8:	2201      	movs	r2, #1
 80041aa:	2101      	movs	r1, #1
 80041ac:	0018      	movs	r0, r3
 80041ae:	f7fe fc7f 	bl	8002ab0 <gpio_write>
 80041b2:	2001      	movs	r0, #1
 80041b4:	f7ff fbda 	bl	800396c <delay>
	for (uint8_t i = 0; i < 3; i++)
 80041b8:	1dfb      	adds	r3, r7, #7
 80041ba:	781a      	ldrb	r2, [r3, #0]
 80041bc:	1dfb      	adds	r3, r7, #7
 80041be:	3201      	adds	r2, #1
 80041c0:	701a      	strb	r2, [r3, #0]
 80041c2:	1dfb      	adds	r3, r7, #7
 80041c4:	781b      	ldrb	r3, [r3, #0]
 80041c6:	2b02      	cmp	r3, #2
 80041c8:	d9e2      	bls.n	8004190 <LCD_Reset+0x74>
	LCD_CS_HIGH();
 80041ca:	4b05      	ldr	r3, [pc, #20]	; (80041e0 <LCD_Reset+0xc4>)
 80041cc:	2201      	movs	r2, #1
 80041ce:	2100      	movs	r1, #0
 80041d0:	0018      	movs	r0, r3
 80041d2:	f7fe fc6d 	bl	8002ab0 <gpio_write>
}
 80041d6:	46c0      	nop			; (mov r8, r8)
 80041d8:	46bd      	mov	sp, r7
 80041da:	b002      	add	sp, #8
 80041dc:	bd80      	pop	{r7, pc}
 80041de:	46c0      	nop			; (mov r8, r8)
 80041e0:	48000400 	.word	0x48000400
 80041e4:	48000800 	.word	0x48000800

080041e8 <LCD_SetRotation>:
 * 
 * \param x	rotation
 * 
 * \return void
 */
void LCD_SetRotation(uint8_t x) {
 80041e8:	b580      	push	{r7, lr}
 80041ea:	b082      	sub	sp, #8
 80041ec:	af00      	add	r7, sp, #0
 80041ee:	0002      	movs	r2, r0
 80041f0:	1dfb      	adds	r3, r7, #7
 80041f2:	701a      	strb	r2, [r3, #0]
	m_rotation = (x & 3);
 80041f4:	1dfb      	adds	r3, r7, #7
 80041f6:	781b      	ldrb	r3, [r3, #0]
 80041f8:	2203      	movs	r2, #3
 80041fa:	4013      	ands	r3, r2
 80041fc:	b2da      	uxtb	r2, r3
 80041fe:	4b11      	ldr	r3, [pc, #68]	; (8004244 <LCD_SetRotation+0x5c>)
 8004200:	701a      	strb	r2, [r3, #0]
	switch (m_rotation) {
 8004202:	4b10      	ldr	r3, [pc, #64]	; (8004244 <LCD_SetRotation+0x5c>)
 8004204:	781b      	ldrb	r3, [r3, #0]
 8004206:	2b03      	cmp	r3, #3
 8004208:	d010      	beq.n	800422c <LCD_SetRotation+0x44>
 800420a:	dc17      	bgt.n	800423c <LCD_SetRotation+0x54>
 800420c:	2b02      	cmp	r3, #2
 800420e:	d005      	beq.n	800421c <LCD_SetRotation+0x34>
 8004210:	dc14      	bgt.n	800423c <LCD_SetRotation+0x54>
 8004212:	2b00      	cmp	r3, #0
 8004214:	d002      	beq.n	800421c <LCD_SetRotation+0x34>
 8004216:	2b01      	cmp	r3, #1
 8004218:	d008      	beq.n	800422c <LCD_SetRotation+0x44>
	case 3:
		m_width = TFTHEIGHT;
		m_height = TFTWIDTH;
		break;
	}
}
 800421a:	e00f      	b.n	800423c <LCD_SetRotation+0x54>
		m_width = TFTWIDTH;
 800421c:	4b0a      	ldr	r3, [pc, #40]	; (8004248 <LCD_SetRotation+0x60>)
 800421e:	22f0      	movs	r2, #240	; 0xf0
 8004220:	801a      	strh	r2, [r3, #0]
		m_height = TFTHEIGHT;
 8004222:	4b0a      	ldr	r3, [pc, #40]	; (800424c <LCD_SetRotation+0x64>)
 8004224:	22a0      	movs	r2, #160	; 0xa0
 8004226:	0052      	lsls	r2, r2, #1
 8004228:	801a      	strh	r2, [r3, #0]
		break;
 800422a:	e007      	b.n	800423c <LCD_SetRotation+0x54>
		m_width = TFTHEIGHT;
 800422c:	4b06      	ldr	r3, [pc, #24]	; (8004248 <LCD_SetRotation+0x60>)
 800422e:	22a0      	movs	r2, #160	; 0xa0
 8004230:	0052      	lsls	r2, r2, #1
 8004232:	801a      	strh	r2, [r3, #0]
		m_height = TFTWIDTH;
 8004234:	4b05      	ldr	r3, [pc, #20]	; (800424c <LCD_SetRotation+0x64>)
 8004236:	22f0      	movs	r2, #240	; 0xf0
 8004238:	801a      	strh	r2, [r3, #0]
		break;
 800423a:	46c0      	nop			; (mov r8, r8)
}
 800423c:	46c0      	nop			; (mov r8, r8)
 800423e:	46bd      	mov	sp, r7
 8004240:	b002      	add	sp, #8
 8004242:	bd80      	pop	{r7, pc}
 8004244:	200006d7 	.word	0x200006d7
 8004248:	200006ca 	.word	0x200006ca
 800424c:	200006cc 	.word	0x200006cc

08004250 <LCD_getRotation>:
 *
 * \param None
 *
 * \return uint8_t
 */
uint8_t LCD_getRotation(void) {
 8004250:	b580      	push	{r7, lr}
 8004252:	af00      	add	r7, sp, #0
	return m_rotation;
 8004254:	4b02      	ldr	r3, [pc, #8]	; (8004260 <LCD_getRotation+0x10>)
 8004256:	781b      	ldrb	r3, [r3, #0]
}
 8004258:	0018      	movs	r0, r3
 800425a:	46bd      	mov	sp, r7
 800425c:	bd80      	pop	{r7, pc}
 800425e:	46c0      	nop			; (mov r8, r8)
 8004260:	200006d7 	.word	0x200006d7

08004264 <LCD_SetAddrWindow>:
 * \param x2
 * \param y2
 * 
 * \return void
 */
void LCD_SetAddrWindow(int x1, int y1, int x2, int y2) {
 8004264:	b580      	push	{r7, lr}
 8004266:	b088      	sub	sp, #32
 8004268:	af00      	add	r7, sp, #0
 800426a:	60f8      	str	r0, [r7, #12]
 800426c:	60b9      	str	r1, [r7, #8]
 800426e:	607a      	str	r2, [r7, #4]
 8004270:	603b      	str	r3, [r7, #0]

	LCD_CS_LOW();
 8004272:	4b42      	ldr	r3, [pc, #264]	; (800437c <LCD_SetAddrWindow+0x118>)
 8004274:	2200      	movs	r2, #0
 8004276:	2100      	movs	r1, #0
 8004278:	0018      	movs	r0, r3
 800427a:	f7fe fc19 	bl	8002ab0 <gpio_write>
	// set to the top-left corner -- although fill operations can be
	// done in any direction, the current screen rotation is applied
	// because some users find it disconcerting when a fill does not
	// occur top-to-bottom.
	int x, y, t;
	switch (m_rotation) {
 800427e:	4b40      	ldr	r3, [pc, #256]	; (8004380 <LCD_SetAddrWindow+0x11c>)
 8004280:	781b      	ldrb	r3, [r3, #0]
 8004282:	2b03      	cmp	r3, #3
 8004284:	d037      	beq.n	80042f6 <LCD_SetAddrWindow+0x92>
 8004286:	dc03      	bgt.n	8004290 <LCD_SetAddrWindow+0x2c>
 8004288:	2b01      	cmp	r3, #1
 800428a:	d006      	beq.n	800429a <LCD_SetAddrWindow+0x36>
 800428c:	2b02      	cmp	r3, #2
 800428e:	d017      	beq.n	80042c0 <LCD_SetAddrWindow+0x5c>
	default:
		x = x1;
 8004290:	68fb      	ldr	r3, [r7, #12]
 8004292:	61fb      	str	r3, [r7, #28]
		y = y1;
 8004294:	68bb      	ldr	r3, [r7, #8]
 8004296:	61bb      	str	r3, [r7, #24]
		break;
 8004298:	e042      	b.n	8004320 <LCD_SetAddrWindow+0xbc>
	case 1:
		t = y1;
 800429a:	68bb      	ldr	r3, [r7, #8]
 800429c:	617b      	str	r3, [r7, #20]
		y1 = x1;
 800429e:	68fb      	ldr	r3, [r7, #12]
 80042a0:	60bb      	str	r3, [r7, #8]
		x1 = TFTWIDTH - 1 - y2;
 80042a2:	683b      	ldr	r3, [r7, #0]
 80042a4:	22ef      	movs	r2, #239	; 0xef
 80042a6:	1ad3      	subs	r3, r2, r3
 80042a8:	60fb      	str	r3, [r7, #12]
		y2 = x2;
 80042aa:	687b      	ldr	r3, [r7, #4]
 80042ac:	603b      	str	r3, [r7, #0]
		x2 = TFTWIDTH - 1 - t;
 80042ae:	697b      	ldr	r3, [r7, #20]
 80042b0:	22ef      	movs	r2, #239	; 0xef
 80042b2:	1ad3      	subs	r3, r2, r3
 80042b4:	607b      	str	r3, [r7, #4]
		x = x2;
 80042b6:	687b      	ldr	r3, [r7, #4]
 80042b8:	61fb      	str	r3, [r7, #28]
		y = y1;
 80042ba:	68bb      	ldr	r3, [r7, #8]
 80042bc:	61bb      	str	r3, [r7, #24]
		break;
 80042be:	e02f      	b.n	8004320 <LCD_SetAddrWindow+0xbc>
	case 2:
		t = x1;
 80042c0:	68fb      	ldr	r3, [r7, #12]
 80042c2:	617b      	str	r3, [r7, #20]
		x1 = TFTWIDTH - 1 - x2;
 80042c4:	687b      	ldr	r3, [r7, #4]
 80042c6:	22ef      	movs	r2, #239	; 0xef
 80042c8:	1ad3      	subs	r3, r2, r3
 80042ca:	60fb      	str	r3, [r7, #12]
		x2 = TFTWIDTH - 1 - t;
 80042cc:	697b      	ldr	r3, [r7, #20]
 80042ce:	22ef      	movs	r2, #239	; 0xef
 80042d0:	1ad3      	subs	r3, r2, r3
 80042d2:	607b      	str	r3, [r7, #4]
		t = y1;
 80042d4:	68bb      	ldr	r3, [r7, #8]
 80042d6:	617b      	str	r3, [r7, #20]
		y1 = TFTHEIGHT - 1 - y2;
 80042d8:	683b      	ldr	r3, [r7, #0]
 80042da:	2240      	movs	r2, #64	; 0x40
 80042dc:	32ff      	adds	r2, #255	; 0xff
 80042de:	1ad3      	subs	r3, r2, r3
 80042e0:	60bb      	str	r3, [r7, #8]
		y2 = TFTHEIGHT - 1 - t;
 80042e2:	697b      	ldr	r3, [r7, #20]
 80042e4:	2240      	movs	r2, #64	; 0x40
 80042e6:	32ff      	adds	r2, #255	; 0xff
 80042e8:	1ad3      	subs	r3, r2, r3
 80042ea:	603b      	str	r3, [r7, #0]
		x = x2;
 80042ec:	687b      	ldr	r3, [r7, #4]
 80042ee:	61fb      	str	r3, [r7, #28]
		y = y2;
 80042f0:	683b      	ldr	r3, [r7, #0]
 80042f2:	61bb      	str	r3, [r7, #24]
		break;
 80042f4:	e014      	b.n	8004320 <LCD_SetAddrWindow+0xbc>
	case 3:
		t = x1;
 80042f6:	68fb      	ldr	r3, [r7, #12]
 80042f8:	617b      	str	r3, [r7, #20]
		x1 = y1;
 80042fa:	68bb      	ldr	r3, [r7, #8]
 80042fc:	60fb      	str	r3, [r7, #12]
		y1 = TFTHEIGHT - 1 - x2;
 80042fe:	687b      	ldr	r3, [r7, #4]
 8004300:	2240      	movs	r2, #64	; 0x40
 8004302:	32ff      	adds	r2, #255	; 0xff
 8004304:	1ad3      	subs	r3, r2, r3
 8004306:	60bb      	str	r3, [r7, #8]
		x2 = y2;
 8004308:	683b      	ldr	r3, [r7, #0]
 800430a:	607b      	str	r3, [r7, #4]
		y2 = TFTHEIGHT - 1 - t;
 800430c:	697b      	ldr	r3, [r7, #20]
 800430e:	2240      	movs	r2, #64	; 0x40
 8004310:	32ff      	adds	r2, #255	; 0xff
 8004312:	1ad3      	subs	r3, r2, r3
 8004314:	603b      	str	r3, [r7, #0]
		x = x1;
 8004316:	68fb      	ldr	r3, [r7, #12]
 8004318:	61fb      	str	r3, [r7, #28]
		y = y2;
 800431a:	683b      	ldr	r3, [r7, #0]
 800431c:	61bb      	str	r3, [r7, #24]
		break;
 800431e:	46c0      	nop			; (mov r8, r8)
	}

	LCD_WriteRegister16(0x0050, x1); // Set address window
 8004320:	68fb      	ldr	r3, [r7, #12]
 8004322:	b29b      	uxth	r3, r3
 8004324:	0019      	movs	r1, r3
 8004326:	2050      	movs	r0, #80	; 0x50
 8004328:	f000 f8a6 	bl	8004478 <LCD_WriteRegister16>
	LCD_WriteRegister16(0x0051, x2);
 800432c:	687b      	ldr	r3, [r7, #4]
 800432e:	b29b      	uxth	r3, r3
 8004330:	0019      	movs	r1, r3
 8004332:	2051      	movs	r0, #81	; 0x51
 8004334:	f000 f8a0 	bl	8004478 <LCD_WriteRegister16>
	LCD_WriteRegister16(0x0052, y1);
 8004338:	68bb      	ldr	r3, [r7, #8]
 800433a:	b29b      	uxth	r3, r3
 800433c:	0019      	movs	r1, r3
 800433e:	2052      	movs	r0, #82	; 0x52
 8004340:	f000 f89a 	bl	8004478 <LCD_WriteRegister16>
	LCD_WriteRegister16(0x0053, y2);
 8004344:	683b      	ldr	r3, [r7, #0]
 8004346:	b29b      	uxth	r3, r3
 8004348:	0019      	movs	r1, r3
 800434a:	2053      	movs	r0, #83	; 0x53
 800434c:	f000 f894 	bl	8004478 <LCD_WriteRegister16>
	LCD_WriteRegister16(0x0020, x); // Set address counter to top left
 8004350:	69fb      	ldr	r3, [r7, #28]
 8004352:	b29b      	uxth	r3, r3
 8004354:	0019      	movs	r1, r3
 8004356:	2020      	movs	r0, #32
 8004358:	f000 f88e 	bl	8004478 <LCD_WriteRegister16>
	LCD_WriteRegister16(0x0021, y);
 800435c:	69bb      	ldr	r3, [r7, #24]
 800435e:	b29b      	uxth	r3, r3
 8004360:	0019      	movs	r1, r3
 8004362:	2021      	movs	r0, #33	; 0x21
 8004364:	f000 f888 	bl	8004478 <LCD_WriteRegister16>

	LCD_CS_HIGH();
 8004368:	4b04      	ldr	r3, [pc, #16]	; (800437c <LCD_SetAddrWindow+0x118>)
 800436a:	2201      	movs	r2, #1
 800436c:	2100      	movs	r1, #0
 800436e:	0018      	movs	r0, r3
 8004370:	f7fe fb9e 	bl	8002ab0 <gpio_write>
}
 8004374:	46c0      	nop			; (mov r8, r8)
 8004376:	46bd      	mov	sp, r7
 8004378:	b008      	add	sp, #32
 800437a:	bd80      	pop	{r7, pc}
 800437c:	48000400 	.word	0x48000400
 8004380:	200006d7 	.word	0x200006d7

08004384 <LCD_Write8>:
 * 
 * \param data	8-Bit Data
 * 
 * \return void
 */
void LCD_Write8(uint8_t data) {
 8004384:	b580      	push	{r7, lr}
 8004386:	b082      	sub	sp, #8
 8004388:	af00      	add	r7, sp, #0
 800438a:	0002      	movs	r2, r0
 800438c:	1dfb      	adds	r3, r7, #7
 800438e:	701a      	strb	r2, [r3, #0]
	// GPIOB, GPIO_PIN_5  -> BIT 4 -> 0x10
	// GPIOB, GPIO_PIN_4  -> BIT 5 -> 0x20
	// GPIOB, GPIO_PIN_10 -> BIT 6 -> 0x40
	// GPIOA, GPIO_PIN_8  -> BIT 7 -> 0x80

	GPIOA->ODR = (GPIOA->ODR & 0xF8FF) | ((data & 0x01) << 9)
 8004390:	2390      	movs	r3, #144	; 0x90
 8004392:	05db      	lsls	r3, r3, #23
 8004394:	695b      	ldr	r3, [r3, #20]
 8004396:	4a33      	ldr	r2, [pc, #204]	; (8004464 <LCD_Write8+0xe0>)
 8004398:	401a      	ands	r2, r3
 800439a:	1dfb      	adds	r3, r7, #7
 800439c:	781b      	ldrb	r3, [r3, #0]
 800439e:	025b      	lsls	r3, r3, #9
 80043a0:	0019      	movs	r1, r3
 80043a2:	2380      	movs	r3, #128	; 0x80
 80043a4:	009b      	lsls	r3, r3, #2
 80043a6:	400b      	ands	r3, r1
 80043a8:	431a      	orrs	r2, r3
			| ((data & 0x04) << 8) | ((data & 0x80) << 1);
 80043aa:	1dfb      	adds	r3, r7, #7
 80043ac:	781b      	ldrb	r3, [r3, #0]
 80043ae:	021b      	lsls	r3, r3, #8
 80043b0:	0019      	movs	r1, r3
 80043b2:	2380      	movs	r3, #128	; 0x80
 80043b4:	00db      	lsls	r3, r3, #3
 80043b6:	400b      	ands	r3, r1
 80043b8:	431a      	orrs	r2, r3
 80043ba:	0011      	movs	r1, r2
 80043bc:	1dfb      	adds	r3, r7, #7
 80043be:	781b      	ldrb	r3, [r3, #0]
 80043c0:	005b      	lsls	r3, r3, #1
 80043c2:	001a      	movs	r2, r3
 80043c4:	2380      	movs	r3, #128	; 0x80
 80043c6:	005b      	lsls	r3, r3, #1
 80043c8:	401a      	ands	r2, r3
	GPIOA->ODR = (GPIOA->ODR & 0xF8FF) | ((data & 0x01) << 9)
 80043ca:	2390      	movs	r3, #144	; 0x90
 80043cc:	05db      	lsls	r3, r3, #23
			| ((data & 0x04) << 8) | ((data & 0x80) << 1);
 80043ce:	430a      	orrs	r2, r1
	GPIOA->ODR = (GPIOA->ODR & 0xF8FF) | ((data & 0x01) << 9)
 80043d0:	615a      	str	r2, [r3, #20]
	GPIOB->ODR = (GPIOB->ODR & 0xFBC7) | (data & 0x08) | ((data & 0x10) << 1)
 80043d2:	4b25      	ldr	r3, [pc, #148]	; (8004468 <LCD_Write8+0xe4>)
 80043d4:	695b      	ldr	r3, [r3, #20]
 80043d6:	4a25      	ldr	r2, [pc, #148]	; (800446c <LCD_Write8+0xe8>)
 80043d8:	401a      	ands	r2, r3
 80043da:	1dfb      	adds	r3, r7, #7
 80043dc:	781b      	ldrb	r3, [r3, #0]
 80043de:	2108      	movs	r1, #8
 80043e0:	400b      	ands	r3, r1
 80043e2:	431a      	orrs	r2, r3
 80043e4:	1dfb      	adds	r3, r7, #7
 80043e6:	781b      	ldrb	r3, [r3, #0]
 80043e8:	005b      	lsls	r3, r3, #1
 80043ea:	0019      	movs	r1, r3
 80043ec:	2320      	movs	r3, #32
 80043ee:	400b      	ands	r3, r1
 80043f0:	431a      	orrs	r2, r3
			| ((data & 0x20) >> 1) | ((data & 0x40) << 4);
 80043f2:	1dfb      	adds	r3, r7, #7
 80043f4:	781b      	ldrb	r3, [r3, #0]
 80043f6:	105b      	asrs	r3, r3, #1
 80043f8:	0019      	movs	r1, r3
 80043fa:	2310      	movs	r3, #16
 80043fc:	400b      	ands	r3, r1
 80043fe:	431a      	orrs	r2, r3
 8004400:	0011      	movs	r1, r2
 8004402:	1dfb      	adds	r3, r7, #7
 8004404:	781b      	ldrb	r3, [r3, #0]
 8004406:	011b      	lsls	r3, r3, #4
 8004408:	001a      	movs	r2, r3
 800440a:	2380      	movs	r3, #128	; 0x80
 800440c:	00db      	lsls	r3, r3, #3
 800440e:	401a      	ands	r2, r3
	GPIOB->ODR = (GPIOB->ODR & 0xFBC7) | (data & 0x08) | ((data & 0x10) << 1)
 8004410:	4b15      	ldr	r3, [pc, #84]	; (8004468 <LCD_Write8+0xe4>)
			| ((data & 0x20) >> 1) | ((data & 0x40) << 4);
 8004412:	430a      	orrs	r2, r1
	GPIOB->ODR = (GPIOB->ODR & 0xFBC7) | (data & 0x08) | ((data & 0x10) << 1)
 8004414:	615a      	str	r2, [r3, #20]
	GPIOC->ODR = (GPIOC->ODR & 0xFF7F) | ((data & 0x02) << 6);
 8004416:	4b16      	ldr	r3, [pc, #88]	; (8004470 <LCD_Write8+0xec>)
 8004418:	695b      	ldr	r3, [r3, #20]
 800441a:	4a16      	ldr	r2, [pc, #88]	; (8004474 <LCD_Write8+0xf0>)
 800441c:	4013      	ands	r3, r2
 800441e:	0019      	movs	r1, r3
 8004420:	1dfb      	adds	r3, r7, #7
 8004422:	781b      	ldrb	r3, [r3, #0]
 8004424:	019b      	lsls	r3, r3, #6
 8004426:	001a      	movs	r2, r3
 8004428:	2380      	movs	r3, #128	; 0x80
 800442a:	401a      	ands	r2, r3
 800442c:	4b10      	ldr	r3, [pc, #64]	; (8004470 <LCD_Write8+0xec>)
 800442e:	430a      	orrs	r2, r1
 8004430:	615a      	str	r2, [r3, #20]

	LCD_WR_STROBE();
 8004432:	2390      	movs	r3, #144	; 0x90
 8004434:	05db      	lsls	r3, r3, #23
 8004436:	2200      	movs	r2, #0
 8004438:	2101      	movs	r1, #1
 800443a:	0018      	movs	r0, r3
 800443c:	f7fe fb38 	bl	8002ab0 <gpio_write>
 8004440:	2001      	movs	r0, #1
 8004442:	f7ff fa93 	bl	800396c <delay>
 8004446:	2390      	movs	r3, #144	; 0x90
 8004448:	05db      	lsls	r3, r3, #23
 800444a:	2201      	movs	r2, #1
 800444c:	2101      	movs	r1, #1
 800444e:	0018      	movs	r0, r3
 8004450:	f7fe fb2e 	bl	8002ab0 <gpio_write>
 8004454:	2001      	movs	r0, #1
 8004456:	f7ff fa89 	bl	800396c <delay>
}
 800445a:	46c0      	nop			; (mov r8, r8)
 800445c:	46bd      	mov	sp, r7
 800445e:	b002      	add	sp, #8
 8004460:	bd80      	pop	{r7, pc}
 8004462:	46c0      	nop			; (mov r8, r8)
 8004464:	0000f8ff 	.word	0x0000f8ff
 8004468:	48000400 	.word	0x48000400
 800446c:	0000fbc7 	.word	0x0000fbc7
 8004470:	48000800 	.word	0x48000800
 8004474:	0000ff7f 	.word	0x0000ff7f

08004478 <LCD_WriteRegister16>:
 * \param a		Register
 * \param d		Data
 * 
 * \return void
 */
void LCD_WriteRegister16(uint16_t a, uint16_t d) {
 8004478:	b5b0      	push	{r4, r5, r7, lr}
 800447a:	b084      	sub	sp, #16
 800447c:	af00      	add	r7, sp, #0
 800447e:	0002      	movs	r2, r0
 8004480:	1dbb      	adds	r3, r7, #6
 8004482:	801a      	strh	r2, [r3, #0]
 8004484:	1d3b      	adds	r3, r7, #4
 8004486:	1c0a      	adds	r2, r1, #0
 8004488:	801a      	strh	r2, [r3, #0]
	uint8_t hi, lo;
	hi = (a) >> 8;
 800448a:	1dbb      	adds	r3, r7, #6
 800448c:	881b      	ldrh	r3, [r3, #0]
 800448e:	0a1b      	lsrs	r3, r3, #8
 8004490:	b29a      	uxth	r2, r3
 8004492:	240f      	movs	r4, #15
 8004494:	193b      	adds	r3, r7, r4
 8004496:	701a      	strb	r2, [r3, #0]
	lo = (a);
 8004498:	250e      	movs	r5, #14
 800449a:	197b      	adds	r3, r7, r5
 800449c:	1dba      	adds	r2, r7, #6
 800449e:	8812      	ldrh	r2, [r2, #0]
 80044a0:	701a      	strb	r2, [r3, #0]
	LCD_CD_LOW();
 80044a2:	2390      	movs	r3, #144	; 0x90
 80044a4:	05db      	lsls	r3, r3, #23
 80044a6:	2200      	movs	r2, #0
 80044a8:	2104      	movs	r1, #4
 80044aa:	0018      	movs	r0, r3
 80044ac:	f7fe fb00 	bl	8002ab0 <gpio_write>
	LCD_Write8(hi);
 80044b0:	193b      	adds	r3, r7, r4
 80044b2:	781b      	ldrb	r3, [r3, #0]
 80044b4:	0018      	movs	r0, r3
 80044b6:	f7ff ff65 	bl	8004384 <LCD_Write8>
	LCD_Write8(lo);
 80044ba:	197b      	adds	r3, r7, r5
 80044bc:	781b      	ldrb	r3, [r3, #0]
 80044be:	0018      	movs	r0, r3
 80044c0:	f7ff ff60 	bl	8004384 <LCD_Write8>
	hi = (d) >> 8;
 80044c4:	1d3b      	adds	r3, r7, #4
 80044c6:	881b      	ldrh	r3, [r3, #0]
 80044c8:	0a1b      	lsrs	r3, r3, #8
 80044ca:	b29a      	uxth	r2, r3
 80044cc:	193b      	adds	r3, r7, r4
 80044ce:	701a      	strb	r2, [r3, #0]
	lo = (d);
 80044d0:	197b      	adds	r3, r7, r5
 80044d2:	1d3a      	adds	r2, r7, #4
 80044d4:	8812      	ldrh	r2, [r2, #0]
 80044d6:	701a      	strb	r2, [r3, #0]
	LCD_CD_HIGH();
 80044d8:	2390      	movs	r3, #144	; 0x90
 80044da:	05db      	lsls	r3, r3, #23
 80044dc:	2201      	movs	r2, #1
 80044de:	2104      	movs	r1, #4
 80044e0:	0018      	movs	r0, r3
 80044e2:	f7fe fae5 	bl	8002ab0 <gpio_write>
	LCD_Write8(hi);
 80044e6:	193b      	adds	r3, r7, r4
 80044e8:	781b      	ldrb	r3, [r3, #0]
 80044ea:	0018      	movs	r0, r3
 80044ec:	f7ff ff4a 	bl	8004384 <LCD_Write8>
	LCD_Write8(lo);
 80044f0:	197b      	adds	r3, r7, r5
 80044f2:	781b      	ldrb	r3, [r3, #0]
 80044f4:	0018      	movs	r0, r3
 80044f6:	f7ff ff45 	bl	8004384 <LCD_Write8>
}
 80044fa:	46c0      	nop			; (mov r8, r8)
 80044fc:	46bd      	mov	sp, r7
 80044fe:	b004      	add	sp, #16
 8004500:	bdb0      	pop	{r4, r5, r7, pc}
	...

08004504 <disk_status>:
  * @retval DSTATUS: Operation status
  */
DSTATUS disk_status (
	BYTE pdrv		/* Physical drive nmuber to identify the drive */
)
{
 8004504:	b5b0      	push	{r4, r5, r7, lr}
 8004506:	b084      	sub	sp, #16
 8004508:	af00      	add	r7, sp, #0
 800450a:	0002      	movs	r2, r0
 800450c:	1dfb      	adds	r3, r7, #7
 800450e:	701a      	strb	r2, [r3, #0]
  DSTATUS stat;
  
  stat = disk.drv[pdrv]->disk_status(disk.lun[pdrv]);
 8004510:	1dfb      	adds	r3, r7, #7
 8004512:	781b      	ldrb	r3, [r3, #0]
 8004514:	4a0b      	ldr	r2, [pc, #44]	; (8004544 <disk_status+0x40>)
 8004516:	009b      	lsls	r3, r3, #2
 8004518:	18d3      	adds	r3, r2, r3
 800451a:	3304      	adds	r3, #4
 800451c:	681b      	ldr	r3, [r3, #0]
 800451e:	685b      	ldr	r3, [r3, #4]
 8004520:	1dfa      	adds	r2, r7, #7
 8004522:	7812      	ldrb	r2, [r2, #0]
 8004524:	4907      	ldr	r1, [pc, #28]	; (8004544 <disk_status+0x40>)
 8004526:	188a      	adds	r2, r1, r2
 8004528:	7a12      	ldrb	r2, [r2, #8]
 800452a:	250f      	movs	r5, #15
 800452c:	197c      	adds	r4, r7, r5
 800452e:	0010      	movs	r0, r2
 8004530:	4798      	blx	r3
 8004532:	0003      	movs	r3, r0
 8004534:	7023      	strb	r3, [r4, #0]
  return stat;
 8004536:	197b      	adds	r3, r7, r5
 8004538:	781b      	ldrb	r3, [r3, #0]
}
 800453a:	0018      	movs	r0, r3
 800453c:	46bd      	mov	sp, r7
 800453e:	b004      	add	sp, #16
 8004540:	bdb0      	pop	{r4, r5, r7, pc}
 8004542:	46c0      	nop			; (mov r8, r8)
 8004544:	200006fc 	.word	0x200006fc

08004548 <disk_initialize>:
  * @retval DSTATUS: Operation status
  */
DSTATUS disk_initialize (
	BYTE pdrv				/* Physical drive nmuber to identify the drive */
)
{
 8004548:	b590      	push	{r4, r7, lr}
 800454a:	b085      	sub	sp, #20
 800454c:	af00      	add	r7, sp, #0
 800454e:	0002      	movs	r2, r0
 8004550:	1dfb      	adds	r3, r7, #7
 8004552:	701a      	strb	r2, [r3, #0]
  DSTATUS stat = RES_OK;
 8004554:	200f      	movs	r0, #15
 8004556:	183b      	adds	r3, r7, r0
 8004558:	2200      	movs	r2, #0
 800455a:	701a      	strb	r2, [r3, #0]
  
  if(disk.is_initialized[pdrv] == 0)
 800455c:	1dfb      	adds	r3, r7, #7
 800455e:	781b      	ldrb	r3, [r3, #0]
 8004560:	4a10      	ldr	r2, [pc, #64]	; (80045a4 <disk_initialize+0x5c>)
 8004562:	5cd3      	ldrb	r3, [r2, r3]
 8004564:	2b00      	cmp	r3, #0
 8004566:	d116      	bne.n	8004596 <disk_initialize+0x4e>
  { 
    disk.is_initialized[pdrv] = 1;
 8004568:	1dfb      	adds	r3, r7, #7
 800456a:	781b      	ldrb	r3, [r3, #0]
 800456c:	4a0d      	ldr	r2, [pc, #52]	; (80045a4 <disk_initialize+0x5c>)
 800456e:	2101      	movs	r1, #1
 8004570:	54d1      	strb	r1, [r2, r3]
    stat = disk.drv[pdrv]->disk_initialize(disk.lun[pdrv]);
 8004572:	1dfb      	adds	r3, r7, #7
 8004574:	781b      	ldrb	r3, [r3, #0]
 8004576:	4a0b      	ldr	r2, [pc, #44]	; (80045a4 <disk_initialize+0x5c>)
 8004578:	009b      	lsls	r3, r3, #2
 800457a:	18d3      	adds	r3, r2, r3
 800457c:	3304      	adds	r3, #4
 800457e:	681b      	ldr	r3, [r3, #0]
 8004580:	681b      	ldr	r3, [r3, #0]
 8004582:	1dfa      	adds	r2, r7, #7
 8004584:	7812      	ldrb	r2, [r2, #0]
 8004586:	4907      	ldr	r1, [pc, #28]	; (80045a4 <disk_initialize+0x5c>)
 8004588:	188a      	adds	r2, r1, r2
 800458a:	7a12      	ldrb	r2, [r2, #8]
 800458c:	183c      	adds	r4, r7, r0
 800458e:	0010      	movs	r0, r2
 8004590:	4798      	blx	r3
 8004592:	0003      	movs	r3, r0
 8004594:	7023      	strb	r3, [r4, #0]
  }
  return stat;
 8004596:	230f      	movs	r3, #15
 8004598:	18fb      	adds	r3, r7, r3
 800459a:	781b      	ldrb	r3, [r3, #0]
}
 800459c:	0018      	movs	r0, r3
 800459e:	46bd      	mov	sp, r7
 80045a0:	b005      	add	sp, #20
 80045a2:	bd90      	pop	{r4, r7, pc}
 80045a4:	200006fc 	.word	0x200006fc

080045a8 <disk_read>:
	BYTE pdrv,		/* Physical drive nmuber to identify the drive */
	BYTE *buff,		/* Data buffer to store read data */
	DWORD sector,	        /* Sector address in LBA */
	UINT count		/* Number of sectors to read */
)
{
 80045a8:	b5f0      	push	{r4, r5, r6, r7, lr}
 80045aa:	b087      	sub	sp, #28
 80045ac:	af00      	add	r7, sp, #0
 80045ae:	60b9      	str	r1, [r7, #8]
 80045b0:	607a      	str	r2, [r7, #4]
 80045b2:	603b      	str	r3, [r7, #0]
 80045b4:	210f      	movs	r1, #15
 80045b6:	187b      	adds	r3, r7, r1
 80045b8:	1c02      	adds	r2, r0, #0
 80045ba:	701a      	strb	r2, [r3, #0]
  DRESULT res;
 
  res = disk.drv[pdrv]->disk_read(disk.lun[pdrv], buff, sector, count);
 80045bc:	187b      	adds	r3, r7, r1
 80045be:	781b      	ldrb	r3, [r3, #0]
 80045c0:	4a0c      	ldr	r2, [pc, #48]	; (80045f4 <disk_read+0x4c>)
 80045c2:	009b      	lsls	r3, r3, #2
 80045c4:	18d3      	adds	r3, r2, r3
 80045c6:	3304      	adds	r3, #4
 80045c8:	681b      	ldr	r3, [r3, #0]
 80045ca:	689d      	ldr	r5, [r3, #8]
 80045cc:	187b      	adds	r3, r7, r1
 80045ce:	781b      	ldrb	r3, [r3, #0]
 80045d0:	4a08      	ldr	r2, [pc, #32]	; (80045f4 <disk_read+0x4c>)
 80045d2:	18d3      	adds	r3, r2, r3
 80045d4:	7a18      	ldrb	r0, [r3, #8]
 80045d6:	2617      	movs	r6, #23
 80045d8:	19bc      	adds	r4, r7, r6
 80045da:	683b      	ldr	r3, [r7, #0]
 80045dc:	687a      	ldr	r2, [r7, #4]
 80045de:	68b9      	ldr	r1, [r7, #8]
 80045e0:	47a8      	blx	r5
 80045e2:	0003      	movs	r3, r0
 80045e4:	7023      	strb	r3, [r4, #0]
  return res;
 80045e6:	19bb      	adds	r3, r7, r6
 80045e8:	781b      	ldrb	r3, [r3, #0]
}
 80045ea:	0018      	movs	r0, r3
 80045ec:	46bd      	mov	sp, r7
 80045ee:	b007      	add	sp, #28
 80045f0:	bdf0      	pop	{r4, r5, r6, r7, pc}
 80045f2:	46c0      	nop			; (mov r8, r8)
 80045f4:	200006fc 	.word	0x200006fc

080045f8 <disk_write>:
	BYTE pdrv,		/* Physical drive nmuber to identify the drive */
	const BYTE *buff,	/* Data to be written */
	DWORD sector,		/* Sector address in LBA */
	UINT count        	/* Number of sectors to write */
)
{
 80045f8:	b5f0      	push	{r4, r5, r6, r7, lr}
 80045fa:	b087      	sub	sp, #28
 80045fc:	af00      	add	r7, sp, #0
 80045fe:	60b9      	str	r1, [r7, #8]
 8004600:	607a      	str	r2, [r7, #4]
 8004602:	603b      	str	r3, [r7, #0]
 8004604:	210f      	movs	r1, #15
 8004606:	187b      	adds	r3, r7, r1
 8004608:	1c02      	adds	r2, r0, #0
 800460a:	701a      	strb	r2, [r3, #0]
  DRESULT res;
  
  res = disk.drv[pdrv]->disk_write(disk.lun[pdrv], buff, sector, count);
 800460c:	187b      	adds	r3, r7, r1
 800460e:	781b      	ldrb	r3, [r3, #0]
 8004610:	4a0c      	ldr	r2, [pc, #48]	; (8004644 <disk_write+0x4c>)
 8004612:	009b      	lsls	r3, r3, #2
 8004614:	18d3      	adds	r3, r2, r3
 8004616:	3304      	adds	r3, #4
 8004618:	681b      	ldr	r3, [r3, #0]
 800461a:	68dd      	ldr	r5, [r3, #12]
 800461c:	187b      	adds	r3, r7, r1
 800461e:	781b      	ldrb	r3, [r3, #0]
 8004620:	4a08      	ldr	r2, [pc, #32]	; (8004644 <disk_write+0x4c>)
 8004622:	18d3      	adds	r3, r2, r3
 8004624:	7a18      	ldrb	r0, [r3, #8]
 8004626:	2617      	movs	r6, #23
 8004628:	19bc      	adds	r4, r7, r6
 800462a:	683b      	ldr	r3, [r7, #0]
 800462c:	687a      	ldr	r2, [r7, #4]
 800462e:	68b9      	ldr	r1, [r7, #8]
 8004630:	47a8      	blx	r5
 8004632:	0003      	movs	r3, r0
 8004634:	7023      	strb	r3, [r4, #0]
  return res;
 8004636:	19bb      	adds	r3, r7, r6
 8004638:	781b      	ldrb	r3, [r3, #0]
}
 800463a:	0018      	movs	r0, r3
 800463c:	46bd      	mov	sp, r7
 800463e:	b007      	add	sp, #28
 8004640:	bdf0      	pop	{r4, r5, r6, r7, pc}
 8004642:	46c0      	nop			; (mov r8, r8)
 8004644:	200006fc 	.word	0x200006fc

08004648 <disk_ioctl>:
DRESULT disk_ioctl (
	BYTE pdrv,		/* Physical drive nmuber (0..) */
	BYTE cmd,		/* Control code */
	void *buff		/* Buffer to send/receive control data */
)
{
 8004648:	b5f0      	push	{r4, r5, r6, r7, lr}
 800464a:	b085      	sub	sp, #20
 800464c:	af00      	add	r7, sp, #0
 800464e:	603a      	str	r2, [r7, #0]
 8004650:	1dfb      	adds	r3, r7, #7
 8004652:	1c02      	adds	r2, r0, #0
 8004654:	701a      	strb	r2, [r3, #0]
 8004656:	1dbb      	adds	r3, r7, #6
 8004658:	1c0a      	adds	r2, r1, #0
 800465a:	701a      	strb	r2, [r3, #0]
  DRESULT res;

  res = disk.drv[pdrv]->disk_ioctl(disk.lun[pdrv], cmd, buff);
 800465c:	1dfb      	adds	r3, r7, #7
 800465e:	781b      	ldrb	r3, [r3, #0]
 8004660:	4a0c      	ldr	r2, [pc, #48]	; (8004694 <disk_ioctl+0x4c>)
 8004662:	009b      	lsls	r3, r3, #2
 8004664:	18d3      	adds	r3, r2, r3
 8004666:	3304      	adds	r3, #4
 8004668:	681b      	ldr	r3, [r3, #0]
 800466a:	691b      	ldr	r3, [r3, #16]
 800466c:	1dfa      	adds	r2, r7, #7
 800466e:	7812      	ldrb	r2, [r2, #0]
 8004670:	4908      	ldr	r1, [pc, #32]	; (8004694 <disk_ioctl+0x4c>)
 8004672:	188a      	adds	r2, r1, r2
 8004674:	7a10      	ldrb	r0, [r2, #8]
 8004676:	260f      	movs	r6, #15
 8004678:	19bc      	adds	r4, r7, r6
 800467a:	683d      	ldr	r5, [r7, #0]
 800467c:	1dba      	adds	r2, r7, #6
 800467e:	7811      	ldrb	r1, [r2, #0]
 8004680:	002a      	movs	r2, r5
 8004682:	4798      	blx	r3
 8004684:	0003      	movs	r3, r0
 8004686:	7023      	strb	r3, [r4, #0]
  return res;
 8004688:	19bb      	adds	r3, r7, r6
 800468a:	781b      	ldrb	r3, [r3, #0]
}
 800468c:	0018      	movs	r0, r3
 800468e:	46bd      	mov	sp, r7
 8004690:	b005      	add	sp, #20
 8004692:	bdf0      	pop	{r4, r5, r6, r7, pc}
 8004694:	200006fc 	.word	0x200006fc

08004698 <mem_cpy>:
/* String functions                                                      */
/*-----------------------------------------------------------------------*/

/* Copy memory to memory */
static
void mem_cpy (void* dst, const void* src, UINT cnt) {
 8004698:	b580      	push	{r7, lr}
 800469a:	b086      	sub	sp, #24
 800469c:	af00      	add	r7, sp, #0
 800469e:	60f8      	str	r0, [r7, #12]
 80046a0:	60b9      	str	r1, [r7, #8]
 80046a2:	607a      	str	r2, [r7, #4]
	BYTE *d = (BYTE*)dst;
 80046a4:	68fb      	ldr	r3, [r7, #12]
 80046a6:	617b      	str	r3, [r7, #20]
	const BYTE *s = (const BYTE*)src;
 80046a8:	68bb      	ldr	r3, [r7, #8]
 80046aa:	613b      	str	r3, [r7, #16]
		*(int*)d = *(int*)s;
		d += sizeof (int); s += sizeof (int);
		cnt -= sizeof (int);
	}
#endif
	while (cnt--)
 80046ac:	e007      	b.n	80046be <mem_cpy+0x26>
		*d++ = *s++;
 80046ae:	693a      	ldr	r2, [r7, #16]
 80046b0:	1c53      	adds	r3, r2, #1
 80046b2:	613b      	str	r3, [r7, #16]
 80046b4:	697b      	ldr	r3, [r7, #20]
 80046b6:	1c59      	adds	r1, r3, #1
 80046b8:	6179      	str	r1, [r7, #20]
 80046ba:	7812      	ldrb	r2, [r2, #0]
 80046bc:	701a      	strb	r2, [r3, #0]
	while (cnt--)
 80046be:	687b      	ldr	r3, [r7, #4]
 80046c0:	1e5a      	subs	r2, r3, #1
 80046c2:	607a      	str	r2, [r7, #4]
 80046c4:	2b00      	cmp	r3, #0
 80046c6:	d1f2      	bne.n	80046ae <mem_cpy+0x16>
}
 80046c8:	46c0      	nop			; (mov r8, r8)
 80046ca:	46c0      	nop			; (mov r8, r8)
 80046cc:	46bd      	mov	sp, r7
 80046ce:	b006      	add	sp, #24
 80046d0:	bd80      	pop	{r7, pc}

080046d2 <mem_set>:

/* Fill memory */
static
void mem_set (void* dst, int val, UINT cnt) {
 80046d2:	b580      	push	{r7, lr}
 80046d4:	b086      	sub	sp, #24
 80046d6:	af00      	add	r7, sp, #0
 80046d8:	60f8      	str	r0, [r7, #12]
 80046da:	60b9      	str	r1, [r7, #8]
 80046dc:	607a      	str	r2, [r7, #4]
	BYTE *d = (BYTE*)dst;
 80046de:	68fb      	ldr	r3, [r7, #12]
 80046e0:	617b      	str	r3, [r7, #20]

	while (cnt--)
 80046e2:	e005      	b.n	80046f0 <mem_set+0x1e>
		*d++ = (BYTE)val;
 80046e4:	697b      	ldr	r3, [r7, #20]
 80046e6:	1c5a      	adds	r2, r3, #1
 80046e8:	617a      	str	r2, [r7, #20]
 80046ea:	68ba      	ldr	r2, [r7, #8]
 80046ec:	b2d2      	uxtb	r2, r2
 80046ee:	701a      	strb	r2, [r3, #0]
	while (cnt--)
 80046f0:	687b      	ldr	r3, [r7, #4]
 80046f2:	1e5a      	subs	r2, r3, #1
 80046f4:	607a      	str	r2, [r7, #4]
 80046f6:	2b00      	cmp	r3, #0
 80046f8:	d1f4      	bne.n	80046e4 <mem_set+0x12>
}
 80046fa:	46c0      	nop			; (mov r8, r8)
 80046fc:	46c0      	nop			; (mov r8, r8)
 80046fe:	46bd      	mov	sp, r7
 8004700:	b006      	add	sp, #24
 8004702:	bd80      	pop	{r7, pc}

08004704 <mem_cmp>:

/* Compare memory to memory */
static
int mem_cmp (const void* dst, const void* src, UINT cnt) {
 8004704:	b580      	push	{r7, lr}
 8004706:	b088      	sub	sp, #32
 8004708:	af00      	add	r7, sp, #0
 800470a:	60f8      	str	r0, [r7, #12]
 800470c:	60b9      	str	r1, [r7, #8]
 800470e:	607a      	str	r2, [r7, #4]
	const BYTE *d = (const BYTE *)dst, *s = (const BYTE *)src;
 8004710:	68fb      	ldr	r3, [r7, #12]
 8004712:	61fb      	str	r3, [r7, #28]
 8004714:	68bb      	ldr	r3, [r7, #8]
 8004716:	61bb      	str	r3, [r7, #24]
	int r = 0;
 8004718:	2300      	movs	r3, #0
 800471a:	617b      	str	r3, [r7, #20]

	while (cnt-- && (r = *d++ - *s++) == 0) ;
 800471c:	46c0      	nop			; (mov r8, r8)
 800471e:	687b      	ldr	r3, [r7, #4]
 8004720:	1e5a      	subs	r2, r3, #1
 8004722:	607a      	str	r2, [r7, #4]
 8004724:	2b00      	cmp	r3, #0
 8004726:	d00d      	beq.n	8004744 <mem_cmp+0x40>
 8004728:	69fb      	ldr	r3, [r7, #28]
 800472a:	1c5a      	adds	r2, r3, #1
 800472c:	61fa      	str	r2, [r7, #28]
 800472e:	781b      	ldrb	r3, [r3, #0]
 8004730:	0019      	movs	r1, r3
 8004732:	69bb      	ldr	r3, [r7, #24]
 8004734:	1c5a      	adds	r2, r3, #1
 8004736:	61ba      	str	r2, [r7, #24]
 8004738:	781b      	ldrb	r3, [r3, #0]
 800473a:	1acb      	subs	r3, r1, r3
 800473c:	617b      	str	r3, [r7, #20]
 800473e:	697b      	ldr	r3, [r7, #20]
 8004740:	2b00      	cmp	r3, #0
 8004742:	d0ec      	beq.n	800471e <mem_cmp+0x1a>
	return r;
 8004744:	697b      	ldr	r3, [r7, #20]
}
 8004746:	0018      	movs	r0, r3
 8004748:	46bd      	mov	sp, r7
 800474a:	b008      	add	sp, #32
 800474c:	bd80      	pop	{r7, pc}

0800474e <chk_chr>:

/* Check if chr is contained in the string */
static
int chk_chr (const char* str, int chr) {
 800474e:	b580      	push	{r7, lr}
 8004750:	b082      	sub	sp, #8
 8004752:	af00      	add	r7, sp, #0
 8004754:	6078      	str	r0, [r7, #4]
 8004756:	6039      	str	r1, [r7, #0]
	while (*str && *str != chr) str++;
 8004758:	e002      	b.n	8004760 <chk_chr+0x12>
 800475a:	687b      	ldr	r3, [r7, #4]
 800475c:	3301      	adds	r3, #1
 800475e:	607b      	str	r3, [r7, #4]
 8004760:	687b      	ldr	r3, [r7, #4]
 8004762:	781b      	ldrb	r3, [r3, #0]
 8004764:	2b00      	cmp	r3, #0
 8004766:	d005      	beq.n	8004774 <chk_chr+0x26>
 8004768:	687b      	ldr	r3, [r7, #4]
 800476a:	781b      	ldrb	r3, [r3, #0]
 800476c:	001a      	movs	r2, r3
 800476e:	683b      	ldr	r3, [r7, #0]
 8004770:	4293      	cmp	r3, r2
 8004772:	d1f2      	bne.n	800475a <chk_chr+0xc>
	return *str;
 8004774:	687b      	ldr	r3, [r7, #4]
 8004776:	781b      	ldrb	r3, [r3, #0]
}
 8004778:	0018      	movs	r0, r3
 800477a:	46bd      	mov	sp, r7
 800477c:	b002      	add	sp, #8
 800477e:	bd80      	pop	{r7, pc}

08004780 <chk_lock>:
static
FRESULT chk_lock (	/* Check if the file can be accessed */
	DIR* dp,		/* Directory object pointing the file to be checked */
	int acc			/* Desired access type (0:Read, 1:Write, 2:Delete/Rename) */
)
{
 8004780:	b580      	push	{r7, lr}
 8004782:	b084      	sub	sp, #16
 8004784:	af00      	add	r7, sp, #0
 8004786:	6078      	str	r0, [r7, #4]
 8004788:	6039      	str	r1, [r7, #0]
	UINT i, be;

	/* Search file semaphore table */
	for (i = be = 0; i < _FS_LOCK; i++) {
 800478a:	2300      	movs	r3, #0
 800478c:	60bb      	str	r3, [r7, #8]
 800478e:	68bb      	ldr	r3, [r7, #8]
 8004790:	60fb      	str	r3, [r7, #12]
 8004792:	e038      	b.n	8004806 <chk_lock+0x86>
		if (Files[i].fs) {	/* Existing entry */
 8004794:	492f      	ldr	r1, [pc, #188]	; (8004854 <chk_lock+0xd4>)
 8004796:	68fa      	ldr	r2, [r7, #12]
 8004798:	0013      	movs	r3, r2
 800479a:	005b      	lsls	r3, r3, #1
 800479c:	189b      	adds	r3, r3, r2
 800479e:	009b      	lsls	r3, r3, #2
 80047a0:	585b      	ldr	r3, [r3, r1]
 80047a2:	2b00      	cmp	r3, #0
 80047a4:	d02a      	beq.n	80047fc <chk_lock+0x7c>
			if (Files[i].fs == dp->fs &&	 	/* Check if the object matched with an open object */
 80047a6:	492b      	ldr	r1, [pc, #172]	; (8004854 <chk_lock+0xd4>)
 80047a8:	68fa      	ldr	r2, [r7, #12]
 80047aa:	0013      	movs	r3, r2
 80047ac:	005b      	lsls	r3, r3, #1
 80047ae:	189b      	adds	r3, r3, r2
 80047b0:	009b      	lsls	r3, r3, #2
 80047b2:	585a      	ldr	r2, [r3, r1]
 80047b4:	6879      	ldr	r1, [r7, #4]
 80047b6:	2380      	movs	r3, #128	; 0x80
 80047b8:	009b      	lsls	r3, r3, #2
 80047ba:	58cb      	ldr	r3, [r1, r3]
 80047bc:	429a      	cmp	r2, r3
 80047be:	d11f      	bne.n	8004800 <chk_lock+0x80>
				Files[i].clu == dp->sclust &&
 80047c0:	4924      	ldr	r1, [pc, #144]	; (8004854 <chk_lock+0xd4>)
 80047c2:	68fa      	ldr	r2, [r7, #12]
 80047c4:	0013      	movs	r3, r2
 80047c6:	005b      	lsls	r3, r3, #1
 80047c8:	189b      	adds	r3, r3, r2
 80047ca:	009b      	lsls	r3, r3, #2
 80047cc:	18cb      	adds	r3, r1, r3
 80047ce:	3304      	adds	r3, #4
 80047d0:	681a      	ldr	r2, [r3, #0]
 80047d2:	6879      	ldr	r1, [r7, #4]
 80047d4:	2382      	movs	r3, #130	; 0x82
 80047d6:	009b      	lsls	r3, r3, #2
 80047d8:	58cb      	ldr	r3, [r1, r3]
			if (Files[i].fs == dp->fs &&	 	/* Check if the object matched with an open object */
 80047da:	429a      	cmp	r2, r3
 80047dc:	d110      	bne.n	8004800 <chk_lock+0x80>
				Files[i].idx == dp->index) break;
 80047de:	491d      	ldr	r1, [pc, #116]	; (8004854 <chk_lock+0xd4>)
 80047e0:	68fa      	ldr	r2, [r7, #12]
 80047e2:	0013      	movs	r3, r2
 80047e4:	005b      	lsls	r3, r3, #1
 80047e6:	189b      	adds	r3, r3, r2
 80047e8:	009b      	lsls	r3, r3, #2
 80047ea:	18cb      	adds	r3, r1, r3
 80047ec:	3308      	adds	r3, #8
 80047ee:	881a      	ldrh	r2, [r3, #0]
 80047f0:	687b      	ldr	r3, [r7, #4]
 80047f2:	4919      	ldr	r1, [pc, #100]	; (8004858 <chk_lock+0xd8>)
 80047f4:	5a5b      	ldrh	r3, [r3, r1]
				Files[i].clu == dp->sclust &&
 80047f6:	429a      	cmp	r2, r3
 80047f8:	d102      	bne.n	8004800 <chk_lock+0x80>
				Files[i].idx == dp->index) break;
 80047fa:	e007      	b.n	800480c <chk_lock+0x8c>
		} else {			/* Blank entry */
			be = 1;
 80047fc:	2301      	movs	r3, #1
 80047fe:	60bb      	str	r3, [r7, #8]
	for (i = be = 0; i < _FS_LOCK; i++) {
 8004800:	68fb      	ldr	r3, [r7, #12]
 8004802:	3301      	adds	r3, #1
 8004804:	60fb      	str	r3, [r7, #12]
 8004806:	68fb      	ldr	r3, [r7, #12]
 8004808:	2b01      	cmp	r3, #1
 800480a:	d9c3      	bls.n	8004794 <chk_lock+0x14>
		}
	}
	if (i == _FS_LOCK)	/* The object is not opened */
 800480c:	68fb      	ldr	r3, [r7, #12]
 800480e:	2b02      	cmp	r3, #2
 8004810:	d109      	bne.n	8004826 <chk_lock+0xa6>
		return (be || acc == 2) ? FR_OK : FR_TOO_MANY_OPEN_FILES;	/* Is there a blank entry for new object? */
 8004812:	68bb      	ldr	r3, [r7, #8]
 8004814:	2b00      	cmp	r3, #0
 8004816:	d102      	bne.n	800481e <chk_lock+0x9e>
 8004818:	683b      	ldr	r3, [r7, #0]
 800481a:	2b02      	cmp	r3, #2
 800481c:	d101      	bne.n	8004822 <chk_lock+0xa2>
 800481e:	2300      	movs	r3, #0
 8004820:	e014      	b.n	800484c <chk_lock+0xcc>
 8004822:	2312      	movs	r3, #18
 8004824:	e012      	b.n	800484c <chk_lock+0xcc>

	/* The object has been opened. Reject any open against writing file and all write mode open */
	return (acc || Files[i].ctr == 0x100) ? FR_LOCKED : FR_OK;
 8004826:	683b      	ldr	r3, [r7, #0]
 8004828:	2b00      	cmp	r3, #0
 800482a:	d10c      	bne.n	8004846 <chk_lock+0xc6>
 800482c:	4909      	ldr	r1, [pc, #36]	; (8004854 <chk_lock+0xd4>)
 800482e:	68fa      	ldr	r2, [r7, #12]
 8004830:	0013      	movs	r3, r2
 8004832:	005b      	lsls	r3, r3, #1
 8004834:	189b      	adds	r3, r3, r2
 8004836:	009b      	lsls	r3, r3, #2
 8004838:	18cb      	adds	r3, r1, r3
 800483a:	330a      	adds	r3, #10
 800483c:	881a      	ldrh	r2, [r3, #0]
 800483e:	2380      	movs	r3, #128	; 0x80
 8004840:	005b      	lsls	r3, r3, #1
 8004842:	429a      	cmp	r2, r3
 8004844:	d101      	bne.n	800484a <chk_lock+0xca>
 8004846:	2310      	movs	r3, #16
 8004848:	e000      	b.n	800484c <chk_lock+0xcc>
 800484a:	2300      	movs	r3, #0
}
 800484c:	0018      	movs	r0, r3
 800484e:	46bd      	mov	sp, r7
 8004850:	b004      	add	sp, #16
 8004852:	bd80      	pop	{r7, pc}
 8004854:	200006e4 	.word	0x200006e4
 8004858:	00000206 	.word	0x00000206

0800485c <enq_lock>:


static
int enq_lock (void)	/* Check if an entry is available for a new object */
{
 800485c:	b580      	push	{r7, lr}
 800485e:	b082      	sub	sp, #8
 8004860:	af00      	add	r7, sp, #0
	UINT i;

	for (i = 0; i < _FS_LOCK && Files[i].fs; i++) ;
 8004862:	2300      	movs	r3, #0
 8004864:	607b      	str	r3, [r7, #4]
 8004866:	e002      	b.n	800486e <enq_lock+0x12>
 8004868:	687b      	ldr	r3, [r7, #4]
 800486a:	3301      	adds	r3, #1
 800486c:	607b      	str	r3, [r7, #4]
 800486e:	687b      	ldr	r3, [r7, #4]
 8004870:	2b01      	cmp	r3, #1
 8004872:	d808      	bhi.n	8004886 <enq_lock+0x2a>
 8004874:	4908      	ldr	r1, [pc, #32]	; (8004898 <enq_lock+0x3c>)
 8004876:	687a      	ldr	r2, [r7, #4]
 8004878:	0013      	movs	r3, r2
 800487a:	005b      	lsls	r3, r3, #1
 800487c:	189b      	adds	r3, r3, r2
 800487e:	009b      	lsls	r3, r3, #2
 8004880:	585b      	ldr	r3, [r3, r1]
 8004882:	2b00      	cmp	r3, #0
 8004884:	d1f0      	bne.n	8004868 <enq_lock+0xc>
	return (i == _FS_LOCK) ? 0 : 1;
 8004886:	687b      	ldr	r3, [r7, #4]
 8004888:	3b02      	subs	r3, #2
 800488a:	1e5a      	subs	r2, r3, #1
 800488c:	4193      	sbcs	r3, r2
 800488e:	b2db      	uxtb	r3, r3
}
 8004890:	0018      	movs	r0, r3
 8004892:	46bd      	mov	sp, r7
 8004894:	b002      	add	sp, #8
 8004896:	bd80      	pop	{r7, pc}
 8004898:	200006e4 	.word	0x200006e4

0800489c <inc_lock>:
static
UINT inc_lock (	/* Increment object open counter and returns its index (0:Internal error) */
	DIR* dp,	/* Directory object pointing the file to register or increment */
	int acc		/* Desired access (0:Read, 1:Write, 2:Delete/Rename) */
)
{
 800489c:	b580      	push	{r7, lr}
 800489e:	b084      	sub	sp, #16
 80048a0:	af00      	add	r7, sp, #0
 80048a2:	6078      	str	r0, [r7, #4]
 80048a4:	6039      	str	r1, [r7, #0]
	UINT i;


	for (i = 0; i < _FS_LOCK; i++) {	/* Find the object */
 80048a6:	2300      	movs	r3, #0
 80048a8:	60fb      	str	r3, [r7, #12]
 80048aa:	e02c      	b.n	8004906 <inc_lock+0x6a>
		if (Files[i].fs == dp->fs &&
 80048ac:	4955      	ldr	r1, [pc, #340]	; (8004a04 <inc_lock+0x168>)
 80048ae:	68fa      	ldr	r2, [r7, #12]
 80048b0:	0013      	movs	r3, r2
 80048b2:	005b      	lsls	r3, r3, #1
 80048b4:	189b      	adds	r3, r3, r2
 80048b6:	009b      	lsls	r3, r3, #2
 80048b8:	585a      	ldr	r2, [r3, r1]
 80048ba:	6879      	ldr	r1, [r7, #4]
 80048bc:	2380      	movs	r3, #128	; 0x80
 80048be:	009b      	lsls	r3, r3, #2
 80048c0:	58cb      	ldr	r3, [r1, r3]
 80048c2:	429a      	cmp	r2, r3
 80048c4:	d11c      	bne.n	8004900 <inc_lock+0x64>
			Files[i].clu == dp->sclust &&
 80048c6:	494f      	ldr	r1, [pc, #316]	; (8004a04 <inc_lock+0x168>)
 80048c8:	68fa      	ldr	r2, [r7, #12]
 80048ca:	0013      	movs	r3, r2
 80048cc:	005b      	lsls	r3, r3, #1
 80048ce:	189b      	adds	r3, r3, r2
 80048d0:	009b      	lsls	r3, r3, #2
 80048d2:	18cb      	adds	r3, r1, r3
 80048d4:	3304      	adds	r3, #4
 80048d6:	681a      	ldr	r2, [r3, #0]
 80048d8:	6879      	ldr	r1, [r7, #4]
 80048da:	2382      	movs	r3, #130	; 0x82
 80048dc:	009b      	lsls	r3, r3, #2
 80048de:	58cb      	ldr	r3, [r1, r3]
		if (Files[i].fs == dp->fs &&
 80048e0:	429a      	cmp	r2, r3
 80048e2:	d10d      	bne.n	8004900 <inc_lock+0x64>
			Files[i].idx == dp->index) break;
 80048e4:	4947      	ldr	r1, [pc, #284]	; (8004a04 <inc_lock+0x168>)
 80048e6:	68fa      	ldr	r2, [r7, #12]
 80048e8:	0013      	movs	r3, r2
 80048ea:	005b      	lsls	r3, r3, #1
 80048ec:	189b      	adds	r3, r3, r2
 80048ee:	009b      	lsls	r3, r3, #2
 80048f0:	18cb      	adds	r3, r1, r3
 80048f2:	3308      	adds	r3, #8
 80048f4:	881a      	ldrh	r2, [r3, #0]
 80048f6:	687b      	ldr	r3, [r7, #4]
 80048f8:	4943      	ldr	r1, [pc, #268]	; (8004a08 <inc_lock+0x16c>)
 80048fa:	5a5b      	ldrh	r3, [r3, r1]
			Files[i].clu == dp->sclust &&
 80048fc:	429a      	cmp	r2, r3
 80048fe:	d006      	beq.n	800490e <inc_lock+0x72>
	for (i = 0; i < _FS_LOCK; i++) {	/* Find the object */
 8004900:	68fb      	ldr	r3, [r7, #12]
 8004902:	3301      	adds	r3, #1
 8004904:	60fb      	str	r3, [r7, #12]
 8004906:	68fb      	ldr	r3, [r7, #12]
 8004908:	2b01      	cmp	r3, #1
 800490a:	d9cf      	bls.n	80048ac <inc_lock+0x10>
 800490c:	e000      	b.n	8004910 <inc_lock+0x74>
			Files[i].idx == dp->index) break;
 800490e:	46c0      	nop			; (mov r8, r8)
	}

	if (i == _FS_LOCK) {				/* Not opened. Register it as new. */
 8004910:	68fb      	ldr	r3, [r7, #12]
 8004912:	2b02      	cmp	r3, #2
 8004914:	d145      	bne.n	80049a2 <inc_lock+0x106>
		for (i = 0; i < _FS_LOCK && Files[i].fs; i++) ;
 8004916:	2300      	movs	r3, #0
 8004918:	60fb      	str	r3, [r7, #12]
 800491a:	e002      	b.n	8004922 <inc_lock+0x86>
 800491c:	68fb      	ldr	r3, [r7, #12]
 800491e:	3301      	adds	r3, #1
 8004920:	60fb      	str	r3, [r7, #12]
 8004922:	68fb      	ldr	r3, [r7, #12]
 8004924:	2b01      	cmp	r3, #1
 8004926:	d808      	bhi.n	800493a <inc_lock+0x9e>
 8004928:	4936      	ldr	r1, [pc, #216]	; (8004a04 <inc_lock+0x168>)
 800492a:	68fa      	ldr	r2, [r7, #12]
 800492c:	0013      	movs	r3, r2
 800492e:	005b      	lsls	r3, r3, #1
 8004930:	189b      	adds	r3, r3, r2
 8004932:	009b      	lsls	r3, r3, #2
 8004934:	585b      	ldr	r3, [r3, r1]
 8004936:	2b00      	cmp	r3, #0
 8004938:	d1f0      	bne.n	800491c <inc_lock+0x80>
		if (i == _FS_LOCK) return 0;	/* No free entry to register (int err) */
 800493a:	68fb      	ldr	r3, [r7, #12]
 800493c:	2b02      	cmp	r3, #2
 800493e:	d101      	bne.n	8004944 <inc_lock+0xa8>
 8004940:	2300      	movs	r3, #0
 8004942:	e05a      	b.n	80049fa <inc_lock+0x15e>
		Files[i].fs = dp->fs;
 8004944:	687a      	ldr	r2, [r7, #4]
 8004946:	2380      	movs	r3, #128	; 0x80
 8004948:	009b      	lsls	r3, r3, #2
 800494a:	58d0      	ldr	r0, [r2, r3]
 800494c:	492d      	ldr	r1, [pc, #180]	; (8004a04 <inc_lock+0x168>)
 800494e:	68fa      	ldr	r2, [r7, #12]
 8004950:	0013      	movs	r3, r2
 8004952:	005b      	lsls	r3, r3, #1
 8004954:	189b      	adds	r3, r3, r2
 8004956:	009b      	lsls	r3, r3, #2
 8004958:	5058      	str	r0, [r3, r1]
		Files[i].clu = dp->sclust;
 800495a:	687a      	ldr	r2, [r7, #4]
 800495c:	2382      	movs	r3, #130	; 0x82
 800495e:	009b      	lsls	r3, r3, #2
 8004960:	58d1      	ldr	r1, [r2, r3]
 8004962:	4828      	ldr	r0, [pc, #160]	; (8004a04 <inc_lock+0x168>)
 8004964:	68fa      	ldr	r2, [r7, #12]
 8004966:	0013      	movs	r3, r2
 8004968:	005b      	lsls	r3, r3, #1
 800496a:	189b      	adds	r3, r3, r2
 800496c:	009b      	lsls	r3, r3, #2
 800496e:	18c3      	adds	r3, r0, r3
 8004970:	3304      	adds	r3, #4
 8004972:	6019      	str	r1, [r3, #0]
		Files[i].idx = dp->index;
 8004974:	687b      	ldr	r3, [r7, #4]
 8004976:	4a24      	ldr	r2, [pc, #144]	; (8004a08 <inc_lock+0x16c>)
 8004978:	5a98      	ldrh	r0, [r3, r2]
 800497a:	4922      	ldr	r1, [pc, #136]	; (8004a04 <inc_lock+0x168>)
 800497c:	68fa      	ldr	r2, [r7, #12]
 800497e:	0013      	movs	r3, r2
 8004980:	005b      	lsls	r3, r3, #1
 8004982:	189b      	adds	r3, r3, r2
 8004984:	009b      	lsls	r3, r3, #2
 8004986:	18cb      	adds	r3, r1, r3
 8004988:	3308      	adds	r3, #8
 800498a:	1c02      	adds	r2, r0, #0
 800498c:	801a      	strh	r2, [r3, #0]
		Files[i].ctr = 0;
 800498e:	491d      	ldr	r1, [pc, #116]	; (8004a04 <inc_lock+0x168>)
 8004990:	68fa      	ldr	r2, [r7, #12]
 8004992:	0013      	movs	r3, r2
 8004994:	005b      	lsls	r3, r3, #1
 8004996:	189b      	adds	r3, r3, r2
 8004998:	009b      	lsls	r3, r3, #2
 800499a:	18cb      	adds	r3, r1, r3
 800499c:	330a      	adds	r3, #10
 800499e:	2200      	movs	r2, #0
 80049a0:	801a      	strh	r2, [r3, #0]
	}

	if (acc && Files[i].ctr) return 0;	/* Access violation (int err) */
 80049a2:	683b      	ldr	r3, [r7, #0]
 80049a4:	2b00      	cmp	r3, #0
 80049a6:	d00c      	beq.n	80049c2 <inc_lock+0x126>
 80049a8:	4916      	ldr	r1, [pc, #88]	; (8004a04 <inc_lock+0x168>)
 80049aa:	68fa      	ldr	r2, [r7, #12]
 80049ac:	0013      	movs	r3, r2
 80049ae:	005b      	lsls	r3, r3, #1
 80049b0:	189b      	adds	r3, r3, r2
 80049b2:	009b      	lsls	r3, r3, #2
 80049b4:	18cb      	adds	r3, r1, r3
 80049b6:	330a      	adds	r3, #10
 80049b8:	881b      	ldrh	r3, [r3, #0]
 80049ba:	2b00      	cmp	r3, #0
 80049bc:	d001      	beq.n	80049c2 <inc_lock+0x126>
 80049be:	2300      	movs	r3, #0
 80049c0:	e01b      	b.n	80049fa <inc_lock+0x15e>

	Files[i].ctr = acc ? 0x100 : Files[i].ctr + 1;	/* Set semaphore value */
 80049c2:	683b      	ldr	r3, [r7, #0]
 80049c4:	2b00      	cmp	r3, #0
 80049c6:	d10b      	bne.n	80049e0 <inc_lock+0x144>
 80049c8:	490e      	ldr	r1, [pc, #56]	; (8004a04 <inc_lock+0x168>)
 80049ca:	68fa      	ldr	r2, [r7, #12]
 80049cc:	0013      	movs	r3, r2
 80049ce:	005b      	lsls	r3, r3, #1
 80049d0:	189b      	adds	r3, r3, r2
 80049d2:	009b      	lsls	r3, r3, #2
 80049d4:	18cb      	adds	r3, r1, r3
 80049d6:	330a      	adds	r3, #10
 80049d8:	881b      	ldrh	r3, [r3, #0]
 80049da:	3301      	adds	r3, #1
 80049dc:	b29a      	uxth	r2, r3
 80049de:	e001      	b.n	80049e4 <inc_lock+0x148>
 80049e0:	2380      	movs	r3, #128	; 0x80
 80049e2:	005a      	lsls	r2, r3, #1
 80049e4:	4807      	ldr	r0, [pc, #28]	; (8004a04 <inc_lock+0x168>)
 80049e6:	68f9      	ldr	r1, [r7, #12]
 80049e8:	000b      	movs	r3, r1
 80049ea:	005b      	lsls	r3, r3, #1
 80049ec:	185b      	adds	r3, r3, r1
 80049ee:	009b      	lsls	r3, r3, #2
 80049f0:	18c3      	adds	r3, r0, r3
 80049f2:	330a      	adds	r3, #10
 80049f4:	801a      	strh	r2, [r3, #0]

	return i + 1;
 80049f6:	68fb      	ldr	r3, [r7, #12]
 80049f8:	3301      	adds	r3, #1
}
 80049fa:	0018      	movs	r0, r3
 80049fc:	46bd      	mov	sp, r7
 80049fe:	b004      	add	sp, #16
 8004a00:	bd80      	pop	{r7, pc}
 8004a02:	46c0      	nop			; (mov r8, r8)
 8004a04:	200006e4 	.word	0x200006e4
 8004a08:	00000206 	.word	0x00000206

08004a0c <dec_lock>:

static
FRESULT dec_lock (	/* Decrement object open counter */
	UINT i			/* Semaphore index (1..) */
)
{
 8004a0c:	b590      	push	{r4, r7, lr}
 8004a0e:	b085      	sub	sp, #20
 8004a10:	af00      	add	r7, sp, #0
 8004a12:	6078      	str	r0, [r7, #4]
	WORD n;
	FRESULT res;


	if (--i < _FS_LOCK) {	/* Shift index number origin from 0 */
 8004a14:	687b      	ldr	r3, [r7, #4]
 8004a16:	3b01      	subs	r3, #1
 8004a18:	607b      	str	r3, [r7, #4]
 8004a1a:	687b      	ldr	r3, [r7, #4]
 8004a1c:	2b01      	cmp	r3, #1
 8004a1e:	d83b      	bhi.n	8004a98 <dec_lock+0x8c>
		n = Files[i].ctr;
 8004a20:	240e      	movs	r4, #14
 8004a22:	1939      	adds	r1, r7, r4
 8004a24:	4822      	ldr	r0, [pc, #136]	; (8004ab0 <dec_lock+0xa4>)
 8004a26:	687a      	ldr	r2, [r7, #4]
 8004a28:	0013      	movs	r3, r2
 8004a2a:	005b      	lsls	r3, r3, #1
 8004a2c:	189b      	adds	r3, r3, r2
 8004a2e:	009b      	lsls	r3, r3, #2
 8004a30:	18c3      	adds	r3, r0, r3
 8004a32:	330a      	adds	r3, #10
 8004a34:	881b      	ldrh	r3, [r3, #0]
 8004a36:	800b      	strh	r3, [r1, #0]
		if (n == 0x100) n = 0;		/* If write mode open, delete the entry */
 8004a38:	193b      	adds	r3, r7, r4
 8004a3a:	881a      	ldrh	r2, [r3, #0]
 8004a3c:	2380      	movs	r3, #128	; 0x80
 8004a3e:	005b      	lsls	r3, r3, #1
 8004a40:	429a      	cmp	r2, r3
 8004a42:	d102      	bne.n	8004a4a <dec_lock+0x3e>
 8004a44:	193b      	adds	r3, r7, r4
 8004a46:	2200      	movs	r2, #0
 8004a48:	801a      	strh	r2, [r3, #0]
		if (n) n--;					/* Decrement read mode open count */
 8004a4a:	210e      	movs	r1, #14
 8004a4c:	187b      	adds	r3, r7, r1
 8004a4e:	881b      	ldrh	r3, [r3, #0]
 8004a50:	2b00      	cmp	r3, #0
 8004a52:	d004      	beq.n	8004a5e <dec_lock+0x52>
 8004a54:	187b      	adds	r3, r7, r1
 8004a56:	881a      	ldrh	r2, [r3, #0]
 8004a58:	187b      	adds	r3, r7, r1
 8004a5a:	3a01      	subs	r2, #1
 8004a5c:	801a      	strh	r2, [r3, #0]
		Files[i].ctr = n;
 8004a5e:	4914      	ldr	r1, [pc, #80]	; (8004ab0 <dec_lock+0xa4>)
 8004a60:	687a      	ldr	r2, [r7, #4]
 8004a62:	0013      	movs	r3, r2
 8004a64:	005b      	lsls	r3, r3, #1
 8004a66:	189b      	adds	r3, r3, r2
 8004a68:	009b      	lsls	r3, r3, #2
 8004a6a:	18cb      	adds	r3, r1, r3
 8004a6c:	330a      	adds	r3, #10
 8004a6e:	210e      	movs	r1, #14
 8004a70:	187a      	adds	r2, r7, r1
 8004a72:	8812      	ldrh	r2, [r2, #0]
 8004a74:	801a      	strh	r2, [r3, #0]
		if (!n) Files[i].fs = 0;	/* Delete the entry if open count gets zero */
 8004a76:	187b      	adds	r3, r7, r1
 8004a78:	881b      	ldrh	r3, [r3, #0]
 8004a7a:	2b00      	cmp	r3, #0
 8004a7c:	d107      	bne.n	8004a8e <dec_lock+0x82>
 8004a7e:	490c      	ldr	r1, [pc, #48]	; (8004ab0 <dec_lock+0xa4>)
 8004a80:	687a      	ldr	r2, [r7, #4]
 8004a82:	0013      	movs	r3, r2
 8004a84:	005b      	lsls	r3, r3, #1
 8004a86:	189b      	adds	r3, r3, r2
 8004a88:	009b      	lsls	r3, r3, #2
 8004a8a:	2200      	movs	r2, #0
 8004a8c:	505a      	str	r2, [r3, r1]
		res = FR_OK;
 8004a8e:	230d      	movs	r3, #13
 8004a90:	18fb      	adds	r3, r7, r3
 8004a92:	2200      	movs	r2, #0
 8004a94:	701a      	strb	r2, [r3, #0]
 8004a96:	e003      	b.n	8004aa0 <dec_lock+0x94>
	} else {
		res = FR_INT_ERR;			/* Invalid index nunber */
 8004a98:	230d      	movs	r3, #13
 8004a9a:	18fb      	adds	r3, r7, r3
 8004a9c:	2202      	movs	r2, #2
 8004a9e:	701a      	strb	r2, [r3, #0]
	}
	return res;
 8004aa0:	230d      	movs	r3, #13
 8004aa2:	18fb      	adds	r3, r7, r3
 8004aa4:	781b      	ldrb	r3, [r3, #0]
}
 8004aa6:	0018      	movs	r0, r3
 8004aa8:	46bd      	mov	sp, r7
 8004aaa:	b005      	add	sp, #20
 8004aac:	bd90      	pop	{r4, r7, pc}
 8004aae:	46c0      	nop			; (mov r8, r8)
 8004ab0:	200006e4 	.word	0x200006e4

08004ab4 <clear_lock>:

static
void clear_lock (	/* Clear lock entries of the volume */
	FATFS *fs
)
{
 8004ab4:	b580      	push	{r7, lr}
 8004ab6:	b084      	sub	sp, #16
 8004ab8:	af00      	add	r7, sp, #0
 8004aba:	6078      	str	r0, [r7, #4]
	UINT i;

	for (i = 0; i < _FS_LOCK; i++) {
 8004abc:	2300      	movs	r3, #0
 8004abe:	60fb      	str	r3, [r7, #12]
 8004ac0:	e014      	b.n	8004aec <clear_lock+0x38>
		if (Files[i].fs == fs) Files[i].fs = 0;
 8004ac2:	490e      	ldr	r1, [pc, #56]	; (8004afc <clear_lock+0x48>)
 8004ac4:	68fa      	ldr	r2, [r7, #12]
 8004ac6:	0013      	movs	r3, r2
 8004ac8:	005b      	lsls	r3, r3, #1
 8004aca:	189b      	adds	r3, r3, r2
 8004acc:	009b      	lsls	r3, r3, #2
 8004ace:	585b      	ldr	r3, [r3, r1]
 8004ad0:	687a      	ldr	r2, [r7, #4]
 8004ad2:	429a      	cmp	r2, r3
 8004ad4:	d107      	bne.n	8004ae6 <clear_lock+0x32>
 8004ad6:	4909      	ldr	r1, [pc, #36]	; (8004afc <clear_lock+0x48>)
 8004ad8:	68fa      	ldr	r2, [r7, #12]
 8004ada:	0013      	movs	r3, r2
 8004adc:	005b      	lsls	r3, r3, #1
 8004ade:	189b      	adds	r3, r3, r2
 8004ae0:	009b      	lsls	r3, r3, #2
 8004ae2:	2200      	movs	r2, #0
 8004ae4:	505a      	str	r2, [r3, r1]
	for (i = 0; i < _FS_LOCK; i++) {
 8004ae6:	68fb      	ldr	r3, [r7, #12]
 8004ae8:	3301      	adds	r3, #1
 8004aea:	60fb      	str	r3, [r7, #12]
 8004aec:	68fb      	ldr	r3, [r7, #12]
 8004aee:	2b01      	cmp	r3, #1
 8004af0:	d9e7      	bls.n	8004ac2 <clear_lock+0xe>
	}
}
 8004af2:	46c0      	nop			; (mov r8, r8)
 8004af4:	46c0      	nop			; (mov r8, r8)
 8004af6:	46bd      	mov	sp, r7
 8004af8:	b004      	add	sp, #16
 8004afa:	bd80      	pop	{r7, pc}
 8004afc:	200006e4 	.word	0x200006e4

08004b00 <sync_window>:
#if !_FS_READONLY
static
FRESULT sync_window (
	FATFS* fs		/* File system object */
)
{
 8004b00:	b590      	push	{r4, r7, lr}
 8004b02:	b087      	sub	sp, #28
 8004b04:	af00      	add	r7, sp, #0
 8004b06:	6078      	str	r0, [r7, #4]
	DWORD wsect;
	UINT nf;
	FRESULT res = FR_OK;
 8004b08:	240f      	movs	r4, #15
 8004b0a:	193b      	adds	r3, r7, r4
 8004b0c:	2200      	movs	r2, #0
 8004b0e:	701a      	strb	r2, [r3, #0]


	if (fs->wflag) {	/* Write back the sector if it is dirty */
 8004b10:	687a      	ldr	r2, [r7, #4]
 8004b12:	2381      	movs	r3, #129	; 0x81
 8004b14:	009b      	lsls	r3, r3, #2
 8004b16:	5cd3      	ldrb	r3, [r2, r3]
 8004b18:	2b00      	cmp	r3, #0
 8004b1a:	d03d      	beq.n	8004b98 <sync_window+0x98>
		wsect = fs->winsect;	/* Current sector number */
 8004b1c:	687a      	ldr	r2, [r7, #4]
 8004b1e:	238b      	movs	r3, #139	; 0x8b
 8004b20:	009b      	lsls	r3, r3, #2
 8004b22:	58d3      	ldr	r3, [r2, r3]
 8004b24:	617b      	str	r3, [r7, #20]
		if (disk_write(fs->drv, fs->win.d8, wsect, 1) != RES_OK) {
 8004b26:	687b      	ldr	r3, [r7, #4]
 8004b28:	4a1f      	ldr	r2, [pc, #124]	; (8004ba8 <sync_window+0xa8>)
 8004b2a:	5c98      	ldrb	r0, [r3, r2]
 8004b2c:	6879      	ldr	r1, [r7, #4]
 8004b2e:	697a      	ldr	r2, [r7, #20]
 8004b30:	2301      	movs	r3, #1
 8004b32:	f7ff fd61 	bl	80045f8 <disk_write>
 8004b36:	1e03      	subs	r3, r0, #0
 8004b38:	d003      	beq.n	8004b42 <sync_window+0x42>
			res = FR_DISK_ERR;
 8004b3a:	193b      	adds	r3, r7, r4
 8004b3c:	2201      	movs	r2, #1
 8004b3e:	701a      	strb	r2, [r3, #0]
 8004b40:	e02a      	b.n	8004b98 <sync_window+0x98>
		} else {
			fs->wflag = 0;
 8004b42:	687a      	ldr	r2, [r7, #4]
 8004b44:	2381      	movs	r3, #129	; 0x81
 8004b46:	009b      	lsls	r3, r3, #2
 8004b48:	2100      	movs	r1, #0
 8004b4a:	54d1      	strb	r1, [r2, r3]
			if (wsect - fs->fatbase < fs->fsize) {		/* Is it in the FAT area? */
 8004b4c:	687a      	ldr	r2, [r7, #4]
 8004b4e:	2388      	movs	r3, #136	; 0x88
 8004b50:	009b      	lsls	r3, r3, #2
 8004b52:	58d3      	ldr	r3, [r2, r3]
 8004b54:	697a      	ldr	r2, [r7, #20]
 8004b56:	1ad2      	subs	r2, r2, r3
 8004b58:	6879      	ldr	r1, [r7, #4]
 8004b5a:	2386      	movs	r3, #134	; 0x86
 8004b5c:	009b      	lsls	r3, r3, #2
 8004b5e:	58cb      	ldr	r3, [r1, r3]
 8004b60:	429a      	cmp	r2, r3
 8004b62:	d219      	bcs.n	8004b98 <sync_window+0x98>
				for (nf = fs->n_fats; nf >= 2; nf--) {	/* Reflect the change to all FAT copies */
 8004b64:	687b      	ldr	r3, [r7, #4]
 8004b66:	4a11      	ldr	r2, [pc, #68]	; (8004bac <sync_window+0xac>)
 8004b68:	5c9b      	ldrb	r3, [r3, r2]
 8004b6a:	613b      	str	r3, [r7, #16]
 8004b6c:	e011      	b.n	8004b92 <sync_window+0x92>
					wsect += fs->fsize;
 8004b6e:	687a      	ldr	r2, [r7, #4]
 8004b70:	2386      	movs	r3, #134	; 0x86
 8004b72:	009b      	lsls	r3, r3, #2
 8004b74:	58d3      	ldr	r3, [r2, r3]
 8004b76:	697a      	ldr	r2, [r7, #20]
 8004b78:	18d3      	adds	r3, r2, r3
 8004b7a:	617b      	str	r3, [r7, #20]
					disk_write(fs->drv, fs->win.d8, wsect, 1);
 8004b7c:	687b      	ldr	r3, [r7, #4]
 8004b7e:	4a0a      	ldr	r2, [pc, #40]	; (8004ba8 <sync_window+0xa8>)
 8004b80:	5c98      	ldrb	r0, [r3, r2]
 8004b82:	6879      	ldr	r1, [r7, #4]
 8004b84:	697a      	ldr	r2, [r7, #20]
 8004b86:	2301      	movs	r3, #1
 8004b88:	f7ff fd36 	bl	80045f8 <disk_write>
				for (nf = fs->n_fats; nf >= 2; nf--) {	/* Reflect the change to all FAT copies */
 8004b8c:	693b      	ldr	r3, [r7, #16]
 8004b8e:	3b01      	subs	r3, #1
 8004b90:	613b      	str	r3, [r7, #16]
 8004b92:	693b      	ldr	r3, [r7, #16]
 8004b94:	2b01      	cmp	r3, #1
 8004b96:	d8ea      	bhi.n	8004b6e <sync_window+0x6e>
				}
			}
		}
	}
	return res;
 8004b98:	230f      	movs	r3, #15
 8004b9a:	18fb      	adds	r3, r7, r3
 8004b9c:	781b      	ldrb	r3, [r3, #0]
}
 8004b9e:	0018      	movs	r0, r3
 8004ba0:	46bd      	mov	sp, r7
 8004ba2:	b007      	add	sp, #28
 8004ba4:	bd90      	pop	{r4, r7, pc}
 8004ba6:	46c0      	nop			; (mov r8, r8)
 8004ba8:	00000201 	.word	0x00000201
 8004bac:	00000203 	.word	0x00000203

08004bb0 <move_window>:
static
FRESULT move_window (
	FATFS* fs,		/* File system object */
	DWORD sector	/* Sector number to make appearance in the fs->win[].d8 */
)
{
 8004bb0:	b5b0      	push	{r4, r5, r7, lr}
 8004bb2:	b084      	sub	sp, #16
 8004bb4:	af00      	add	r7, sp, #0
 8004bb6:	6078      	str	r0, [r7, #4]
 8004bb8:	6039      	str	r1, [r7, #0]
	FRESULT res = FR_OK;
 8004bba:	240f      	movs	r4, #15
 8004bbc:	193b      	adds	r3, r7, r4
 8004bbe:	2200      	movs	r2, #0
 8004bc0:	701a      	strb	r2, [r3, #0]


	if (sector != fs->winsect) {	/* Window offset changed? */
 8004bc2:	687a      	ldr	r2, [r7, #4]
 8004bc4:	238b      	movs	r3, #139	; 0x8b
 8004bc6:	009b      	lsls	r3, r3, #2
 8004bc8:	58d3      	ldr	r3, [r2, r3]
 8004bca:	683a      	ldr	r2, [r7, #0]
 8004bcc:	429a      	cmp	r2, r3
 8004bce:	d021      	beq.n	8004c14 <move_window+0x64>
#if !_FS_READONLY
		res = sync_window(fs);		/* Write-back changes */
 8004bd0:	0025      	movs	r5, r4
 8004bd2:	193c      	adds	r4, r7, r4
 8004bd4:	687b      	ldr	r3, [r7, #4]
 8004bd6:	0018      	movs	r0, r3
 8004bd8:	f7ff ff92 	bl	8004b00 <sync_window>
 8004bdc:	0003      	movs	r3, r0
 8004bde:	7023      	strb	r3, [r4, #0]
#endif
		if (res == FR_OK) {			/* Fill sector window with new data */
 8004be0:	002c      	movs	r4, r5
 8004be2:	193b      	adds	r3, r7, r4
 8004be4:	781b      	ldrb	r3, [r3, #0]
 8004be6:	2b00      	cmp	r3, #0
 8004be8:	d114      	bne.n	8004c14 <move_window+0x64>
			if (disk_read(fs->drv, fs->win.d8, sector, 1) != RES_OK) {
 8004bea:	687b      	ldr	r3, [r7, #4]
 8004bec:	4a0d      	ldr	r2, [pc, #52]	; (8004c24 <move_window+0x74>)
 8004bee:	5c98      	ldrb	r0, [r3, r2]
 8004bf0:	6879      	ldr	r1, [r7, #4]
 8004bf2:	683a      	ldr	r2, [r7, #0]
 8004bf4:	2301      	movs	r3, #1
 8004bf6:	f7ff fcd7 	bl	80045a8 <disk_read>
 8004bfa:	1e03      	subs	r3, r0, #0
 8004bfc:	d005      	beq.n	8004c0a <move_window+0x5a>
				sector = 0xFFFFFFFF;	/* Invalidate window if data is not reliable */
 8004bfe:	2301      	movs	r3, #1
 8004c00:	425b      	negs	r3, r3
 8004c02:	603b      	str	r3, [r7, #0]
				res = FR_DISK_ERR;
 8004c04:	193b      	adds	r3, r7, r4
 8004c06:	2201      	movs	r2, #1
 8004c08:	701a      	strb	r2, [r3, #0]
			}
			fs->winsect = sector;
 8004c0a:	687a      	ldr	r2, [r7, #4]
 8004c0c:	238b      	movs	r3, #139	; 0x8b
 8004c0e:	009b      	lsls	r3, r3, #2
 8004c10:	6839      	ldr	r1, [r7, #0]
 8004c12:	50d1      	str	r1, [r2, r3]
		}
	}
	return res;
 8004c14:	230f      	movs	r3, #15
 8004c16:	18fb      	adds	r3, r7, r3
 8004c18:	781b      	ldrb	r3, [r3, #0]
}
 8004c1a:	0018      	movs	r0, r3
 8004c1c:	46bd      	mov	sp, r7
 8004c1e:	b004      	add	sp, #16
 8004c20:	bdb0      	pop	{r4, r5, r7, pc}
 8004c22:	46c0      	nop			; (mov r8, r8)
 8004c24:	00000201 	.word	0x00000201

08004c28 <sync_fs>:
#if !_FS_READONLY
static
FRESULT sync_fs (	/* FR_OK: successful, FR_DISK_ERR: failed */
	FATFS* fs		/* File system object */
)
{
 8004c28:	b5b0      	push	{r4, r5, r7, lr}
 8004c2a:	b084      	sub	sp, #16
 8004c2c:	af00      	add	r7, sp, #0
 8004c2e:	6078      	str	r0, [r7, #4]
	FRESULT res;


	res = sync_window(fs);
 8004c30:	250f      	movs	r5, #15
 8004c32:	197c      	adds	r4, r7, r5
 8004c34:	687b      	ldr	r3, [r7, #4]
 8004c36:	0018      	movs	r0, r3
 8004c38:	f7ff ff62 	bl	8004b00 <sync_window>
 8004c3c:	0003      	movs	r3, r0
 8004c3e:	7023      	strb	r3, [r4, #0]
	if (res == FR_OK) {
 8004c40:	197b      	adds	r3, r7, r5
 8004c42:	781b      	ldrb	r3, [r3, #0]
 8004c44:	2b00      	cmp	r3, #0
 8004c46:	d000      	beq.n	8004c4a <sync_fs+0x22>
 8004c48:	e0b4      	b.n	8004db4 <sync_fs+0x18c>
		/* Update FSINFO sector if needed */
		if (fs->fs_type == FS_FAT32 && fs->fsi_flag == 1) {
 8004c4a:	687a      	ldr	r2, [r7, #4]
 8004c4c:	2380      	movs	r3, #128	; 0x80
 8004c4e:	009b      	lsls	r3, r3, #2
 8004c50:	5cd3      	ldrb	r3, [r2, r3]
 8004c52:	2b03      	cmp	r3, #3
 8004c54:	d000      	beq.n	8004c58 <sync_fs+0x30>
 8004c56:	e09f      	b.n	8004d98 <sync_fs+0x170>
 8004c58:	687b      	ldr	r3, [r7, #4]
 8004c5a:	4a5a      	ldr	r2, [pc, #360]	; (8004dc4 <sync_fs+0x19c>)
 8004c5c:	5c9b      	ldrb	r3, [r3, r2]
 8004c5e:	2b01      	cmp	r3, #1
 8004c60:	d000      	beq.n	8004c64 <sync_fs+0x3c>
 8004c62:	e099      	b.n	8004d98 <sync_fs+0x170>
			/* Create FSINFO structure */
			mem_set(fs->win.d8, 0, SS(fs));
 8004c64:	687b      	ldr	r3, [r7, #4]
 8004c66:	2280      	movs	r2, #128	; 0x80
 8004c68:	0092      	lsls	r2, r2, #2
 8004c6a:	2100      	movs	r1, #0
 8004c6c:	0018      	movs	r0, r3
 8004c6e:	f7ff fd30 	bl	80046d2 <mem_set>
			ST_WORD(fs->win.d8 + BS_55AA, 0xAA55);
 8004c72:	687a      	ldr	r2, [r7, #4]
 8004c74:	23ff      	movs	r3, #255	; 0xff
 8004c76:	005b      	lsls	r3, r3, #1
 8004c78:	2155      	movs	r1, #85	; 0x55
 8004c7a:	54d1      	strb	r1, [r2, r3]
 8004c7c:	687b      	ldr	r3, [r7, #4]
 8004c7e:	4a52      	ldr	r2, [pc, #328]	; (8004dc8 <sync_fs+0x1a0>)
 8004c80:	21aa      	movs	r1, #170	; 0xaa
 8004c82:	5499      	strb	r1, [r3, r2]
			ST_DWORD(fs->win.d8 + FSI_LeadSig, 0x41615252);
 8004c84:	687b      	ldr	r3, [r7, #4]
 8004c86:	2252      	movs	r2, #82	; 0x52
 8004c88:	701a      	strb	r2, [r3, #0]
 8004c8a:	687b      	ldr	r3, [r7, #4]
 8004c8c:	2252      	movs	r2, #82	; 0x52
 8004c8e:	705a      	strb	r2, [r3, #1]
 8004c90:	687b      	ldr	r3, [r7, #4]
 8004c92:	2261      	movs	r2, #97	; 0x61
 8004c94:	709a      	strb	r2, [r3, #2]
 8004c96:	687b      	ldr	r3, [r7, #4]
 8004c98:	2241      	movs	r2, #65	; 0x41
 8004c9a:	70da      	strb	r2, [r3, #3]
			ST_DWORD(fs->win.d8 + FSI_StrucSig, 0x61417272);
 8004c9c:	687a      	ldr	r2, [r7, #4]
 8004c9e:	23f2      	movs	r3, #242	; 0xf2
 8004ca0:	005b      	lsls	r3, r3, #1
 8004ca2:	2172      	movs	r1, #114	; 0x72
 8004ca4:	54d1      	strb	r1, [r2, r3]
 8004ca6:	687a      	ldr	r2, [r7, #4]
 8004ca8:	23e6      	movs	r3, #230	; 0xe6
 8004caa:	33ff      	adds	r3, #255	; 0xff
 8004cac:	2172      	movs	r1, #114	; 0x72
 8004cae:	54d1      	strb	r1, [r2, r3]
 8004cb0:	687a      	ldr	r2, [r7, #4]
 8004cb2:	23f3      	movs	r3, #243	; 0xf3
 8004cb4:	005b      	lsls	r3, r3, #1
 8004cb6:	2141      	movs	r1, #65	; 0x41
 8004cb8:	54d1      	strb	r1, [r2, r3]
 8004cba:	687a      	ldr	r2, [r7, #4]
 8004cbc:	23e8      	movs	r3, #232	; 0xe8
 8004cbe:	33ff      	adds	r3, #255	; 0xff
 8004cc0:	2161      	movs	r1, #97	; 0x61
 8004cc2:	54d1      	strb	r1, [r2, r3]
			ST_DWORD(fs->win.d8 + FSI_Free_Count, fs->free_clust);
 8004cc4:	687a      	ldr	r2, [r7, #4]
 8004cc6:	2384      	movs	r3, #132	; 0x84
 8004cc8:	009b      	lsls	r3, r3, #2
 8004cca:	58d3      	ldr	r3, [r2, r3]
 8004ccc:	b2d9      	uxtb	r1, r3
 8004cce:	687a      	ldr	r2, [r7, #4]
 8004cd0:	23f4      	movs	r3, #244	; 0xf4
 8004cd2:	005b      	lsls	r3, r3, #1
 8004cd4:	54d1      	strb	r1, [r2, r3]
 8004cd6:	687a      	ldr	r2, [r7, #4]
 8004cd8:	2384      	movs	r3, #132	; 0x84
 8004cda:	009b      	lsls	r3, r3, #2
 8004cdc:	58d3      	ldr	r3, [r2, r3]
 8004cde:	b29b      	uxth	r3, r3
 8004ce0:	0a1b      	lsrs	r3, r3, #8
 8004ce2:	b29b      	uxth	r3, r3
 8004ce4:	b2d9      	uxtb	r1, r3
 8004ce6:	687a      	ldr	r2, [r7, #4]
 8004ce8:	23ea      	movs	r3, #234	; 0xea
 8004cea:	33ff      	adds	r3, #255	; 0xff
 8004cec:	54d1      	strb	r1, [r2, r3]
 8004cee:	687a      	ldr	r2, [r7, #4]
 8004cf0:	2384      	movs	r3, #132	; 0x84
 8004cf2:	009b      	lsls	r3, r3, #2
 8004cf4:	58d3      	ldr	r3, [r2, r3]
 8004cf6:	0c1b      	lsrs	r3, r3, #16
 8004cf8:	b2d9      	uxtb	r1, r3
 8004cfa:	687a      	ldr	r2, [r7, #4]
 8004cfc:	23f5      	movs	r3, #245	; 0xf5
 8004cfe:	005b      	lsls	r3, r3, #1
 8004d00:	54d1      	strb	r1, [r2, r3]
 8004d02:	687a      	ldr	r2, [r7, #4]
 8004d04:	2384      	movs	r3, #132	; 0x84
 8004d06:	009b      	lsls	r3, r3, #2
 8004d08:	58d3      	ldr	r3, [r2, r3]
 8004d0a:	0e1b      	lsrs	r3, r3, #24
 8004d0c:	b2d9      	uxtb	r1, r3
 8004d0e:	687a      	ldr	r2, [r7, #4]
 8004d10:	23ec      	movs	r3, #236	; 0xec
 8004d12:	33ff      	adds	r3, #255	; 0xff
 8004d14:	54d1      	strb	r1, [r2, r3]
			ST_DWORD(fs->win.d8 + FSI_Nxt_Free, fs->last_clust);
 8004d16:	687a      	ldr	r2, [r7, #4]
 8004d18:	2383      	movs	r3, #131	; 0x83
 8004d1a:	009b      	lsls	r3, r3, #2
 8004d1c:	58d3      	ldr	r3, [r2, r3]
 8004d1e:	b2d9      	uxtb	r1, r3
 8004d20:	687a      	ldr	r2, [r7, #4]
 8004d22:	23f6      	movs	r3, #246	; 0xf6
 8004d24:	005b      	lsls	r3, r3, #1
 8004d26:	54d1      	strb	r1, [r2, r3]
 8004d28:	687a      	ldr	r2, [r7, #4]
 8004d2a:	2383      	movs	r3, #131	; 0x83
 8004d2c:	009b      	lsls	r3, r3, #2
 8004d2e:	58d3      	ldr	r3, [r2, r3]
 8004d30:	b29b      	uxth	r3, r3
 8004d32:	0a1b      	lsrs	r3, r3, #8
 8004d34:	b29b      	uxth	r3, r3
 8004d36:	b2d9      	uxtb	r1, r3
 8004d38:	687a      	ldr	r2, [r7, #4]
 8004d3a:	23ee      	movs	r3, #238	; 0xee
 8004d3c:	33ff      	adds	r3, #255	; 0xff
 8004d3e:	54d1      	strb	r1, [r2, r3]
 8004d40:	687a      	ldr	r2, [r7, #4]
 8004d42:	2383      	movs	r3, #131	; 0x83
 8004d44:	009b      	lsls	r3, r3, #2
 8004d46:	58d3      	ldr	r3, [r2, r3]
 8004d48:	0c1b      	lsrs	r3, r3, #16
 8004d4a:	b2d9      	uxtb	r1, r3
 8004d4c:	687a      	ldr	r2, [r7, #4]
 8004d4e:	23f7      	movs	r3, #247	; 0xf7
 8004d50:	005b      	lsls	r3, r3, #1
 8004d52:	54d1      	strb	r1, [r2, r3]
 8004d54:	687a      	ldr	r2, [r7, #4]
 8004d56:	2383      	movs	r3, #131	; 0x83
 8004d58:	009b      	lsls	r3, r3, #2
 8004d5a:	58d3      	ldr	r3, [r2, r3]
 8004d5c:	0e1b      	lsrs	r3, r3, #24
 8004d5e:	b2d9      	uxtb	r1, r3
 8004d60:	687a      	ldr	r2, [r7, #4]
 8004d62:	23f0      	movs	r3, #240	; 0xf0
 8004d64:	33ff      	adds	r3, #255	; 0xff
 8004d66:	54d1      	strb	r1, [r2, r3]
			/* Write it into the FSINFO sector */
			fs->winsect = fs->volbase + 1;
 8004d68:	687a      	ldr	r2, [r7, #4]
 8004d6a:	2387      	movs	r3, #135	; 0x87
 8004d6c:	009b      	lsls	r3, r3, #2
 8004d6e:	58d3      	ldr	r3, [r2, r3]
 8004d70:	1c59      	adds	r1, r3, #1
 8004d72:	687a      	ldr	r2, [r7, #4]
 8004d74:	238b      	movs	r3, #139	; 0x8b
 8004d76:	009b      	lsls	r3, r3, #2
 8004d78:	50d1      	str	r1, [r2, r3]
			disk_write(fs->drv, fs->win.d8, fs->winsect, 1);
 8004d7a:	687b      	ldr	r3, [r7, #4]
 8004d7c:	4a13      	ldr	r2, [pc, #76]	; (8004dcc <sync_fs+0x1a4>)
 8004d7e:	5c98      	ldrb	r0, [r3, r2]
 8004d80:	6879      	ldr	r1, [r7, #4]
 8004d82:	687a      	ldr	r2, [r7, #4]
 8004d84:	238b      	movs	r3, #139	; 0x8b
 8004d86:	009b      	lsls	r3, r3, #2
 8004d88:	58d2      	ldr	r2, [r2, r3]
 8004d8a:	2301      	movs	r3, #1
 8004d8c:	f7ff fc34 	bl	80045f8 <disk_write>
			fs->fsi_flag = 0;
 8004d90:	687b      	ldr	r3, [r7, #4]
 8004d92:	4a0c      	ldr	r2, [pc, #48]	; (8004dc4 <sync_fs+0x19c>)
 8004d94:	2100      	movs	r1, #0
 8004d96:	5499      	strb	r1, [r3, r2]
		}
		/* Make sure that no pending write process in the physical drive */
		if (disk_ioctl(fs->drv, CTRL_SYNC, 0) != RES_OK)
 8004d98:	687b      	ldr	r3, [r7, #4]
 8004d9a:	4a0c      	ldr	r2, [pc, #48]	; (8004dcc <sync_fs+0x1a4>)
 8004d9c:	5c9b      	ldrb	r3, [r3, r2]
 8004d9e:	2200      	movs	r2, #0
 8004da0:	2100      	movs	r1, #0
 8004da2:	0018      	movs	r0, r3
 8004da4:	f7ff fc50 	bl	8004648 <disk_ioctl>
 8004da8:	1e03      	subs	r3, r0, #0
 8004daa:	d003      	beq.n	8004db4 <sync_fs+0x18c>
			res = FR_DISK_ERR;
 8004dac:	230f      	movs	r3, #15
 8004dae:	18fb      	adds	r3, r7, r3
 8004db0:	2201      	movs	r2, #1
 8004db2:	701a      	strb	r2, [r3, #0]
	}

	return res;
 8004db4:	230f      	movs	r3, #15
 8004db6:	18fb      	adds	r3, r7, r3
 8004db8:	781b      	ldrb	r3, [r3, #0]
}
 8004dba:	0018      	movs	r0, r3
 8004dbc:	46bd      	mov	sp, r7
 8004dbe:	b004      	add	sp, #16
 8004dc0:	bdb0      	pop	{r4, r5, r7, pc}
 8004dc2:	46c0      	nop			; (mov r8, r8)
 8004dc4:	00000205 	.word	0x00000205
 8004dc8:	000001ff 	.word	0x000001ff
 8004dcc:	00000201 	.word	0x00000201

08004dd0 <clust2sect>:

DWORD clust2sect (	/* !=0: Sector number, 0: Failed - invalid cluster# */
	FATFS* fs,		/* File system object */
	DWORD clst		/* Cluster# to be converted */
)
{
 8004dd0:	b580      	push	{r7, lr}
 8004dd2:	b082      	sub	sp, #8
 8004dd4:	af00      	add	r7, sp, #0
 8004dd6:	6078      	str	r0, [r7, #4]
 8004dd8:	6039      	str	r1, [r7, #0]
	clst -= 2;
 8004dda:	683b      	ldr	r3, [r7, #0]
 8004ddc:	3b02      	subs	r3, #2
 8004dde:	603b      	str	r3, [r7, #0]
	if (clst >= fs->n_fatent - 2) return 0;		/* Invalid cluster# */
 8004de0:	687a      	ldr	r2, [r7, #4]
 8004de2:	2385      	movs	r3, #133	; 0x85
 8004de4:	009b      	lsls	r3, r3, #2
 8004de6:	58d3      	ldr	r3, [r2, r3]
 8004de8:	3b02      	subs	r3, #2
 8004dea:	683a      	ldr	r2, [r7, #0]
 8004dec:	429a      	cmp	r2, r3
 8004dee:	d301      	bcc.n	8004df4 <clust2sect+0x24>
 8004df0:	2300      	movs	r3, #0
 8004df2:	e00a      	b.n	8004e0a <clust2sect+0x3a>
	return clst * fs->csize + fs->database;
 8004df4:	687b      	ldr	r3, [r7, #4]
 8004df6:	4a07      	ldr	r2, [pc, #28]	; (8004e14 <clust2sect+0x44>)
 8004df8:	5c9b      	ldrb	r3, [r3, r2]
 8004dfa:	001a      	movs	r2, r3
 8004dfc:	683b      	ldr	r3, [r7, #0]
 8004dfe:	435a      	muls	r2, r3
 8004e00:	6879      	ldr	r1, [r7, #4]
 8004e02:	238a      	movs	r3, #138	; 0x8a
 8004e04:	009b      	lsls	r3, r3, #2
 8004e06:	58cb      	ldr	r3, [r1, r3]
 8004e08:	18d3      	adds	r3, r2, r3
}
 8004e0a:	0018      	movs	r0, r3
 8004e0c:	46bd      	mov	sp, r7
 8004e0e:	b002      	add	sp, #8
 8004e10:	bd80      	pop	{r7, pc}
 8004e12:	46c0      	nop			; (mov r8, r8)
 8004e14:	00000202 	.word	0x00000202

08004e18 <get_fat>:

DWORD get_fat (	/* 0xFFFFFFFF:Disk error, 1:Internal error, 2..0x0FFFFFFF:Cluster status */
	FATFS* fs,	/* File system object */
	DWORD clst	/* FAT index number (cluster number) to get the value */
)
{
 8004e18:	b580      	push	{r7, lr}
 8004e1a:	b086      	sub	sp, #24
 8004e1c:	af00      	add	r7, sp, #0
 8004e1e:	6078      	str	r0, [r7, #4]
 8004e20:	6039      	str	r1, [r7, #0]
	UINT wc, bc;
	BYTE *p;
	DWORD val;


	if (clst < 2 || clst >= fs->n_fatent) {	/* Check range */
 8004e22:	683b      	ldr	r3, [r7, #0]
 8004e24:	2b01      	cmp	r3, #1
 8004e26:	d906      	bls.n	8004e36 <get_fat+0x1e>
 8004e28:	687a      	ldr	r2, [r7, #4]
 8004e2a:	2385      	movs	r3, #133	; 0x85
 8004e2c:	009b      	lsls	r3, r3, #2
 8004e2e:	58d3      	ldr	r3, [r2, r3]
 8004e30:	683a      	ldr	r2, [r7, #0]
 8004e32:	429a      	cmp	r2, r3
 8004e34:	d302      	bcc.n	8004e3c <get_fat+0x24>
		val = 1;	/* Internal error */
 8004e36:	2301      	movs	r3, #1
 8004e38:	617b      	str	r3, [r7, #20]
 8004e3a:	e0aa      	b.n	8004f92 <get_fat+0x17a>

	} else {
		val = 0xFFFFFFFF;	/* Default value falls on disk error */
 8004e3c:	2301      	movs	r3, #1
 8004e3e:	425b      	negs	r3, r3
 8004e40:	617b      	str	r3, [r7, #20]

		switch (fs->fs_type) {
 8004e42:	687a      	ldr	r2, [r7, #4]
 8004e44:	2380      	movs	r3, #128	; 0x80
 8004e46:	009b      	lsls	r3, r3, #2
 8004e48:	5cd3      	ldrb	r3, [r2, r3]
 8004e4a:	2b03      	cmp	r3, #3
 8004e4c:	d100      	bne.n	8004e50 <get_fat+0x38>
 8004e4e:	e06b      	b.n	8004f28 <get_fat+0x110>
 8004e50:	dd00      	ble.n	8004e54 <get_fat+0x3c>
 8004e52:	e094      	b.n	8004f7e <get_fat+0x166>
 8004e54:	2b01      	cmp	r3, #1
 8004e56:	d002      	beq.n	8004e5e <get_fat+0x46>
 8004e58:	2b02      	cmp	r3, #2
 8004e5a:	d042      	beq.n	8004ee2 <get_fat+0xca>
 8004e5c:	e08f      	b.n	8004f7e <get_fat+0x166>
		case FS_FAT12 :
			bc = (UINT)clst; bc += bc / 2;
 8004e5e:	683b      	ldr	r3, [r7, #0]
 8004e60:	60fb      	str	r3, [r7, #12]
 8004e62:	68fb      	ldr	r3, [r7, #12]
 8004e64:	085b      	lsrs	r3, r3, #1
 8004e66:	68fa      	ldr	r2, [r7, #12]
 8004e68:	18d3      	adds	r3, r2, r3
 8004e6a:	60fb      	str	r3, [r7, #12]
			if (move_window(fs, fs->fatbase + (bc / SS(fs))) != FR_OK) break;
 8004e6c:	687a      	ldr	r2, [r7, #4]
 8004e6e:	2388      	movs	r3, #136	; 0x88
 8004e70:	009b      	lsls	r3, r3, #2
 8004e72:	58d2      	ldr	r2, [r2, r3]
 8004e74:	68fb      	ldr	r3, [r7, #12]
 8004e76:	0a5b      	lsrs	r3, r3, #9
 8004e78:	18d2      	adds	r2, r2, r3
 8004e7a:	687b      	ldr	r3, [r7, #4]
 8004e7c:	0011      	movs	r1, r2
 8004e7e:	0018      	movs	r0, r3
 8004e80:	f7ff fe96 	bl	8004bb0 <move_window>
 8004e84:	1e03      	subs	r3, r0, #0
 8004e86:	d000      	beq.n	8004e8a <get_fat+0x72>
 8004e88:	e07c      	b.n	8004f84 <get_fat+0x16c>
			wc = fs->win.d8[bc++ % SS(fs)];
 8004e8a:	68fb      	ldr	r3, [r7, #12]
 8004e8c:	1c5a      	adds	r2, r3, #1
 8004e8e:	60fa      	str	r2, [r7, #12]
 8004e90:	05db      	lsls	r3, r3, #23
 8004e92:	0ddb      	lsrs	r3, r3, #23
 8004e94:	687a      	ldr	r2, [r7, #4]
 8004e96:	5cd3      	ldrb	r3, [r2, r3]
 8004e98:	60bb      	str	r3, [r7, #8]
			if (move_window(fs, fs->fatbase + (bc / SS(fs))) != FR_OK) break;
 8004e9a:	687a      	ldr	r2, [r7, #4]
 8004e9c:	2388      	movs	r3, #136	; 0x88
 8004e9e:	009b      	lsls	r3, r3, #2
 8004ea0:	58d2      	ldr	r2, [r2, r3]
 8004ea2:	68fb      	ldr	r3, [r7, #12]
 8004ea4:	0a5b      	lsrs	r3, r3, #9
 8004ea6:	18d2      	adds	r2, r2, r3
 8004ea8:	687b      	ldr	r3, [r7, #4]
 8004eaa:	0011      	movs	r1, r2
 8004eac:	0018      	movs	r0, r3
 8004eae:	f7ff fe7f 	bl	8004bb0 <move_window>
 8004eb2:	1e03      	subs	r3, r0, #0
 8004eb4:	d168      	bne.n	8004f88 <get_fat+0x170>
			wc |= fs->win.d8[bc % SS(fs)] << 8;
 8004eb6:	68fb      	ldr	r3, [r7, #12]
 8004eb8:	05db      	lsls	r3, r3, #23
 8004eba:	0ddb      	lsrs	r3, r3, #23
 8004ebc:	687a      	ldr	r2, [r7, #4]
 8004ebe:	5cd3      	ldrb	r3, [r2, r3]
 8004ec0:	021b      	lsls	r3, r3, #8
 8004ec2:	001a      	movs	r2, r3
 8004ec4:	68bb      	ldr	r3, [r7, #8]
 8004ec6:	4313      	orrs	r3, r2
 8004ec8:	60bb      	str	r3, [r7, #8]
			val = clst & 1 ? wc >> 4 : (wc & 0xFFF);
 8004eca:	683b      	ldr	r3, [r7, #0]
 8004ecc:	2201      	movs	r2, #1
 8004ece:	4013      	ands	r3, r2
 8004ed0:	d002      	beq.n	8004ed8 <get_fat+0xc0>
 8004ed2:	68bb      	ldr	r3, [r7, #8]
 8004ed4:	091b      	lsrs	r3, r3, #4
 8004ed6:	e002      	b.n	8004ede <get_fat+0xc6>
 8004ed8:	68bb      	ldr	r3, [r7, #8]
 8004eda:	051b      	lsls	r3, r3, #20
 8004edc:	0d1b      	lsrs	r3, r3, #20
 8004ede:	617b      	str	r3, [r7, #20]
			break;
 8004ee0:	e057      	b.n	8004f92 <get_fat+0x17a>

		case FS_FAT16 :
			if (move_window(fs, fs->fatbase + (clst / (SS(fs) / 2))) != FR_OK) break;
 8004ee2:	687a      	ldr	r2, [r7, #4]
 8004ee4:	2388      	movs	r3, #136	; 0x88
 8004ee6:	009b      	lsls	r3, r3, #2
 8004ee8:	58d2      	ldr	r2, [r2, r3]
 8004eea:	683b      	ldr	r3, [r7, #0]
 8004eec:	0a1b      	lsrs	r3, r3, #8
 8004eee:	18d2      	adds	r2, r2, r3
 8004ef0:	687b      	ldr	r3, [r7, #4]
 8004ef2:	0011      	movs	r1, r2
 8004ef4:	0018      	movs	r0, r3
 8004ef6:	f7ff fe5b 	bl	8004bb0 <move_window>
 8004efa:	1e03      	subs	r3, r0, #0
 8004efc:	d146      	bne.n	8004f8c <get_fat+0x174>
			p = &fs->win.d8[clst * 2 % SS(fs)];
 8004efe:	683b      	ldr	r3, [r7, #0]
 8004f00:	005a      	lsls	r2, r3, #1
 8004f02:	23ff      	movs	r3, #255	; 0xff
 8004f04:	005b      	lsls	r3, r3, #1
 8004f06:	4013      	ands	r3, r2
 8004f08:	687a      	ldr	r2, [r7, #4]
 8004f0a:	18d3      	adds	r3, r2, r3
 8004f0c:	613b      	str	r3, [r7, #16]
			val = LD_WORD(p);
 8004f0e:	693b      	ldr	r3, [r7, #16]
 8004f10:	3301      	adds	r3, #1
 8004f12:	781b      	ldrb	r3, [r3, #0]
 8004f14:	021b      	lsls	r3, r3, #8
 8004f16:	b21a      	sxth	r2, r3
 8004f18:	693b      	ldr	r3, [r7, #16]
 8004f1a:	781b      	ldrb	r3, [r3, #0]
 8004f1c:	b21b      	sxth	r3, r3
 8004f1e:	4313      	orrs	r3, r2
 8004f20:	b21b      	sxth	r3, r3
 8004f22:	b29b      	uxth	r3, r3
 8004f24:	617b      	str	r3, [r7, #20]
			break;
 8004f26:	e034      	b.n	8004f92 <get_fat+0x17a>

		case FS_FAT32 :
			if (move_window(fs, fs->fatbase + (clst / (SS(fs) / 4))) != FR_OK) break;
 8004f28:	687a      	ldr	r2, [r7, #4]
 8004f2a:	2388      	movs	r3, #136	; 0x88
 8004f2c:	009b      	lsls	r3, r3, #2
 8004f2e:	58d2      	ldr	r2, [r2, r3]
 8004f30:	683b      	ldr	r3, [r7, #0]
 8004f32:	09db      	lsrs	r3, r3, #7
 8004f34:	18d2      	adds	r2, r2, r3
 8004f36:	687b      	ldr	r3, [r7, #4]
 8004f38:	0011      	movs	r1, r2
 8004f3a:	0018      	movs	r0, r3
 8004f3c:	f7ff fe38 	bl	8004bb0 <move_window>
 8004f40:	1e03      	subs	r3, r0, #0
 8004f42:	d125      	bne.n	8004f90 <get_fat+0x178>
			p = &fs->win.d8[clst * 4 % SS(fs)];
 8004f44:	683b      	ldr	r3, [r7, #0]
 8004f46:	009a      	lsls	r2, r3, #2
 8004f48:	23fe      	movs	r3, #254	; 0xfe
 8004f4a:	005b      	lsls	r3, r3, #1
 8004f4c:	4013      	ands	r3, r2
 8004f4e:	687a      	ldr	r2, [r7, #4]
 8004f50:	18d3      	adds	r3, r2, r3
 8004f52:	613b      	str	r3, [r7, #16]
			val = LD_DWORD(p) & 0x0FFFFFFF;
 8004f54:	693b      	ldr	r3, [r7, #16]
 8004f56:	3303      	adds	r3, #3
 8004f58:	781b      	ldrb	r3, [r3, #0]
 8004f5a:	061a      	lsls	r2, r3, #24
 8004f5c:	693b      	ldr	r3, [r7, #16]
 8004f5e:	3302      	adds	r3, #2
 8004f60:	781b      	ldrb	r3, [r3, #0]
 8004f62:	041b      	lsls	r3, r3, #16
 8004f64:	4313      	orrs	r3, r2
 8004f66:	693a      	ldr	r2, [r7, #16]
 8004f68:	3201      	adds	r2, #1
 8004f6a:	7812      	ldrb	r2, [r2, #0]
 8004f6c:	0212      	lsls	r2, r2, #8
 8004f6e:	4313      	orrs	r3, r2
 8004f70:	693a      	ldr	r2, [r7, #16]
 8004f72:	7812      	ldrb	r2, [r2, #0]
 8004f74:	4313      	orrs	r3, r2
 8004f76:	011b      	lsls	r3, r3, #4
 8004f78:	091b      	lsrs	r3, r3, #4
 8004f7a:	617b      	str	r3, [r7, #20]
			break;
 8004f7c:	e009      	b.n	8004f92 <get_fat+0x17a>

		default:
			val = 1;	/* Internal error */
 8004f7e:	2301      	movs	r3, #1
 8004f80:	617b      	str	r3, [r7, #20]
 8004f82:	e006      	b.n	8004f92 <get_fat+0x17a>
			if (move_window(fs, fs->fatbase + (bc / SS(fs))) != FR_OK) break;
 8004f84:	46c0      	nop			; (mov r8, r8)
 8004f86:	e004      	b.n	8004f92 <get_fat+0x17a>
			if (move_window(fs, fs->fatbase + (bc / SS(fs))) != FR_OK) break;
 8004f88:	46c0      	nop			; (mov r8, r8)
 8004f8a:	e002      	b.n	8004f92 <get_fat+0x17a>
			if (move_window(fs, fs->fatbase + (clst / (SS(fs) / 2))) != FR_OK) break;
 8004f8c:	46c0      	nop			; (mov r8, r8)
 8004f8e:	e000      	b.n	8004f92 <get_fat+0x17a>
			if (move_window(fs, fs->fatbase + (clst / (SS(fs) / 4))) != FR_OK) break;
 8004f90:	46c0      	nop			; (mov r8, r8)
		}
	}

	return val;
 8004f92:	697b      	ldr	r3, [r7, #20]
}
 8004f94:	0018      	movs	r0, r3
 8004f96:	46bd      	mov	sp, r7
 8004f98:	b006      	add	sp, #24
 8004f9a:	bd80      	pop	{r7, pc}

08004f9c <put_fat>:
FRESULT put_fat (
	FATFS* fs,	/* File system object */
	DWORD clst,	/* FAT index number (cluster number) to be changed */
	DWORD val	/* New value to be set to the entry */
)
{
 8004f9c:	b5b0      	push	{r4, r5, r7, lr}
 8004f9e:	b088      	sub	sp, #32
 8004fa0:	af00      	add	r7, sp, #0
 8004fa2:	60f8      	str	r0, [r7, #12]
 8004fa4:	60b9      	str	r1, [r7, #8]
 8004fa6:	607a      	str	r2, [r7, #4]
	UINT bc;
	BYTE *p;
	FRESULT res;


	if (clst < 2 || clst >= fs->n_fatent) {	/* Check range */
 8004fa8:	68bb      	ldr	r3, [r7, #8]
 8004faa:	2b01      	cmp	r3, #1
 8004fac:	d906      	bls.n	8004fbc <put_fat+0x20>
 8004fae:	68fa      	ldr	r2, [r7, #12]
 8004fb0:	2385      	movs	r3, #133	; 0x85
 8004fb2:	009b      	lsls	r3, r3, #2
 8004fb4:	58d3      	ldr	r3, [r2, r3]
 8004fb6:	68ba      	ldr	r2, [r7, #8]
 8004fb8:	429a      	cmp	r2, r3
 8004fba:	d304      	bcc.n	8004fc6 <put_fat+0x2a>
		res = FR_INT_ERR;
 8004fbc:	231f      	movs	r3, #31
 8004fbe:	18fb      	adds	r3, r7, r3
 8004fc0:	2202      	movs	r2, #2
 8004fc2:	701a      	strb	r2, [r3, #0]
 8004fc4:	e111      	b.n	80051ea <put_fat+0x24e>

	} else {
		switch (fs->fs_type) {
 8004fc6:	68fa      	ldr	r2, [r7, #12]
 8004fc8:	2380      	movs	r3, #128	; 0x80
 8004fca:	009b      	lsls	r3, r3, #2
 8004fcc:	5cd3      	ldrb	r3, [r2, r3]
 8004fce:	2b03      	cmp	r3, #3
 8004fd0:	d100      	bne.n	8004fd4 <put_fat+0x38>
 8004fd2:	e0ae      	b.n	8005132 <put_fat+0x196>
 8004fd4:	dd00      	ble.n	8004fd8 <put_fat+0x3c>
 8004fd6:	e0fc      	b.n	80051d2 <put_fat+0x236>
 8004fd8:	2b01      	cmp	r3, #1
 8004fda:	d003      	beq.n	8004fe4 <put_fat+0x48>
 8004fdc:	2b02      	cmp	r3, #2
 8004fde:	d100      	bne.n	8004fe2 <put_fat+0x46>
 8004fe0:	e079      	b.n	80050d6 <put_fat+0x13a>
 8004fe2:	e0f6      	b.n	80051d2 <put_fat+0x236>
		case FS_FAT12 :
			bc = (UINT)clst; bc += bc / 2;
 8004fe4:	68bb      	ldr	r3, [r7, #8]
 8004fe6:	617b      	str	r3, [r7, #20]
 8004fe8:	697b      	ldr	r3, [r7, #20]
 8004fea:	085b      	lsrs	r3, r3, #1
 8004fec:	697a      	ldr	r2, [r7, #20]
 8004fee:	18d3      	adds	r3, r2, r3
 8004ff0:	617b      	str	r3, [r7, #20]
			res = move_window(fs, fs->fatbase + (bc / SS(fs)));
 8004ff2:	68fa      	ldr	r2, [r7, #12]
 8004ff4:	2388      	movs	r3, #136	; 0x88
 8004ff6:	009b      	lsls	r3, r3, #2
 8004ff8:	58d2      	ldr	r2, [r2, r3]
 8004ffa:	697b      	ldr	r3, [r7, #20]
 8004ffc:	0a5b      	lsrs	r3, r3, #9
 8004ffe:	18d2      	adds	r2, r2, r3
 8005000:	251f      	movs	r5, #31
 8005002:	197c      	adds	r4, r7, r5
 8005004:	68fb      	ldr	r3, [r7, #12]
 8005006:	0011      	movs	r1, r2
 8005008:	0018      	movs	r0, r3
 800500a:	f7ff fdd1 	bl	8004bb0 <move_window>
 800500e:	0003      	movs	r3, r0
 8005010:	7023      	strb	r3, [r4, #0]
			if (res != FR_OK) break;
 8005012:	197b      	adds	r3, r7, r5
 8005014:	781b      	ldrb	r3, [r3, #0]
 8005016:	2b00      	cmp	r3, #0
 8005018:	d000      	beq.n	800501c <put_fat+0x80>
 800501a:	e0df      	b.n	80051dc <put_fat+0x240>
			p = &fs->win.d8[bc++ % SS(fs)];
 800501c:	697b      	ldr	r3, [r7, #20]
 800501e:	1c5a      	adds	r2, r3, #1
 8005020:	617a      	str	r2, [r7, #20]
 8005022:	05db      	lsls	r3, r3, #23
 8005024:	0ddb      	lsrs	r3, r3, #23
 8005026:	68fa      	ldr	r2, [r7, #12]
 8005028:	18d3      	adds	r3, r2, r3
 800502a:	61bb      	str	r3, [r7, #24]
			*p = (clst & 1) ? ((*p & 0x0F) | ((BYTE)val << 4)) : (BYTE)val;
 800502c:	68bb      	ldr	r3, [r7, #8]
 800502e:	2201      	movs	r2, #1
 8005030:	4013      	ands	r3, r2
 8005032:	d00d      	beq.n	8005050 <put_fat+0xb4>
 8005034:	69bb      	ldr	r3, [r7, #24]
 8005036:	781b      	ldrb	r3, [r3, #0]
 8005038:	b25b      	sxtb	r3, r3
 800503a:	220f      	movs	r2, #15
 800503c:	4013      	ands	r3, r2
 800503e:	b25a      	sxtb	r2, r3
 8005040:	687b      	ldr	r3, [r7, #4]
 8005042:	b2db      	uxtb	r3, r3
 8005044:	011b      	lsls	r3, r3, #4
 8005046:	b25b      	sxtb	r3, r3
 8005048:	4313      	orrs	r3, r2
 800504a:	b25b      	sxtb	r3, r3
 800504c:	b2db      	uxtb	r3, r3
 800504e:	e001      	b.n	8005054 <put_fat+0xb8>
 8005050:	687b      	ldr	r3, [r7, #4]
 8005052:	b2db      	uxtb	r3, r3
 8005054:	69ba      	ldr	r2, [r7, #24]
 8005056:	7013      	strb	r3, [r2, #0]
			fs->wflag = 1;
 8005058:	68fa      	ldr	r2, [r7, #12]
 800505a:	2381      	movs	r3, #129	; 0x81
 800505c:	009b      	lsls	r3, r3, #2
 800505e:	2101      	movs	r1, #1
 8005060:	54d1      	strb	r1, [r2, r3]
			res = move_window(fs, fs->fatbase + (bc / SS(fs)));
 8005062:	68fa      	ldr	r2, [r7, #12]
 8005064:	2388      	movs	r3, #136	; 0x88
 8005066:	009b      	lsls	r3, r3, #2
 8005068:	58d2      	ldr	r2, [r2, r3]
 800506a:	697b      	ldr	r3, [r7, #20]
 800506c:	0a5b      	lsrs	r3, r3, #9
 800506e:	18d2      	adds	r2, r2, r3
 8005070:	251f      	movs	r5, #31
 8005072:	197c      	adds	r4, r7, r5
 8005074:	68fb      	ldr	r3, [r7, #12]
 8005076:	0011      	movs	r1, r2
 8005078:	0018      	movs	r0, r3
 800507a:	f7ff fd99 	bl	8004bb0 <move_window>
 800507e:	0003      	movs	r3, r0
 8005080:	7023      	strb	r3, [r4, #0]
			if (res != FR_OK) break;
 8005082:	197b      	adds	r3, r7, r5
 8005084:	781b      	ldrb	r3, [r3, #0]
 8005086:	2b00      	cmp	r3, #0
 8005088:	d000      	beq.n	800508c <put_fat+0xf0>
 800508a:	e0a9      	b.n	80051e0 <put_fat+0x244>
			p = &fs->win.d8[bc % SS(fs)];
 800508c:	697b      	ldr	r3, [r7, #20]
 800508e:	05db      	lsls	r3, r3, #23
 8005090:	0ddb      	lsrs	r3, r3, #23
 8005092:	68fa      	ldr	r2, [r7, #12]
 8005094:	18d3      	adds	r3, r2, r3
 8005096:	61bb      	str	r3, [r7, #24]
			*p = (clst & 1) ? (BYTE)(val >> 4) : ((*p & 0xF0) | ((BYTE)(val >> 8) & 0x0F));
 8005098:	68bb      	ldr	r3, [r7, #8]
 800509a:	2201      	movs	r2, #1
 800509c:	4013      	ands	r3, r2
 800509e:	d003      	beq.n	80050a8 <put_fat+0x10c>
 80050a0:	687b      	ldr	r3, [r7, #4]
 80050a2:	091b      	lsrs	r3, r3, #4
 80050a4:	b2db      	uxtb	r3, r3
 80050a6:	e00e      	b.n	80050c6 <put_fat+0x12a>
 80050a8:	69bb      	ldr	r3, [r7, #24]
 80050aa:	781b      	ldrb	r3, [r3, #0]
 80050ac:	b25b      	sxtb	r3, r3
 80050ae:	220f      	movs	r2, #15
 80050b0:	4393      	bics	r3, r2
 80050b2:	b25a      	sxtb	r2, r3
 80050b4:	687b      	ldr	r3, [r7, #4]
 80050b6:	0a1b      	lsrs	r3, r3, #8
 80050b8:	b25b      	sxtb	r3, r3
 80050ba:	210f      	movs	r1, #15
 80050bc:	400b      	ands	r3, r1
 80050be:	b25b      	sxtb	r3, r3
 80050c0:	4313      	orrs	r3, r2
 80050c2:	b25b      	sxtb	r3, r3
 80050c4:	b2db      	uxtb	r3, r3
 80050c6:	69ba      	ldr	r2, [r7, #24]
 80050c8:	7013      	strb	r3, [r2, #0]
			fs->wflag = 1;
 80050ca:	68fa      	ldr	r2, [r7, #12]
 80050cc:	2381      	movs	r3, #129	; 0x81
 80050ce:	009b      	lsls	r3, r3, #2
 80050d0:	2101      	movs	r1, #1
 80050d2:	54d1      	strb	r1, [r2, r3]
			break;
 80050d4:	e089      	b.n	80051ea <put_fat+0x24e>

		case FS_FAT16 :
			res = move_window(fs, fs->fatbase + (clst / (SS(fs) / 2)));
 80050d6:	68fa      	ldr	r2, [r7, #12]
 80050d8:	2388      	movs	r3, #136	; 0x88
 80050da:	009b      	lsls	r3, r3, #2
 80050dc:	58d2      	ldr	r2, [r2, r3]
 80050de:	68bb      	ldr	r3, [r7, #8]
 80050e0:	0a1b      	lsrs	r3, r3, #8
 80050e2:	18d2      	adds	r2, r2, r3
 80050e4:	251f      	movs	r5, #31
 80050e6:	197c      	adds	r4, r7, r5
 80050e8:	68fb      	ldr	r3, [r7, #12]
 80050ea:	0011      	movs	r1, r2
 80050ec:	0018      	movs	r0, r3
 80050ee:	f7ff fd5f 	bl	8004bb0 <move_window>
 80050f2:	0003      	movs	r3, r0
 80050f4:	7023      	strb	r3, [r4, #0]
			if (res != FR_OK) break;
 80050f6:	197b      	adds	r3, r7, r5
 80050f8:	781b      	ldrb	r3, [r3, #0]
 80050fa:	2b00      	cmp	r3, #0
 80050fc:	d172      	bne.n	80051e4 <put_fat+0x248>
			p = &fs->win.d8[clst * 2 % SS(fs)];
 80050fe:	68bb      	ldr	r3, [r7, #8]
 8005100:	005a      	lsls	r2, r3, #1
 8005102:	23ff      	movs	r3, #255	; 0xff
 8005104:	005b      	lsls	r3, r3, #1
 8005106:	4013      	ands	r3, r2
 8005108:	68fa      	ldr	r2, [r7, #12]
 800510a:	18d3      	adds	r3, r2, r3
 800510c:	61bb      	str	r3, [r7, #24]
			ST_WORD(p, (WORD)val);
 800510e:	687b      	ldr	r3, [r7, #4]
 8005110:	b2da      	uxtb	r2, r3
 8005112:	69bb      	ldr	r3, [r7, #24]
 8005114:	701a      	strb	r2, [r3, #0]
 8005116:	687b      	ldr	r3, [r7, #4]
 8005118:	b29b      	uxth	r3, r3
 800511a:	0a1b      	lsrs	r3, r3, #8
 800511c:	b29a      	uxth	r2, r3
 800511e:	69bb      	ldr	r3, [r7, #24]
 8005120:	3301      	adds	r3, #1
 8005122:	b2d2      	uxtb	r2, r2
 8005124:	701a      	strb	r2, [r3, #0]
			fs->wflag = 1;
 8005126:	68fa      	ldr	r2, [r7, #12]
 8005128:	2381      	movs	r3, #129	; 0x81
 800512a:	009b      	lsls	r3, r3, #2
 800512c:	2101      	movs	r1, #1
 800512e:	54d1      	strb	r1, [r2, r3]
			break;
 8005130:	e05b      	b.n	80051ea <put_fat+0x24e>

		case FS_FAT32 :
			res = move_window(fs, fs->fatbase + (clst / (SS(fs) / 4)));
 8005132:	68fa      	ldr	r2, [r7, #12]
 8005134:	2388      	movs	r3, #136	; 0x88
 8005136:	009b      	lsls	r3, r3, #2
 8005138:	58d2      	ldr	r2, [r2, r3]
 800513a:	68bb      	ldr	r3, [r7, #8]
 800513c:	09db      	lsrs	r3, r3, #7
 800513e:	18d2      	adds	r2, r2, r3
 8005140:	251f      	movs	r5, #31
 8005142:	197c      	adds	r4, r7, r5
 8005144:	68fb      	ldr	r3, [r7, #12]
 8005146:	0011      	movs	r1, r2
 8005148:	0018      	movs	r0, r3
 800514a:	f7ff fd31 	bl	8004bb0 <move_window>
 800514e:	0003      	movs	r3, r0
 8005150:	7023      	strb	r3, [r4, #0]
			if (res != FR_OK) break;
 8005152:	197b      	adds	r3, r7, r5
 8005154:	781b      	ldrb	r3, [r3, #0]
 8005156:	2b00      	cmp	r3, #0
 8005158:	d146      	bne.n	80051e8 <put_fat+0x24c>
			p = &fs->win.d8[clst * 4 % SS(fs)];
 800515a:	68bb      	ldr	r3, [r7, #8]
 800515c:	009a      	lsls	r2, r3, #2
 800515e:	23fe      	movs	r3, #254	; 0xfe
 8005160:	005b      	lsls	r3, r3, #1
 8005162:	4013      	ands	r3, r2
 8005164:	68fa      	ldr	r2, [r7, #12]
 8005166:	18d3      	adds	r3, r2, r3
 8005168:	61bb      	str	r3, [r7, #24]
			val |= LD_DWORD(p) & 0xF0000000;
 800516a:	69bb      	ldr	r3, [r7, #24]
 800516c:	3303      	adds	r3, #3
 800516e:	781b      	ldrb	r3, [r3, #0]
 8005170:	061a      	lsls	r2, r3, #24
 8005172:	69bb      	ldr	r3, [r7, #24]
 8005174:	3302      	adds	r3, #2
 8005176:	781b      	ldrb	r3, [r3, #0]
 8005178:	041b      	lsls	r3, r3, #16
 800517a:	4313      	orrs	r3, r2
 800517c:	69ba      	ldr	r2, [r7, #24]
 800517e:	3201      	adds	r2, #1
 8005180:	7812      	ldrb	r2, [r2, #0]
 8005182:	0212      	lsls	r2, r2, #8
 8005184:	4313      	orrs	r3, r2
 8005186:	69ba      	ldr	r2, [r7, #24]
 8005188:	7812      	ldrb	r2, [r2, #0]
 800518a:	4313      	orrs	r3, r2
 800518c:	0f1b      	lsrs	r3, r3, #28
 800518e:	071b      	lsls	r3, r3, #28
 8005190:	687a      	ldr	r2, [r7, #4]
 8005192:	4313      	orrs	r3, r2
 8005194:	607b      	str	r3, [r7, #4]
			ST_DWORD(p, val);
 8005196:	687b      	ldr	r3, [r7, #4]
 8005198:	b2da      	uxtb	r2, r3
 800519a:	69bb      	ldr	r3, [r7, #24]
 800519c:	701a      	strb	r2, [r3, #0]
 800519e:	687b      	ldr	r3, [r7, #4]
 80051a0:	b29b      	uxth	r3, r3
 80051a2:	0a1b      	lsrs	r3, r3, #8
 80051a4:	b29a      	uxth	r2, r3
 80051a6:	69bb      	ldr	r3, [r7, #24]
 80051a8:	3301      	adds	r3, #1
 80051aa:	b2d2      	uxtb	r2, r2
 80051ac:	701a      	strb	r2, [r3, #0]
 80051ae:	687b      	ldr	r3, [r7, #4]
 80051b0:	0c1a      	lsrs	r2, r3, #16
 80051b2:	69bb      	ldr	r3, [r7, #24]
 80051b4:	3302      	adds	r3, #2
 80051b6:	b2d2      	uxtb	r2, r2
 80051b8:	701a      	strb	r2, [r3, #0]
 80051ba:	687b      	ldr	r3, [r7, #4]
 80051bc:	0e1a      	lsrs	r2, r3, #24
 80051be:	69bb      	ldr	r3, [r7, #24]
 80051c0:	3303      	adds	r3, #3
 80051c2:	b2d2      	uxtb	r2, r2
 80051c4:	701a      	strb	r2, [r3, #0]
			fs->wflag = 1;
 80051c6:	68fa      	ldr	r2, [r7, #12]
 80051c8:	2381      	movs	r3, #129	; 0x81
 80051ca:	009b      	lsls	r3, r3, #2
 80051cc:	2101      	movs	r1, #1
 80051ce:	54d1      	strb	r1, [r2, r3]
			break;
 80051d0:	e00b      	b.n	80051ea <put_fat+0x24e>

		default :
			res = FR_INT_ERR;
 80051d2:	231f      	movs	r3, #31
 80051d4:	18fb      	adds	r3, r7, r3
 80051d6:	2202      	movs	r2, #2
 80051d8:	701a      	strb	r2, [r3, #0]
 80051da:	e006      	b.n	80051ea <put_fat+0x24e>
			if (res != FR_OK) break;
 80051dc:	46c0      	nop			; (mov r8, r8)
 80051de:	e004      	b.n	80051ea <put_fat+0x24e>
			if (res != FR_OK) break;
 80051e0:	46c0      	nop			; (mov r8, r8)
 80051e2:	e002      	b.n	80051ea <put_fat+0x24e>
			if (res != FR_OK) break;
 80051e4:	46c0      	nop			; (mov r8, r8)
 80051e6:	e000      	b.n	80051ea <put_fat+0x24e>
			if (res != FR_OK) break;
 80051e8:	46c0      	nop			; (mov r8, r8)
		}
	}

	return res;
 80051ea:	231f      	movs	r3, #31
 80051ec:	18fb      	adds	r3, r7, r3
 80051ee:	781b      	ldrb	r3, [r3, #0]
}
 80051f0:	0018      	movs	r0, r3
 80051f2:	46bd      	mov	sp, r7
 80051f4:	b008      	add	sp, #32
 80051f6:	bdb0      	pop	{r4, r5, r7, pc}

080051f8 <remove_chain>:
static
FRESULT remove_chain (
	FATFS* fs,			/* File system object */
	DWORD clst			/* Cluster# to remove a chain from */
)
{
 80051f8:	b5b0      	push	{r4, r5, r7, lr}
 80051fa:	b084      	sub	sp, #16
 80051fc:	af00      	add	r7, sp, #0
 80051fe:	6078      	str	r0, [r7, #4]
 8005200:	6039      	str	r1, [r7, #0]
	DWORD nxt;
#if _USE_TRIM
	DWORD scl = clst, ecl = clst, rt[2];
#endif

	if (clst < 2 || clst >= fs->n_fatent) {	/* Check range */
 8005202:	683b      	ldr	r3, [r7, #0]
 8005204:	2b01      	cmp	r3, #1
 8005206:	d906      	bls.n	8005216 <remove_chain+0x1e>
 8005208:	687a      	ldr	r2, [r7, #4]
 800520a:	2385      	movs	r3, #133	; 0x85
 800520c:	009b      	lsls	r3, r3, #2
 800520e:	58d3      	ldr	r3, [r2, r3]
 8005210:	683a      	ldr	r2, [r7, #0]
 8005212:	429a      	cmp	r2, r3
 8005214:	d304      	bcc.n	8005220 <remove_chain+0x28>
		res = FR_INT_ERR;
 8005216:	230f      	movs	r3, #15
 8005218:	18fb      	adds	r3, r7, r3
 800521a:	2202      	movs	r2, #2
 800521c:	701a      	strb	r2, [r3, #0]
 800521e:	e052      	b.n	80052c6 <remove_chain+0xce>

	} else {
		res = FR_OK;
 8005220:	230f      	movs	r3, #15
 8005222:	18fb      	adds	r3, r7, r3
 8005224:	2200      	movs	r2, #0
 8005226:	701a      	strb	r2, [r3, #0]
		while (clst < fs->n_fatent) {			/* Not a last link? */
 8005228:	e042      	b.n	80052b0 <remove_chain+0xb8>
			nxt = get_fat(fs, clst);			/* Get cluster status */
 800522a:	683a      	ldr	r2, [r7, #0]
 800522c:	687b      	ldr	r3, [r7, #4]
 800522e:	0011      	movs	r1, r2
 8005230:	0018      	movs	r0, r3
 8005232:	f7ff fdf1 	bl	8004e18 <get_fat>
 8005236:	0003      	movs	r3, r0
 8005238:	60bb      	str	r3, [r7, #8]
			if (nxt == 0) break;				/* Empty cluster? */
 800523a:	68bb      	ldr	r3, [r7, #8]
 800523c:	2b00      	cmp	r3, #0
 800523e:	d03f      	beq.n	80052c0 <remove_chain+0xc8>
			if (nxt == 1) { res = FR_INT_ERR; break; }	/* Internal error? */
 8005240:	68bb      	ldr	r3, [r7, #8]
 8005242:	2b01      	cmp	r3, #1
 8005244:	d104      	bne.n	8005250 <remove_chain+0x58>
 8005246:	230f      	movs	r3, #15
 8005248:	18fb      	adds	r3, r7, r3
 800524a:	2202      	movs	r2, #2
 800524c:	701a      	strb	r2, [r3, #0]
 800524e:	e03a      	b.n	80052c6 <remove_chain+0xce>
			if (nxt == 0xFFFFFFFF) { res = FR_DISK_ERR; break; }	/* Disk error? */
 8005250:	68bb      	ldr	r3, [r7, #8]
 8005252:	3301      	adds	r3, #1
 8005254:	d104      	bne.n	8005260 <remove_chain+0x68>
 8005256:	230f      	movs	r3, #15
 8005258:	18fb      	adds	r3, r7, r3
 800525a:	2201      	movs	r2, #1
 800525c:	701a      	strb	r2, [r3, #0]
 800525e:	e032      	b.n	80052c6 <remove_chain+0xce>
			res = put_fat(fs, clst, 0);			/* Mark the cluster "empty" */
 8005260:	250f      	movs	r5, #15
 8005262:	197c      	adds	r4, r7, r5
 8005264:	6839      	ldr	r1, [r7, #0]
 8005266:	687b      	ldr	r3, [r7, #4]
 8005268:	2200      	movs	r2, #0
 800526a:	0018      	movs	r0, r3
 800526c:	f7ff fe96 	bl	8004f9c <put_fat>
 8005270:	0003      	movs	r3, r0
 8005272:	7023      	strb	r3, [r4, #0]
			if (res != FR_OK) break;
 8005274:	197b      	adds	r3, r7, r5
 8005276:	781b      	ldrb	r3, [r3, #0]
 8005278:	2b00      	cmp	r3, #0
 800527a:	d123      	bne.n	80052c4 <remove_chain+0xcc>
			if (fs->free_clust != 0xFFFFFFFF) {	/* Update FSINFO */
 800527c:	687a      	ldr	r2, [r7, #4]
 800527e:	2384      	movs	r3, #132	; 0x84
 8005280:	009b      	lsls	r3, r3, #2
 8005282:	58d3      	ldr	r3, [r2, r3]
 8005284:	3301      	adds	r3, #1
 8005286:	d011      	beq.n	80052ac <remove_chain+0xb4>
				fs->free_clust++;
 8005288:	687a      	ldr	r2, [r7, #4]
 800528a:	2384      	movs	r3, #132	; 0x84
 800528c:	009b      	lsls	r3, r3, #2
 800528e:	58d3      	ldr	r3, [r2, r3]
 8005290:	1c59      	adds	r1, r3, #1
 8005292:	687a      	ldr	r2, [r7, #4]
 8005294:	2384      	movs	r3, #132	; 0x84
 8005296:	009b      	lsls	r3, r3, #2
 8005298:	50d1      	str	r1, [r2, r3]
				fs->fsi_flag |= 1;
 800529a:	687b      	ldr	r3, [r7, #4]
 800529c:	4a0d      	ldr	r2, [pc, #52]	; (80052d4 <remove_chain+0xdc>)
 800529e:	5c9b      	ldrb	r3, [r3, r2]
 80052a0:	2201      	movs	r2, #1
 80052a2:	4313      	orrs	r3, r2
 80052a4:	b2d9      	uxtb	r1, r3
 80052a6:	687b      	ldr	r3, [r7, #4]
 80052a8:	4a0a      	ldr	r2, [pc, #40]	; (80052d4 <remove_chain+0xdc>)
 80052aa:	5499      	strb	r1, [r3, r2]
				rt[1] = clust2sect(fs, ecl) + fs->csize - 1;	/* End sector */
				disk_ioctl(fs->drv, CTRL_TRIM, rt);				/* Erase the block */
				scl = ecl = nxt;
			}
#endif
			clst = nxt;	/* Next cluster */
 80052ac:	68bb      	ldr	r3, [r7, #8]
 80052ae:	603b      	str	r3, [r7, #0]
		while (clst < fs->n_fatent) {			/* Not a last link? */
 80052b0:	687a      	ldr	r2, [r7, #4]
 80052b2:	2385      	movs	r3, #133	; 0x85
 80052b4:	009b      	lsls	r3, r3, #2
 80052b6:	58d3      	ldr	r3, [r2, r3]
 80052b8:	683a      	ldr	r2, [r7, #0]
 80052ba:	429a      	cmp	r2, r3
 80052bc:	d3b5      	bcc.n	800522a <remove_chain+0x32>
 80052be:	e002      	b.n	80052c6 <remove_chain+0xce>
			if (nxt == 0) break;				/* Empty cluster? */
 80052c0:	46c0      	nop			; (mov r8, r8)
 80052c2:	e000      	b.n	80052c6 <remove_chain+0xce>
			if (res != FR_OK) break;
 80052c4:	46c0      	nop			; (mov r8, r8)
		}
	}

	return res;
 80052c6:	230f      	movs	r3, #15
 80052c8:	18fb      	adds	r3, r7, r3
 80052ca:	781b      	ldrb	r3, [r3, #0]
}
 80052cc:	0018      	movs	r0, r3
 80052ce:	46bd      	mov	sp, r7
 80052d0:	b004      	add	sp, #16
 80052d2:	bdb0      	pop	{r4, r5, r7, pc}
 80052d4:	00000205 	.word	0x00000205

080052d8 <create_chain>:
static
DWORD create_chain (	/* 0:No free cluster, 1:Internal error, 0xFFFFFFFF:Disk error, >=2:New cluster# */
	FATFS* fs,			/* File system object */
	DWORD clst			/* Cluster# to stretch. 0 means create a new chain. */
)
{
 80052d8:	b5b0      	push	{r4, r5, r7, lr}
 80052da:	b086      	sub	sp, #24
 80052dc:	af00      	add	r7, sp, #0
 80052de:	6078      	str	r0, [r7, #4]
 80052e0:	6039      	str	r1, [r7, #0]
	DWORD cs, ncl, scl;
	FRESULT res;


	if (clst == 0) {		/* Create a new chain */
 80052e2:	683b      	ldr	r3, [r7, #0]
 80052e4:	2b00      	cmp	r3, #0
 80052e6:	d111      	bne.n	800530c <create_chain+0x34>
		scl = fs->last_clust;			/* Get suggested start point */
 80052e8:	687a      	ldr	r2, [r7, #4]
 80052ea:	2383      	movs	r3, #131	; 0x83
 80052ec:	009b      	lsls	r3, r3, #2
 80052ee:	58d3      	ldr	r3, [r2, r3]
 80052f0:	613b      	str	r3, [r7, #16]
		if (!scl || scl >= fs->n_fatent) scl = 1;
 80052f2:	693b      	ldr	r3, [r7, #16]
 80052f4:	2b00      	cmp	r3, #0
 80052f6:	d006      	beq.n	8005306 <create_chain+0x2e>
 80052f8:	687a      	ldr	r2, [r7, #4]
 80052fa:	2385      	movs	r3, #133	; 0x85
 80052fc:	009b      	lsls	r3, r3, #2
 80052fe:	58d3      	ldr	r3, [r2, r3]
 8005300:	693a      	ldr	r2, [r7, #16]
 8005302:	429a      	cmp	r2, r3
 8005304:	d31f      	bcc.n	8005346 <create_chain+0x6e>
 8005306:	2301      	movs	r3, #1
 8005308:	613b      	str	r3, [r7, #16]
 800530a:	e01c      	b.n	8005346 <create_chain+0x6e>
	}
	else {					/* Stretch the current chain */
		cs = get_fat(fs, clst);			/* Check the cluster status */
 800530c:	683a      	ldr	r2, [r7, #0]
 800530e:	687b      	ldr	r3, [r7, #4]
 8005310:	0011      	movs	r1, r2
 8005312:	0018      	movs	r0, r3
 8005314:	f7ff fd80 	bl	8004e18 <get_fat>
 8005318:	0003      	movs	r3, r0
 800531a:	60bb      	str	r3, [r7, #8]
		if (cs < 2) return 1;			/* Invalid value */
 800531c:	68bb      	ldr	r3, [r7, #8]
 800531e:	2b01      	cmp	r3, #1
 8005320:	d801      	bhi.n	8005326 <create_chain+0x4e>
 8005322:	2301      	movs	r3, #1
 8005324:	e085      	b.n	8005432 <create_chain+0x15a>
		if (cs == 0xFFFFFFFF) return cs;	/* A disk error occurred */
 8005326:	68bb      	ldr	r3, [r7, #8]
 8005328:	3301      	adds	r3, #1
 800532a:	d101      	bne.n	8005330 <create_chain+0x58>
 800532c:	68bb      	ldr	r3, [r7, #8]
 800532e:	e080      	b.n	8005432 <create_chain+0x15a>
		if (cs < fs->n_fatent) return cs;	/* It is already followed by next cluster */
 8005330:	687a      	ldr	r2, [r7, #4]
 8005332:	2385      	movs	r3, #133	; 0x85
 8005334:	009b      	lsls	r3, r3, #2
 8005336:	58d3      	ldr	r3, [r2, r3]
 8005338:	68ba      	ldr	r2, [r7, #8]
 800533a:	429a      	cmp	r2, r3
 800533c:	d201      	bcs.n	8005342 <create_chain+0x6a>
 800533e:	68bb      	ldr	r3, [r7, #8]
 8005340:	e077      	b.n	8005432 <create_chain+0x15a>
		scl = clst;
 8005342:	683b      	ldr	r3, [r7, #0]
 8005344:	613b      	str	r3, [r7, #16]
	}

	ncl = scl;				/* Start cluster */
 8005346:	693b      	ldr	r3, [r7, #16]
 8005348:	617b      	str	r3, [r7, #20]
	for (;;) {
		ncl++;							/* Next cluster */
 800534a:	697b      	ldr	r3, [r7, #20]
 800534c:	3301      	adds	r3, #1
 800534e:	617b      	str	r3, [r7, #20]
		if (ncl >= fs->n_fatent) {		/* Check wrap around */
 8005350:	687a      	ldr	r2, [r7, #4]
 8005352:	2385      	movs	r3, #133	; 0x85
 8005354:	009b      	lsls	r3, r3, #2
 8005356:	58d3      	ldr	r3, [r2, r3]
 8005358:	697a      	ldr	r2, [r7, #20]
 800535a:	429a      	cmp	r2, r3
 800535c:	d307      	bcc.n	800536e <create_chain+0x96>
			ncl = 2;
 800535e:	2302      	movs	r3, #2
 8005360:	617b      	str	r3, [r7, #20]
			if (ncl > scl) return 0;	/* No free cluster */
 8005362:	697a      	ldr	r2, [r7, #20]
 8005364:	693b      	ldr	r3, [r7, #16]
 8005366:	429a      	cmp	r2, r3
 8005368:	d901      	bls.n	800536e <create_chain+0x96>
 800536a:	2300      	movs	r3, #0
 800536c:	e061      	b.n	8005432 <create_chain+0x15a>
		}
		cs = get_fat(fs, ncl);			/* Get the cluster status */
 800536e:	697a      	ldr	r2, [r7, #20]
 8005370:	687b      	ldr	r3, [r7, #4]
 8005372:	0011      	movs	r1, r2
 8005374:	0018      	movs	r0, r3
 8005376:	f7ff fd4f 	bl	8004e18 <get_fat>
 800537a:	0003      	movs	r3, r0
 800537c:	60bb      	str	r3, [r7, #8]
		if (cs == 0) break;				/* Found a free cluster */
 800537e:	68bb      	ldr	r3, [r7, #8]
 8005380:	2b00      	cmp	r3, #0
 8005382:	d00d      	beq.n	80053a0 <create_chain+0xc8>
		if (cs == 0xFFFFFFFF || cs == 1)/* An error occurred */
 8005384:	68bb      	ldr	r3, [r7, #8]
 8005386:	3301      	adds	r3, #1
 8005388:	d002      	beq.n	8005390 <create_chain+0xb8>
 800538a:	68bb      	ldr	r3, [r7, #8]
 800538c:	2b01      	cmp	r3, #1
 800538e:	d101      	bne.n	8005394 <create_chain+0xbc>
			return cs;
 8005390:	68bb      	ldr	r3, [r7, #8]
 8005392:	e04e      	b.n	8005432 <create_chain+0x15a>
		if (ncl == scl) return 0;		/* No free cluster */
 8005394:	697a      	ldr	r2, [r7, #20]
 8005396:	693b      	ldr	r3, [r7, #16]
 8005398:	429a      	cmp	r2, r3
 800539a:	d1d6      	bne.n	800534a <create_chain+0x72>
 800539c:	2300      	movs	r3, #0
 800539e:	e048      	b.n	8005432 <create_chain+0x15a>
		if (cs == 0) break;				/* Found a free cluster */
 80053a0:	46c0      	nop			; (mov r8, r8)
	}

	res = put_fat(fs, ncl, 0x0FFFFFFF);	/* Mark the new cluster "last link" */
 80053a2:	250f      	movs	r5, #15
 80053a4:	197c      	adds	r4, r7, r5
 80053a6:	4a25      	ldr	r2, [pc, #148]	; (800543c <create_chain+0x164>)
 80053a8:	6979      	ldr	r1, [r7, #20]
 80053aa:	687b      	ldr	r3, [r7, #4]
 80053ac:	0018      	movs	r0, r3
 80053ae:	f7ff fdf5 	bl	8004f9c <put_fat>
 80053b2:	0003      	movs	r3, r0
 80053b4:	7023      	strb	r3, [r4, #0]
	if (res == FR_OK && clst != 0) {
 80053b6:	197b      	adds	r3, r7, r5
 80053b8:	781b      	ldrb	r3, [r3, #0]
 80053ba:	2b00      	cmp	r3, #0
 80053bc:	d10b      	bne.n	80053d6 <create_chain+0xfe>
 80053be:	683b      	ldr	r3, [r7, #0]
 80053c0:	2b00      	cmp	r3, #0
 80053c2:	d008      	beq.n	80053d6 <create_chain+0xfe>
		res = put_fat(fs, clst, ncl);	/* Link it to the previous one if needed */
 80053c4:	197c      	adds	r4, r7, r5
 80053c6:	697a      	ldr	r2, [r7, #20]
 80053c8:	6839      	ldr	r1, [r7, #0]
 80053ca:	687b      	ldr	r3, [r7, #4]
 80053cc:	0018      	movs	r0, r3
 80053ce:	f7ff fde5 	bl	8004f9c <put_fat>
 80053d2:	0003      	movs	r3, r0
 80053d4:	7023      	strb	r3, [r4, #0]
	}
	if (res == FR_OK) {
 80053d6:	230f      	movs	r3, #15
 80053d8:	18fb      	adds	r3, r7, r3
 80053da:	781b      	ldrb	r3, [r3, #0]
 80053dc:	2b00      	cmp	r3, #0
 80053de:	d11d      	bne.n	800541c <create_chain+0x144>
		fs->last_clust = ncl;			/* Update FSINFO */
 80053e0:	687a      	ldr	r2, [r7, #4]
 80053e2:	2383      	movs	r3, #131	; 0x83
 80053e4:	009b      	lsls	r3, r3, #2
 80053e6:	6979      	ldr	r1, [r7, #20]
 80053e8:	50d1      	str	r1, [r2, r3]
		if (fs->free_clust != 0xFFFFFFFF) {
 80053ea:	687a      	ldr	r2, [r7, #4]
 80053ec:	2384      	movs	r3, #132	; 0x84
 80053ee:	009b      	lsls	r3, r3, #2
 80053f0:	58d3      	ldr	r3, [r2, r3]
 80053f2:	3301      	adds	r3, #1
 80053f4:	d01c      	beq.n	8005430 <create_chain+0x158>
			fs->free_clust--;
 80053f6:	687a      	ldr	r2, [r7, #4]
 80053f8:	2384      	movs	r3, #132	; 0x84
 80053fa:	009b      	lsls	r3, r3, #2
 80053fc:	58d3      	ldr	r3, [r2, r3]
 80053fe:	1e59      	subs	r1, r3, #1
 8005400:	687a      	ldr	r2, [r7, #4]
 8005402:	2384      	movs	r3, #132	; 0x84
 8005404:	009b      	lsls	r3, r3, #2
 8005406:	50d1      	str	r1, [r2, r3]
			fs->fsi_flag |= 1;
 8005408:	687b      	ldr	r3, [r7, #4]
 800540a:	4a0d      	ldr	r2, [pc, #52]	; (8005440 <create_chain+0x168>)
 800540c:	5c9b      	ldrb	r3, [r3, r2]
 800540e:	2201      	movs	r2, #1
 8005410:	4313      	orrs	r3, r2
 8005412:	b2d9      	uxtb	r1, r3
 8005414:	687b      	ldr	r3, [r7, #4]
 8005416:	4a0a      	ldr	r2, [pc, #40]	; (8005440 <create_chain+0x168>)
 8005418:	5499      	strb	r1, [r3, r2]
 800541a:	e009      	b.n	8005430 <create_chain+0x158>
		}
	} else {
		ncl = (res == FR_DISK_ERR) ? 0xFFFFFFFF : 1;
 800541c:	230f      	movs	r3, #15
 800541e:	18fb      	adds	r3, r7, r3
 8005420:	781b      	ldrb	r3, [r3, #0]
 8005422:	2b01      	cmp	r3, #1
 8005424:	d102      	bne.n	800542c <create_chain+0x154>
 8005426:	2301      	movs	r3, #1
 8005428:	425b      	negs	r3, r3
 800542a:	e000      	b.n	800542e <create_chain+0x156>
 800542c:	2301      	movs	r3, #1
 800542e:	617b      	str	r3, [r7, #20]
	}

	return ncl;		/* Return new cluster number or error code */
 8005430:	697b      	ldr	r3, [r7, #20]
}
 8005432:	0018      	movs	r0, r3
 8005434:	46bd      	mov	sp, r7
 8005436:	b006      	add	sp, #24
 8005438:	bdb0      	pop	{r4, r5, r7, pc}
 800543a:	46c0      	nop			; (mov r8, r8)
 800543c:	0fffffff 	.word	0x0fffffff
 8005440:	00000205 	.word	0x00000205

08005444 <clmt_clust>:
static
DWORD clmt_clust (	/* <2:Error, >=2:Cluster number */
	FIL* fp,		/* Pointer to the file object */
	DWORD ofs		/* File offset to be converted to cluster# */
)
{
 8005444:	b580      	push	{r7, lr}
 8005446:	b086      	sub	sp, #24
 8005448:	af00      	add	r7, sp, #0
 800544a:	6078      	str	r0, [r7, #4]
 800544c:	6039      	str	r1, [r7, #0]
	DWORD cl, ncl, *tbl;


	tbl = fp->cltbl + 1;	/* Top of CLMT */
 800544e:	687a      	ldr	r2, [r7, #4]
 8005450:	2389      	movs	r3, #137	; 0x89
 8005452:	009b      	lsls	r3, r3, #2
 8005454:	58d3      	ldr	r3, [r2, r3]
 8005456:	3304      	adds	r3, #4
 8005458:	613b      	str	r3, [r7, #16]
	cl = ofs / SS(fp->fs) / fp->fs->csize;	/* Cluster order from top of the file */
 800545a:	683b      	ldr	r3, [r7, #0]
 800545c:	0a58      	lsrs	r0, r3, #9
 800545e:	687a      	ldr	r2, [r7, #4]
 8005460:	2380      	movs	r3, #128	; 0x80
 8005462:	009b      	lsls	r3, r3, #2
 8005464:	58d3      	ldr	r3, [r2, r3]
 8005466:	4a13      	ldr	r2, [pc, #76]	; (80054b4 <clmt_clust+0x70>)
 8005468:	5c9b      	ldrb	r3, [r3, r2]
 800546a:	0019      	movs	r1, r3
 800546c:	f7fa fe5e 	bl	800012c <__udivsi3>
 8005470:	0003      	movs	r3, r0
 8005472:	617b      	str	r3, [r7, #20]
	for (;;) {
		ncl = *tbl++;			/* Number of cluters in the fragment */
 8005474:	693b      	ldr	r3, [r7, #16]
 8005476:	1d1a      	adds	r2, r3, #4
 8005478:	613a      	str	r2, [r7, #16]
 800547a:	681b      	ldr	r3, [r3, #0]
 800547c:	60fb      	str	r3, [r7, #12]
		if (!ncl) return 0;		/* End of table? (error) */
 800547e:	68fb      	ldr	r3, [r7, #12]
 8005480:	2b00      	cmp	r3, #0
 8005482:	d101      	bne.n	8005488 <clmt_clust+0x44>
 8005484:	2300      	movs	r3, #0
 8005486:	e010      	b.n	80054aa <clmt_clust+0x66>
		if (cl < ncl) break;	/* In this fragment? */
 8005488:	697a      	ldr	r2, [r7, #20]
 800548a:	68fb      	ldr	r3, [r7, #12]
 800548c:	429a      	cmp	r2, r3
 800548e:	d307      	bcc.n	80054a0 <clmt_clust+0x5c>
		cl -= ncl; tbl++;		/* Next fragment */
 8005490:	697a      	ldr	r2, [r7, #20]
 8005492:	68fb      	ldr	r3, [r7, #12]
 8005494:	1ad3      	subs	r3, r2, r3
 8005496:	617b      	str	r3, [r7, #20]
 8005498:	693b      	ldr	r3, [r7, #16]
 800549a:	3304      	adds	r3, #4
 800549c:	613b      	str	r3, [r7, #16]
		ncl = *tbl++;			/* Number of cluters in the fragment */
 800549e:	e7e9      	b.n	8005474 <clmt_clust+0x30>
		if (cl < ncl) break;	/* In this fragment? */
 80054a0:	46c0      	nop			; (mov r8, r8)
	}
	return cl + *tbl;	/* Return the cluster number */
 80054a2:	693b      	ldr	r3, [r7, #16]
 80054a4:	681a      	ldr	r2, [r3, #0]
 80054a6:	697b      	ldr	r3, [r7, #20]
 80054a8:	18d3      	adds	r3, r2, r3
}
 80054aa:	0018      	movs	r0, r3
 80054ac:	46bd      	mov	sp, r7
 80054ae:	b006      	add	sp, #24
 80054b0:	bd80      	pop	{r7, pc}
 80054b2:	46c0      	nop			; (mov r8, r8)
 80054b4:	00000202 	.word	0x00000202

080054b8 <dir_sdi>:
static
FRESULT dir_sdi (
	DIR* dp,		/* Pointer to directory object */
	UINT idx		/* Index of directory table */
)
{
 80054b8:	b580      	push	{r7, lr}
 80054ba:	b086      	sub	sp, #24
 80054bc:	af00      	add	r7, sp, #0
 80054be:	6078      	str	r0, [r7, #4]
 80054c0:	6039      	str	r1, [r7, #0]
	DWORD clst, sect;
	UINT ic;


	dp->index = (WORD)idx;	/* Current index */
 80054c2:	683b      	ldr	r3, [r7, #0]
 80054c4:	b299      	uxth	r1, r3
 80054c6:	687b      	ldr	r3, [r7, #4]
 80054c8:	4a51      	ldr	r2, [pc, #324]	; (8005610 <dir_sdi+0x158>)
 80054ca:	5299      	strh	r1, [r3, r2]
	clst = dp->sclust;		/* Table start cluster (0:root) */
 80054cc:	687a      	ldr	r2, [r7, #4]
 80054ce:	2382      	movs	r3, #130	; 0x82
 80054d0:	009b      	lsls	r3, r3, #2
 80054d2:	58d3      	ldr	r3, [r2, r3]
 80054d4:	617b      	str	r3, [r7, #20]
	if (clst == 1 || clst >= dp->fs->n_fatent)	/* Check start cluster range */
 80054d6:	697b      	ldr	r3, [r7, #20]
 80054d8:	2b01      	cmp	r3, #1
 80054da:	d009      	beq.n	80054f0 <dir_sdi+0x38>
 80054dc:	687a      	ldr	r2, [r7, #4]
 80054de:	2380      	movs	r3, #128	; 0x80
 80054e0:	009b      	lsls	r3, r3, #2
 80054e2:	58d2      	ldr	r2, [r2, r3]
 80054e4:	2385      	movs	r3, #133	; 0x85
 80054e6:	009b      	lsls	r3, r3, #2
 80054e8:	58d3      	ldr	r3, [r2, r3]
 80054ea:	697a      	ldr	r2, [r7, #20]
 80054ec:	429a      	cmp	r2, r3
 80054ee:	d301      	bcc.n	80054f4 <dir_sdi+0x3c>
		return FR_INT_ERR;
 80054f0:	2302      	movs	r3, #2
 80054f2:	e088      	b.n	8005606 <dir_sdi+0x14e>
	if (!clst && dp->fs->fs_type == FS_FAT32)	/* Replace cluster# 0 with root cluster# if in FAT32 */
 80054f4:	697b      	ldr	r3, [r7, #20]
 80054f6:	2b00      	cmp	r3, #0
 80054f8:	d110      	bne.n	800551c <dir_sdi+0x64>
 80054fa:	687a      	ldr	r2, [r7, #4]
 80054fc:	2380      	movs	r3, #128	; 0x80
 80054fe:	009b      	lsls	r3, r3, #2
 8005500:	58d2      	ldr	r2, [r2, r3]
 8005502:	2380      	movs	r3, #128	; 0x80
 8005504:	009b      	lsls	r3, r3, #2
 8005506:	5cd3      	ldrb	r3, [r2, r3]
 8005508:	2b03      	cmp	r3, #3
 800550a:	d107      	bne.n	800551c <dir_sdi+0x64>
		clst = dp->fs->dirbase;
 800550c:	687a      	ldr	r2, [r7, #4]
 800550e:	2380      	movs	r3, #128	; 0x80
 8005510:	009b      	lsls	r3, r3, #2
 8005512:	58d2      	ldr	r2, [r2, r3]
 8005514:	2389      	movs	r3, #137	; 0x89
 8005516:	009b      	lsls	r3, r3, #2
 8005518:	58d3      	ldr	r3, [r2, r3]
 800551a:	617b      	str	r3, [r7, #20]

	if (clst == 0) {	/* Static table (root-directory in FAT12/16) */
 800551c:	697b      	ldr	r3, [r7, #20]
 800551e:	2b00      	cmp	r3, #0
 8005520:	d115      	bne.n	800554e <dir_sdi+0x96>
		if (idx >= dp->fs->n_rootdir)	/* Is index out of range? */
 8005522:	687a      	ldr	r2, [r7, #4]
 8005524:	2380      	movs	r3, #128	; 0x80
 8005526:	009b      	lsls	r3, r3, #2
 8005528:	58d2      	ldr	r2, [r2, r3]
 800552a:	2382      	movs	r3, #130	; 0x82
 800552c:	009b      	lsls	r3, r3, #2
 800552e:	5ad3      	ldrh	r3, [r2, r3]
 8005530:	001a      	movs	r2, r3
 8005532:	683b      	ldr	r3, [r7, #0]
 8005534:	4293      	cmp	r3, r2
 8005536:	d301      	bcc.n	800553c <dir_sdi+0x84>
			return FR_INT_ERR;
 8005538:	2302      	movs	r3, #2
 800553a:	e064      	b.n	8005606 <dir_sdi+0x14e>
		sect = dp->fs->dirbase;
 800553c:	687a      	ldr	r2, [r7, #4]
 800553e:	2380      	movs	r3, #128	; 0x80
 8005540:	009b      	lsls	r3, r3, #2
 8005542:	58d2      	ldr	r2, [r2, r3]
 8005544:	2389      	movs	r3, #137	; 0x89
 8005546:	009b      	lsls	r3, r3, #2
 8005548:	58d3      	ldr	r3, [r2, r3]
 800554a:	613b      	str	r3, [r7, #16]
 800554c:	e03a      	b.n	80055c4 <dir_sdi+0x10c>
	}
	else {				/* Dynamic table (root-directory in FAT32 or sub-directory) */
		ic = SS(dp->fs) / SZ_DIRE * dp->fs->csize;	/* Entries per cluster */
 800554e:	687a      	ldr	r2, [r7, #4]
 8005550:	2380      	movs	r3, #128	; 0x80
 8005552:	009b      	lsls	r3, r3, #2
 8005554:	58d3      	ldr	r3, [r2, r3]
 8005556:	4a2f      	ldr	r2, [pc, #188]	; (8005614 <dir_sdi+0x15c>)
 8005558:	5c9b      	ldrb	r3, [r3, r2]
 800555a:	011b      	lsls	r3, r3, #4
 800555c:	60fb      	str	r3, [r7, #12]
		while (idx >= ic) {	/* Follow cluster chain */
 800555e:	e022      	b.n	80055a6 <dir_sdi+0xee>
			clst = get_fat(dp->fs, clst);				/* Get next cluster */
 8005560:	687a      	ldr	r2, [r7, #4]
 8005562:	2380      	movs	r3, #128	; 0x80
 8005564:	009b      	lsls	r3, r3, #2
 8005566:	58d3      	ldr	r3, [r2, r3]
 8005568:	697a      	ldr	r2, [r7, #20]
 800556a:	0011      	movs	r1, r2
 800556c:	0018      	movs	r0, r3
 800556e:	f7ff fc53 	bl	8004e18 <get_fat>
 8005572:	0003      	movs	r3, r0
 8005574:	617b      	str	r3, [r7, #20]
			if (clst == 0xFFFFFFFF) return FR_DISK_ERR;	/* Disk error */
 8005576:	697b      	ldr	r3, [r7, #20]
 8005578:	3301      	adds	r3, #1
 800557a:	d101      	bne.n	8005580 <dir_sdi+0xc8>
 800557c:	2301      	movs	r3, #1
 800557e:	e042      	b.n	8005606 <dir_sdi+0x14e>
			if (clst < 2 || clst >= dp->fs->n_fatent)	/* Reached to end of table or internal error */
 8005580:	697b      	ldr	r3, [r7, #20]
 8005582:	2b01      	cmp	r3, #1
 8005584:	d909      	bls.n	800559a <dir_sdi+0xe2>
 8005586:	687a      	ldr	r2, [r7, #4]
 8005588:	2380      	movs	r3, #128	; 0x80
 800558a:	009b      	lsls	r3, r3, #2
 800558c:	58d2      	ldr	r2, [r2, r3]
 800558e:	2385      	movs	r3, #133	; 0x85
 8005590:	009b      	lsls	r3, r3, #2
 8005592:	58d3      	ldr	r3, [r2, r3]
 8005594:	697a      	ldr	r2, [r7, #20]
 8005596:	429a      	cmp	r2, r3
 8005598:	d301      	bcc.n	800559e <dir_sdi+0xe6>
				return FR_INT_ERR;
 800559a:	2302      	movs	r3, #2
 800559c:	e033      	b.n	8005606 <dir_sdi+0x14e>
			idx -= ic;
 800559e:	683a      	ldr	r2, [r7, #0]
 80055a0:	68fb      	ldr	r3, [r7, #12]
 80055a2:	1ad3      	subs	r3, r2, r3
 80055a4:	603b      	str	r3, [r7, #0]
		while (idx >= ic) {	/* Follow cluster chain */
 80055a6:	683a      	ldr	r2, [r7, #0]
 80055a8:	68fb      	ldr	r3, [r7, #12]
 80055aa:	429a      	cmp	r2, r3
 80055ac:	d2d8      	bcs.n	8005560 <dir_sdi+0xa8>
		}
		sect = clust2sect(dp->fs, clst);
 80055ae:	687a      	ldr	r2, [r7, #4]
 80055b0:	2380      	movs	r3, #128	; 0x80
 80055b2:	009b      	lsls	r3, r3, #2
 80055b4:	58d3      	ldr	r3, [r2, r3]
 80055b6:	697a      	ldr	r2, [r7, #20]
 80055b8:	0011      	movs	r1, r2
 80055ba:	0018      	movs	r0, r3
 80055bc:	f7ff fc08 	bl	8004dd0 <clust2sect>
 80055c0:	0003      	movs	r3, r0
 80055c2:	613b      	str	r3, [r7, #16]
	}
	dp->clust = clst;	/* Current cluster# */
 80055c4:	687a      	ldr	r2, [r7, #4]
 80055c6:	2383      	movs	r3, #131	; 0x83
 80055c8:	009b      	lsls	r3, r3, #2
 80055ca:	6979      	ldr	r1, [r7, #20]
 80055cc:	50d1      	str	r1, [r2, r3]
	if (!sect) return FR_INT_ERR;
 80055ce:	693b      	ldr	r3, [r7, #16]
 80055d0:	2b00      	cmp	r3, #0
 80055d2:	d101      	bne.n	80055d8 <dir_sdi+0x120>
 80055d4:	2302      	movs	r3, #2
 80055d6:	e016      	b.n	8005606 <dir_sdi+0x14e>
	dp->sect = sect + idx / (SS(dp->fs) / SZ_DIRE);					/* Sector# of the directory entry */
 80055d8:	683b      	ldr	r3, [r7, #0]
 80055da:	091a      	lsrs	r2, r3, #4
 80055dc:	693b      	ldr	r3, [r7, #16]
 80055de:	18d1      	adds	r1, r2, r3
 80055e0:	687a      	ldr	r2, [r7, #4]
 80055e2:	2384      	movs	r3, #132	; 0x84
 80055e4:	009b      	lsls	r3, r3, #2
 80055e6:	50d1      	str	r1, [r2, r3]
	dp->dir = dp->fs->win.d8 + (idx % (SS(dp->fs) / SZ_DIRE)) * SZ_DIRE;	/* Ptr to the entry in the sector */
 80055e8:	687a      	ldr	r2, [r7, #4]
 80055ea:	2380      	movs	r3, #128	; 0x80
 80055ec:	009b      	lsls	r3, r3, #2
 80055ee:	58d3      	ldr	r3, [r2, r3]
 80055f0:	0019      	movs	r1, r3
 80055f2:	683b      	ldr	r3, [r7, #0]
 80055f4:	220f      	movs	r2, #15
 80055f6:	4013      	ands	r3, r2
 80055f8:	015b      	lsls	r3, r3, #5
 80055fa:	18c9      	adds	r1, r1, r3
 80055fc:	687a      	ldr	r2, [r7, #4]
 80055fe:	2385      	movs	r3, #133	; 0x85
 8005600:	009b      	lsls	r3, r3, #2
 8005602:	50d1      	str	r1, [r2, r3]

	return FR_OK;
 8005604:	2300      	movs	r3, #0
}
 8005606:	0018      	movs	r0, r3
 8005608:	46bd      	mov	sp, r7
 800560a:	b006      	add	sp, #24
 800560c:	bd80      	pop	{r7, pc}
 800560e:	46c0      	nop			; (mov r8, r8)
 8005610:	00000206 	.word	0x00000206
 8005614:	00000202 	.word	0x00000202

08005618 <dir_next>:
static
FRESULT dir_next (	/* FR_OK:Succeeded, FR_NO_FILE:End of table, FR_DENIED:Could not stretch */
	DIR* dp,		/* Pointer to the directory object */
	int stretch		/* 0: Do not stretch table, 1: Stretch table if needed */
)
{
 8005618:	b590      	push	{r4, r7, lr}
 800561a:	b087      	sub	sp, #28
 800561c:	af00      	add	r7, sp, #0
 800561e:	6078      	str	r0, [r7, #4]
 8005620:	6039      	str	r1, [r7, #0]
#if !_FS_READONLY
	UINT c;
#endif


	i = dp->index + 1;
 8005622:	687b      	ldr	r3, [r7, #4]
 8005624:	4a87      	ldr	r2, [pc, #540]	; (8005844 <dir_next+0x22c>)
 8005626:	5a9b      	ldrh	r3, [r3, r2]
 8005628:	3301      	adds	r3, #1
 800562a:	60fb      	str	r3, [r7, #12]
	if (!(i & 0xFFFF) || !dp->sect)	/* Report EOT when index has reached 65535 */
 800562c:	68fb      	ldr	r3, [r7, #12]
 800562e:	041b      	lsls	r3, r3, #16
 8005630:	0c1b      	lsrs	r3, r3, #16
 8005632:	d005      	beq.n	8005640 <dir_next+0x28>
 8005634:	687a      	ldr	r2, [r7, #4]
 8005636:	2384      	movs	r3, #132	; 0x84
 8005638:	009b      	lsls	r3, r3, #2
 800563a:	58d3      	ldr	r3, [r2, r3]
 800563c:	2b00      	cmp	r3, #0
 800563e:	d101      	bne.n	8005644 <dir_next+0x2c>
		return FR_NO_FILE;
 8005640:	2304      	movs	r3, #4
 8005642:	e0fb      	b.n	800583c <dir_next+0x224>

	if (!(i % (SS(dp->fs) / SZ_DIRE))) {	/* Sector changed? */
 8005644:	68fb      	ldr	r3, [r7, #12]
 8005646:	220f      	movs	r2, #15
 8005648:	4013      	ands	r3, r2
 800564a:	d000      	beq.n	800564e <dir_next+0x36>
 800564c:	e0e2      	b.n	8005814 <dir_next+0x1fc>
		dp->sect++;					/* Next sector */
 800564e:	687a      	ldr	r2, [r7, #4]
 8005650:	2384      	movs	r3, #132	; 0x84
 8005652:	009b      	lsls	r3, r3, #2
 8005654:	58d3      	ldr	r3, [r2, r3]
 8005656:	1c59      	adds	r1, r3, #1
 8005658:	687a      	ldr	r2, [r7, #4]
 800565a:	2384      	movs	r3, #132	; 0x84
 800565c:	009b      	lsls	r3, r3, #2
 800565e:	50d1      	str	r1, [r2, r3]

		if (!dp->clust) {		/* Static table */
 8005660:	687a      	ldr	r2, [r7, #4]
 8005662:	2383      	movs	r3, #131	; 0x83
 8005664:	009b      	lsls	r3, r3, #2
 8005666:	58d3      	ldr	r3, [r2, r3]
 8005668:	2b00      	cmp	r3, #0
 800566a:	d10d      	bne.n	8005688 <dir_next+0x70>
			if (i >= dp->fs->n_rootdir)	/* Report EOT if it reached end of static table */
 800566c:	687a      	ldr	r2, [r7, #4]
 800566e:	2380      	movs	r3, #128	; 0x80
 8005670:	009b      	lsls	r3, r3, #2
 8005672:	58d2      	ldr	r2, [r2, r3]
 8005674:	2382      	movs	r3, #130	; 0x82
 8005676:	009b      	lsls	r3, r3, #2
 8005678:	5ad3      	ldrh	r3, [r2, r3]
 800567a:	001a      	movs	r2, r3
 800567c:	68fb      	ldr	r3, [r7, #12]
 800567e:	4293      	cmp	r3, r2
 8005680:	d200      	bcs.n	8005684 <dir_next+0x6c>
 8005682:	e0c7      	b.n	8005814 <dir_next+0x1fc>
				return FR_NO_FILE;
 8005684:	2304      	movs	r3, #4
 8005686:	e0d9      	b.n	800583c <dir_next+0x224>
		}
		else {					/* Dynamic table */
			if (((i / (SS(dp->fs) / SZ_DIRE)) & (dp->fs->csize - 1)) == 0) {	/* Cluster changed? */
 8005688:	68fb      	ldr	r3, [r7, #12]
 800568a:	091b      	lsrs	r3, r3, #4
 800568c:	6879      	ldr	r1, [r7, #4]
 800568e:	2280      	movs	r2, #128	; 0x80
 8005690:	0092      	lsls	r2, r2, #2
 8005692:	588a      	ldr	r2, [r1, r2]
 8005694:	496c      	ldr	r1, [pc, #432]	; (8005848 <dir_next+0x230>)
 8005696:	5c52      	ldrb	r2, [r2, r1]
 8005698:	3a01      	subs	r2, #1
 800569a:	4013      	ands	r3, r2
 800569c:	d000      	beq.n	80056a0 <dir_next+0x88>
 800569e:	e0b9      	b.n	8005814 <dir_next+0x1fc>
				clst = get_fat(dp->fs, dp->clust);				/* Get next cluster */
 80056a0:	687a      	ldr	r2, [r7, #4]
 80056a2:	2380      	movs	r3, #128	; 0x80
 80056a4:	009b      	lsls	r3, r3, #2
 80056a6:	58d0      	ldr	r0, [r2, r3]
 80056a8:	687a      	ldr	r2, [r7, #4]
 80056aa:	2383      	movs	r3, #131	; 0x83
 80056ac:	009b      	lsls	r3, r3, #2
 80056ae:	58d3      	ldr	r3, [r2, r3]
 80056b0:	0019      	movs	r1, r3
 80056b2:	f7ff fbb1 	bl	8004e18 <get_fat>
 80056b6:	0003      	movs	r3, r0
 80056b8:	617b      	str	r3, [r7, #20]
				if (clst <= 1) return FR_INT_ERR;
 80056ba:	697b      	ldr	r3, [r7, #20]
 80056bc:	2b01      	cmp	r3, #1
 80056be:	d801      	bhi.n	80056c4 <dir_next+0xac>
 80056c0:	2302      	movs	r3, #2
 80056c2:	e0bb      	b.n	800583c <dir_next+0x224>
				if (clst == 0xFFFFFFFF) return FR_DISK_ERR;
 80056c4:	697b      	ldr	r3, [r7, #20]
 80056c6:	3301      	adds	r3, #1
 80056c8:	d101      	bne.n	80056ce <dir_next+0xb6>
 80056ca:	2301      	movs	r3, #1
 80056cc:	e0b6      	b.n	800583c <dir_next+0x224>
				if (clst >= dp->fs->n_fatent) {					/* If it reached end of dynamic table, */
 80056ce:	687a      	ldr	r2, [r7, #4]
 80056d0:	2380      	movs	r3, #128	; 0x80
 80056d2:	009b      	lsls	r3, r3, #2
 80056d4:	58d2      	ldr	r2, [r2, r3]
 80056d6:	2385      	movs	r3, #133	; 0x85
 80056d8:	009b      	lsls	r3, r3, #2
 80056da:	58d3      	ldr	r3, [r2, r3]
 80056dc:	697a      	ldr	r2, [r7, #20]
 80056de:	429a      	cmp	r2, r3
 80056e0:	d200      	bcs.n	80056e4 <dir_next+0xcc>
 80056e2:	e084      	b.n	80057ee <dir_next+0x1d6>
#if !_FS_READONLY
					if (!stretch) return FR_NO_FILE;			/* If do not stretch, report EOT */
 80056e4:	683b      	ldr	r3, [r7, #0]
 80056e6:	2b00      	cmp	r3, #0
 80056e8:	d101      	bne.n	80056ee <dir_next+0xd6>
 80056ea:	2304      	movs	r3, #4
 80056ec:	e0a6      	b.n	800583c <dir_next+0x224>
					clst = create_chain(dp->fs, dp->clust);		/* Stretch cluster chain */
 80056ee:	687a      	ldr	r2, [r7, #4]
 80056f0:	2380      	movs	r3, #128	; 0x80
 80056f2:	009b      	lsls	r3, r3, #2
 80056f4:	58d0      	ldr	r0, [r2, r3]
 80056f6:	687a      	ldr	r2, [r7, #4]
 80056f8:	2383      	movs	r3, #131	; 0x83
 80056fa:	009b      	lsls	r3, r3, #2
 80056fc:	58d3      	ldr	r3, [r2, r3]
 80056fe:	0019      	movs	r1, r3
 8005700:	f7ff fdea 	bl	80052d8 <create_chain>
 8005704:	0003      	movs	r3, r0
 8005706:	617b      	str	r3, [r7, #20]
					if (clst == 0) return FR_DENIED;			/* No free cluster */
 8005708:	697b      	ldr	r3, [r7, #20]
 800570a:	2b00      	cmp	r3, #0
 800570c:	d101      	bne.n	8005712 <dir_next+0xfa>
 800570e:	2307      	movs	r3, #7
 8005710:	e094      	b.n	800583c <dir_next+0x224>
					if (clst == 1) return FR_INT_ERR;
 8005712:	697b      	ldr	r3, [r7, #20]
 8005714:	2b01      	cmp	r3, #1
 8005716:	d101      	bne.n	800571c <dir_next+0x104>
 8005718:	2302      	movs	r3, #2
 800571a:	e08f      	b.n	800583c <dir_next+0x224>
					if (clst == 0xFFFFFFFF) return FR_DISK_ERR;
 800571c:	697b      	ldr	r3, [r7, #20]
 800571e:	3301      	adds	r3, #1
 8005720:	d101      	bne.n	8005726 <dir_next+0x10e>
 8005722:	2301      	movs	r3, #1
 8005724:	e08a      	b.n	800583c <dir_next+0x224>
					/* Clean-up stretched table */
					if (sync_window(dp->fs)) return FR_DISK_ERR;/* Flush disk access window */
 8005726:	687a      	ldr	r2, [r7, #4]
 8005728:	2380      	movs	r3, #128	; 0x80
 800572a:	009b      	lsls	r3, r3, #2
 800572c:	58d3      	ldr	r3, [r2, r3]
 800572e:	0018      	movs	r0, r3
 8005730:	f7ff f9e6 	bl	8004b00 <sync_window>
 8005734:	1e03      	subs	r3, r0, #0
 8005736:	d001      	beq.n	800573c <dir_next+0x124>
 8005738:	2301      	movs	r3, #1
 800573a:	e07f      	b.n	800583c <dir_next+0x224>
					mem_set(dp->fs->win.d8, 0, SS(dp->fs));		/* Clear window buffer */
 800573c:	687a      	ldr	r2, [r7, #4]
 800573e:	2380      	movs	r3, #128	; 0x80
 8005740:	009b      	lsls	r3, r3, #2
 8005742:	58d3      	ldr	r3, [r2, r3]
 8005744:	0018      	movs	r0, r3
 8005746:	2380      	movs	r3, #128	; 0x80
 8005748:	009b      	lsls	r3, r3, #2
 800574a:	001a      	movs	r2, r3
 800574c:	2100      	movs	r1, #0
 800574e:	f7fe ffc0 	bl	80046d2 <mem_set>
					dp->fs->winsect = clust2sect(dp->fs, clst);	/* Cluster start sector */
 8005752:	687a      	ldr	r2, [r7, #4]
 8005754:	2380      	movs	r3, #128	; 0x80
 8005756:	009b      	lsls	r3, r3, #2
 8005758:	58d0      	ldr	r0, [r2, r3]
 800575a:	687a      	ldr	r2, [r7, #4]
 800575c:	2380      	movs	r3, #128	; 0x80
 800575e:	009b      	lsls	r3, r3, #2
 8005760:	58d4      	ldr	r4, [r2, r3]
 8005762:	697b      	ldr	r3, [r7, #20]
 8005764:	0019      	movs	r1, r3
 8005766:	f7ff fb33 	bl	8004dd0 <clust2sect>
 800576a:	0002      	movs	r2, r0
 800576c:	238b      	movs	r3, #139	; 0x8b
 800576e:	009b      	lsls	r3, r3, #2
 8005770:	50e2      	str	r2, [r4, r3]
					for (c = 0; c < dp->fs->csize; c++) {		/* Fill the new cluster with 0 */
 8005772:	2300      	movs	r3, #0
 8005774:	613b      	str	r3, [r7, #16]
 8005776:	e020      	b.n	80057ba <dir_next+0x1a2>
						dp->fs->wflag = 1;
 8005778:	687a      	ldr	r2, [r7, #4]
 800577a:	2380      	movs	r3, #128	; 0x80
 800577c:	009b      	lsls	r3, r3, #2
 800577e:	58d2      	ldr	r2, [r2, r3]
 8005780:	2381      	movs	r3, #129	; 0x81
 8005782:	009b      	lsls	r3, r3, #2
 8005784:	2101      	movs	r1, #1
 8005786:	54d1      	strb	r1, [r2, r3]
						if (sync_window(dp->fs)) return FR_DISK_ERR;
 8005788:	687a      	ldr	r2, [r7, #4]
 800578a:	2380      	movs	r3, #128	; 0x80
 800578c:	009b      	lsls	r3, r3, #2
 800578e:	58d3      	ldr	r3, [r2, r3]
 8005790:	0018      	movs	r0, r3
 8005792:	f7ff f9b5 	bl	8004b00 <sync_window>
 8005796:	1e03      	subs	r3, r0, #0
 8005798:	d001      	beq.n	800579e <dir_next+0x186>
 800579a:	2301      	movs	r3, #1
 800579c:	e04e      	b.n	800583c <dir_next+0x224>
						dp->fs->winsect++;
 800579e:	687a      	ldr	r2, [r7, #4]
 80057a0:	2380      	movs	r3, #128	; 0x80
 80057a2:	009b      	lsls	r3, r3, #2
 80057a4:	58d3      	ldr	r3, [r2, r3]
 80057a6:	228b      	movs	r2, #139	; 0x8b
 80057a8:	0092      	lsls	r2, r2, #2
 80057aa:	589a      	ldr	r2, [r3, r2]
 80057ac:	1c51      	adds	r1, r2, #1
 80057ae:	228b      	movs	r2, #139	; 0x8b
 80057b0:	0092      	lsls	r2, r2, #2
 80057b2:	5099      	str	r1, [r3, r2]
					for (c = 0; c < dp->fs->csize; c++) {		/* Fill the new cluster with 0 */
 80057b4:	693b      	ldr	r3, [r7, #16]
 80057b6:	3301      	adds	r3, #1
 80057b8:	613b      	str	r3, [r7, #16]
 80057ba:	687a      	ldr	r2, [r7, #4]
 80057bc:	2380      	movs	r3, #128	; 0x80
 80057be:	009b      	lsls	r3, r3, #2
 80057c0:	58d3      	ldr	r3, [r2, r3]
 80057c2:	4a21      	ldr	r2, [pc, #132]	; (8005848 <dir_next+0x230>)
 80057c4:	5c9b      	ldrb	r3, [r3, r2]
 80057c6:	001a      	movs	r2, r3
 80057c8:	693b      	ldr	r3, [r7, #16]
 80057ca:	4293      	cmp	r3, r2
 80057cc:	d3d4      	bcc.n	8005778 <dir_next+0x160>
					}
					dp->fs->winsect -= c;						/* Rewind window offset */
 80057ce:	687a      	ldr	r2, [r7, #4]
 80057d0:	2380      	movs	r3, #128	; 0x80
 80057d2:	009b      	lsls	r3, r3, #2
 80057d4:	58d2      	ldr	r2, [r2, r3]
 80057d6:	238b      	movs	r3, #139	; 0x8b
 80057d8:	009b      	lsls	r3, r3, #2
 80057da:	58d1      	ldr	r1, [r2, r3]
 80057dc:	687a      	ldr	r2, [r7, #4]
 80057de:	2380      	movs	r3, #128	; 0x80
 80057e0:	009b      	lsls	r3, r3, #2
 80057e2:	58d2      	ldr	r2, [r2, r3]
 80057e4:	693b      	ldr	r3, [r7, #16]
 80057e6:	1ac9      	subs	r1, r1, r3
 80057e8:	238b      	movs	r3, #139	; 0x8b
 80057ea:	009b      	lsls	r3, r3, #2
 80057ec:	50d1      	str	r1, [r2, r3]
#else
					if (!stretch) return FR_NO_FILE;			/* If do not stretch, report EOT (this is to suppress warning) */
					return FR_NO_FILE;							/* Report EOT */
#endif
				}
				dp->clust = clst;				/* Initialize data for new cluster */
 80057ee:	687a      	ldr	r2, [r7, #4]
 80057f0:	2383      	movs	r3, #131	; 0x83
 80057f2:	009b      	lsls	r3, r3, #2
 80057f4:	6979      	ldr	r1, [r7, #20]
 80057f6:	50d1      	str	r1, [r2, r3]
				dp->sect = clust2sect(dp->fs, clst);
 80057f8:	687a      	ldr	r2, [r7, #4]
 80057fa:	2380      	movs	r3, #128	; 0x80
 80057fc:	009b      	lsls	r3, r3, #2
 80057fe:	58d3      	ldr	r3, [r2, r3]
 8005800:	697a      	ldr	r2, [r7, #20]
 8005802:	0011      	movs	r1, r2
 8005804:	0018      	movs	r0, r3
 8005806:	f7ff fae3 	bl	8004dd0 <clust2sect>
 800580a:	0001      	movs	r1, r0
 800580c:	687a      	ldr	r2, [r7, #4]
 800580e:	2384      	movs	r3, #132	; 0x84
 8005810:	009b      	lsls	r3, r3, #2
 8005812:	50d1      	str	r1, [r2, r3]
			}
		}
	}

	dp->index = (WORD)i;	/* Current index */
 8005814:	68fb      	ldr	r3, [r7, #12]
 8005816:	b299      	uxth	r1, r3
 8005818:	687b      	ldr	r3, [r7, #4]
 800581a:	4a0a      	ldr	r2, [pc, #40]	; (8005844 <dir_next+0x22c>)
 800581c:	5299      	strh	r1, [r3, r2]
	dp->dir = dp->fs->win.d8 + (i % (SS(dp->fs) / SZ_DIRE)) * SZ_DIRE;	/* Current entry in the window */
 800581e:	687a      	ldr	r2, [r7, #4]
 8005820:	2380      	movs	r3, #128	; 0x80
 8005822:	009b      	lsls	r3, r3, #2
 8005824:	58d3      	ldr	r3, [r2, r3]
 8005826:	0019      	movs	r1, r3
 8005828:	68fb      	ldr	r3, [r7, #12]
 800582a:	220f      	movs	r2, #15
 800582c:	4013      	ands	r3, r2
 800582e:	015b      	lsls	r3, r3, #5
 8005830:	18c9      	adds	r1, r1, r3
 8005832:	687a      	ldr	r2, [r7, #4]
 8005834:	2385      	movs	r3, #133	; 0x85
 8005836:	009b      	lsls	r3, r3, #2
 8005838:	50d1      	str	r1, [r2, r3]

	return FR_OK;
 800583a:	2300      	movs	r3, #0
}
 800583c:	0018      	movs	r0, r3
 800583e:	46bd      	mov	sp, r7
 8005840:	b007      	add	sp, #28
 8005842:	bd90      	pop	{r4, r7, pc}
 8005844:	00000206 	.word	0x00000206
 8005848:	00000202 	.word	0x00000202

0800584c <dir_alloc>:
static
FRESULT dir_alloc (
	DIR* dp,	/* Pointer to the directory object */
	UINT nent	/* Number of contiguous entries to allocate (1-21) */
)
{
 800584c:	b5b0      	push	{r4, r5, r7, lr}
 800584e:	b084      	sub	sp, #16
 8005850:	af00      	add	r7, sp, #0
 8005852:	6078      	str	r0, [r7, #4]
 8005854:	6039      	str	r1, [r7, #0]
	FRESULT res;
	UINT n;


	res = dir_sdi(dp, 0);
 8005856:	250f      	movs	r5, #15
 8005858:	197c      	adds	r4, r7, r5
 800585a:	687b      	ldr	r3, [r7, #4]
 800585c:	2100      	movs	r1, #0
 800585e:	0018      	movs	r0, r3
 8005860:	f7ff fe2a 	bl	80054b8 <dir_sdi>
 8005864:	0003      	movs	r3, r0
 8005866:	7023      	strb	r3, [r4, #0]
	if (res == FR_OK) {
 8005868:	197b      	adds	r3, r7, r5
 800586a:	781b      	ldrb	r3, [r3, #0]
 800586c:	2b00      	cmp	r3, #0
 800586e:	d13b      	bne.n	80058e8 <dir_alloc+0x9c>
		n = 0;
 8005870:	2300      	movs	r3, #0
 8005872:	60bb      	str	r3, [r7, #8]
		do {
			res = move_window(dp->fs, dp->sect);
 8005874:	687a      	ldr	r2, [r7, #4]
 8005876:	2380      	movs	r3, #128	; 0x80
 8005878:	009b      	lsls	r3, r3, #2
 800587a:	58d0      	ldr	r0, [r2, r3]
 800587c:	687a      	ldr	r2, [r7, #4]
 800587e:	2384      	movs	r3, #132	; 0x84
 8005880:	009b      	lsls	r3, r3, #2
 8005882:	58d3      	ldr	r3, [r2, r3]
 8005884:	250f      	movs	r5, #15
 8005886:	197c      	adds	r4, r7, r5
 8005888:	0019      	movs	r1, r3
 800588a:	f7ff f991 	bl	8004bb0 <move_window>
 800588e:	0003      	movs	r3, r0
 8005890:	7023      	strb	r3, [r4, #0]
			if (res != FR_OK) break;
 8005892:	197b      	adds	r3, r7, r5
 8005894:	781b      	ldrb	r3, [r3, #0]
 8005896:	2b00      	cmp	r3, #0
 8005898:	d125      	bne.n	80058e6 <dir_alloc+0x9a>
			if (dp->dir[0] == DDEM || dp->dir[0] == 0) {	/* Is it a free entry? */
 800589a:	687a      	ldr	r2, [r7, #4]
 800589c:	2385      	movs	r3, #133	; 0x85
 800589e:	009b      	lsls	r3, r3, #2
 80058a0:	58d3      	ldr	r3, [r2, r3]
 80058a2:	781b      	ldrb	r3, [r3, #0]
 80058a4:	2be5      	cmp	r3, #229	; 0xe5
 80058a6:	d006      	beq.n	80058b6 <dir_alloc+0x6a>
 80058a8:	687a      	ldr	r2, [r7, #4]
 80058aa:	2385      	movs	r3, #133	; 0x85
 80058ac:	009b      	lsls	r3, r3, #2
 80058ae:	58d3      	ldr	r3, [r2, r3]
 80058b0:	781b      	ldrb	r3, [r3, #0]
 80058b2:	2b00      	cmp	r3, #0
 80058b4:	d107      	bne.n	80058c6 <dir_alloc+0x7a>
				if (++n == nent) break;	/* A block of contiguous free entries is found */
 80058b6:	68bb      	ldr	r3, [r7, #8]
 80058b8:	3301      	adds	r3, #1
 80058ba:	60bb      	str	r3, [r7, #8]
 80058bc:	68ba      	ldr	r2, [r7, #8]
 80058be:	683b      	ldr	r3, [r7, #0]
 80058c0:	429a      	cmp	r2, r3
 80058c2:	d102      	bne.n	80058ca <dir_alloc+0x7e>
 80058c4:	e010      	b.n	80058e8 <dir_alloc+0x9c>
			} else {
				n = 0;					/* Not a blank entry. Restart to search */
 80058c6:	2300      	movs	r3, #0
 80058c8:	60bb      	str	r3, [r7, #8]
			}
			res = dir_next(dp, 1);		/* Next entry with table stretch enabled */
 80058ca:	250f      	movs	r5, #15
 80058cc:	197c      	adds	r4, r7, r5
 80058ce:	687b      	ldr	r3, [r7, #4]
 80058d0:	2101      	movs	r1, #1
 80058d2:	0018      	movs	r0, r3
 80058d4:	f7ff fea0 	bl	8005618 <dir_next>
 80058d8:	0003      	movs	r3, r0
 80058da:	7023      	strb	r3, [r4, #0]
		} while (res == FR_OK);
 80058dc:	197b      	adds	r3, r7, r5
 80058de:	781b      	ldrb	r3, [r3, #0]
 80058e0:	2b00      	cmp	r3, #0
 80058e2:	d0c7      	beq.n	8005874 <dir_alloc+0x28>
 80058e4:	e000      	b.n	80058e8 <dir_alloc+0x9c>
			if (res != FR_OK) break;
 80058e6:	46c0      	nop			; (mov r8, r8)
	}
	if (res == FR_NO_FILE) res = FR_DENIED;	/* No directory entry to allocate */
 80058e8:	220f      	movs	r2, #15
 80058ea:	18bb      	adds	r3, r7, r2
 80058ec:	781b      	ldrb	r3, [r3, #0]
 80058ee:	2b04      	cmp	r3, #4
 80058f0:	d102      	bne.n	80058f8 <dir_alloc+0xac>
 80058f2:	18bb      	adds	r3, r7, r2
 80058f4:	2207      	movs	r2, #7
 80058f6:	701a      	strb	r2, [r3, #0]
	return res;
 80058f8:	230f      	movs	r3, #15
 80058fa:	18fb      	adds	r3, r7, r3
 80058fc:	781b      	ldrb	r3, [r3, #0]
}
 80058fe:	0018      	movs	r0, r3
 8005900:	46bd      	mov	sp, r7
 8005902:	b004      	add	sp, #16
 8005904:	bdb0      	pop	{r4, r5, r7, pc}

08005906 <ld_clust>:
static
DWORD ld_clust (
	FATFS* fs,	/* Pointer to the fs object */
	BYTE* dir	/* Pointer to the directory entry */
)
{
 8005906:	b580      	push	{r7, lr}
 8005908:	b084      	sub	sp, #16
 800590a:	af00      	add	r7, sp, #0
 800590c:	6078      	str	r0, [r7, #4]
 800590e:	6039      	str	r1, [r7, #0]
	DWORD cl;

	cl = LD_WORD(dir + DIR_FstClusLO);
 8005910:	683b      	ldr	r3, [r7, #0]
 8005912:	331b      	adds	r3, #27
 8005914:	781b      	ldrb	r3, [r3, #0]
 8005916:	021b      	lsls	r3, r3, #8
 8005918:	b21a      	sxth	r2, r3
 800591a:	683b      	ldr	r3, [r7, #0]
 800591c:	331a      	adds	r3, #26
 800591e:	781b      	ldrb	r3, [r3, #0]
 8005920:	b21b      	sxth	r3, r3
 8005922:	4313      	orrs	r3, r2
 8005924:	b21b      	sxth	r3, r3
 8005926:	b29b      	uxth	r3, r3
 8005928:	60fb      	str	r3, [r7, #12]
	if (fs->fs_type == FS_FAT32)
 800592a:	687a      	ldr	r2, [r7, #4]
 800592c:	2380      	movs	r3, #128	; 0x80
 800592e:	009b      	lsls	r3, r3, #2
 8005930:	5cd3      	ldrb	r3, [r2, r3]
 8005932:	2b03      	cmp	r3, #3
 8005934:	d10f      	bne.n	8005956 <ld_clust+0x50>
		cl |= (DWORD)LD_WORD(dir + DIR_FstClusHI) << 16;
 8005936:	683b      	ldr	r3, [r7, #0]
 8005938:	3315      	adds	r3, #21
 800593a:	781b      	ldrb	r3, [r3, #0]
 800593c:	021b      	lsls	r3, r3, #8
 800593e:	b21a      	sxth	r2, r3
 8005940:	683b      	ldr	r3, [r7, #0]
 8005942:	3314      	adds	r3, #20
 8005944:	781b      	ldrb	r3, [r3, #0]
 8005946:	b21b      	sxth	r3, r3
 8005948:	4313      	orrs	r3, r2
 800594a:	b21b      	sxth	r3, r3
 800594c:	b29b      	uxth	r3, r3
 800594e:	041b      	lsls	r3, r3, #16
 8005950:	68fa      	ldr	r2, [r7, #12]
 8005952:	4313      	orrs	r3, r2
 8005954:	60fb      	str	r3, [r7, #12]

	return cl;
 8005956:	68fb      	ldr	r3, [r7, #12]
}
 8005958:	0018      	movs	r0, r3
 800595a:	46bd      	mov	sp, r7
 800595c:	b004      	add	sp, #16
 800595e:	bd80      	pop	{r7, pc}

08005960 <st_clust>:
static
void st_clust (
	BYTE* dir,	/* Pointer to the directory entry */
	DWORD cl	/* Value to be set */
)
{
 8005960:	b580      	push	{r7, lr}
 8005962:	b082      	sub	sp, #8
 8005964:	af00      	add	r7, sp, #0
 8005966:	6078      	str	r0, [r7, #4]
 8005968:	6039      	str	r1, [r7, #0]
	ST_WORD(dir + DIR_FstClusLO, cl);
 800596a:	687b      	ldr	r3, [r7, #4]
 800596c:	331a      	adds	r3, #26
 800596e:	683a      	ldr	r2, [r7, #0]
 8005970:	b2d2      	uxtb	r2, r2
 8005972:	701a      	strb	r2, [r3, #0]
 8005974:	683b      	ldr	r3, [r7, #0]
 8005976:	b29b      	uxth	r3, r3
 8005978:	0a1b      	lsrs	r3, r3, #8
 800597a:	b29a      	uxth	r2, r3
 800597c:	687b      	ldr	r3, [r7, #4]
 800597e:	331b      	adds	r3, #27
 8005980:	b2d2      	uxtb	r2, r2
 8005982:	701a      	strb	r2, [r3, #0]
	ST_WORD(dir + DIR_FstClusHI, cl >> 16);
 8005984:	683b      	ldr	r3, [r7, #0]
 8005986:	0c1a      	lsrs	r2, r3, #16
 8005988:	687b      	ldr	r3, [r7, #4]
 800598a:	3314      	adds	r3, #20
 800598c:	b2d2      	uxtb	r2, r2
 800598e:	701a      	strb	r2, [r3, #0]
 8005990:	683b      	ldr	r3, [r7, #0]
 8005992:	0c1b      	lsrs	r3, r3, #16
 8005994:	b29b      	uxth	r3, r3
 8005996:	0a1b      	lsrs	r3, r3, #8
 8005998:	b29a      	uxth	r2, r3
 800599a:	687b      	ldr	r3, [r7, #4]
 800599c:	3315      	adds	r3, #21
 800599e:	b2d2      	uxtb	r2, r2
 80059a0:	701a      	strb	r2, [r3, #0]
}
 80059a2:	46c0      	nop			; (mov r8, r8)
 80059a4:	46bd      	mov	sp, r7
 80059a6:	b002      	add	sp, #8
 80059a8:	bd80      	pop	{r7, pc}

080059aa <dir_find>:

static
FRESULT dir_find (
	DIR* dp			/* Pointer to the directory object linked to the file name */
)
{
 80059aa:	b5b0      	push	{r4, r5, r7, lr}
 80059ac:	b086      	sub	sp, #24
 80059ae:	af00      	add	r7, sp, #0
 80059b0:	6078      	str	r0, [r7, #4]
	BYTE c, *dir;
#if _USE_LFN
	BYTE a, ord, sum;
#endif

	res = dir_sdi(dp, 0);			/* Rewind directory object */
 80059b2:	2517      	movs	r5, #23
 80059b4:	197c      	adds	r4, r7, r5
 80059b6:	687b      	ldr	r3, [r7, #4]
 80059b8:	2100      	movs	r1, #0
 80059ba:	0018      	movs	r0, r3
 80059bc:	f7ff fd7c 	bl	80054b8 <dir_sdi>
 80059c0:	0003      	movs	r3, r0
 80059c2:	7023      	strb	r3, [r4, #0]
	if (res != FR_OK) return res;
 80059c4:	197b      	adds	r3, r7, r5
 80059c6:	781b      	ldrb	r3, [r3, #0]
 80059c8:	2b00      	cmp	r3, #0
 80059ca:	d002      	beq.n	80059d2 <dir_find+0x28>
 80059cc:	197b      	adds	r3, r7, r5
 80059ce:	781b      	ldrb	r3, [r3, #0]
 80059d0:	e04b      	b.n	8005a6a <dir_find+0xc0>

#if _USE_LFN
	ord = sum = 0xFF; dp->lfn_idx = 0xFFFF;	/* Reset LFN sequence */
#endif
	do {
		res = move_window(dp->fs, dp->sect);
 80059d2:	687a      	ldr	r2, [r7, #4]
 80059d4:	2380      	movs	r3, #128	; 0x80
 80059d6:	009b      	lsls	r3, r3, #2
 80059d8:	58d0      	ldr	r0, [r2, r3]
 80059da:	687a      	ldr	r2, [r7, #4]
 80059dc:	2384      	movs	r3, #132	; 0x84
 80059de:	009b      	lsls	r3, r3, #2
 80059e0:	58d3      	ldr	r3, [r2, r3]
 80059e2:	2517      	movs	r5, #23
 80059e4:	197c      	adds	r4, r7, r5
 80059e6:	0019      	movs	r1, r3
 80059e8:	f7ff f8e2 	bl	8004bb0 <move_window>
 80059ec:	0003      	movs	r3, r0
 80059ee:	7023      	strb	r3, [r4, #0]
		if (res != FR_OK) break;
 80059f0:	0029      	movs	r1, r5
 80059f2:	187b      	adds	r3, r7, r1
 80059f4:	781b      	ldrb	r3, [r3, #0]
 80059f6:	2b00      	cmp	r3, #0
 80059f8:	d131      	bne.n	8005a5e <dir_find+0xb4>
		dir = dp->dir;					/* Ptr to the directory entry of current index */
 80059fa:	687a      	ldr	r2, [r7, #4]
 80059fc:	2385      	movs	r3, #133	; 0x85
 80059fe:	009b      	lsls	r3, r3, #2
 8005a00:	58d3      	ldr	r3, [r2, r3]
 8005a02:	613b      	str	r3, [r7, #16]
		c = dir[DIR_Name];
 8005a04:	200f      	movs	r0, #15
 8005a06:	183b      	adds	r3, r7, r0
 8005a08:	693a      	ldr	r2, [r7, #16]
 8005a0a:	7812      	ldrb	r2, [r2, #0]
 8005a0c:	701a      	strb	r2, [r3, #0]
		if (c == 0) { res = FR_NO_FILE; break; }	/* Reached to end of table */
 8005a0e:	183b      	adds	r3, r7, r0
 8005a10:	781b      	ldrb	r3, [r3, #0]
 8005a12:	2b00      	cmp	r3, #0
 8005a14:	d103      	bne.n	8005a1e <dir_find+0x74>
 8005a16:	187b      	adds	r3, r7, r1
 8005a18:	2204      	movs	r2, #4
 8005a1a:	701a      	strb	r2, [r3, #0]
 8005a1c:	e022      	b.n	8005a64 <dir_find+0xba>
				if (!(dp->fn[NSFLAG] & NS_LOSS) && !mem_cmp(dir, dp->fn, 11)) break;	/* SFN matched? */
				ord = 0xFF; dp->lfn_idx = 0xFFFF;	/* Reset LFN sequence */
			}
		}
#else		/* Non LFN configuration */
		if (!(dir[DIR_Attr] & AM_VOL) && !mem_cmp(dir, dp->fn, 11)) /* Is it a valid entry? */
 8005a1e:	693b      	ldr	r3, [r7, #16]
 8005a20:	330b      	adds	r3, #11
 8005a22:	781b      	ldrb	r3, [r3, #0]
 8005a24:	001a      	movs	r2, r3
 8005a26:	2308      	movs	r3, #8
 8005a28:	4013      	ands	r3, r2
 8005a2a:	d10a      	bne.n	8005a42 <dir_find+0x98>
 8005a2c:	687a      	ldr	r2, [r7, #4]
 8005a2e:	2386      	movs	r3, #134	; 0x86
 8005a30:	009b      	lsls	r3, r3, #2
 8005a32:	58d1      	ldr	r1, [r2, r3]
 8005a34:	693b      	ldr	r3, [r7, #16]
 8005a36:	220b      	movs	r2, #11
 8005a38:	0018      	movs	r0, r3
 8005a3a:	f7fe fe63 	bl	8004704 <mem_cmp>
 8005a3e:	1e03      	subs	r3, r0, #0
 8005a40:	d00f      	beq.n	8005a62 <dir_find+0xb8>
			break;
#endif
		res = dir_next(dp, 0);		/* Next entry */
 8005a42:	2517      	movs	r5, #23
 8005a44:	197c      	adds	r4, r7, r5
 8005a46:	687b      	ldr	r3, [r7, #4]
 8005a48:	2100      	movs	r1, #0
 8005a4a:	0018      	movs	r0, r3
 8005a4c:	f7ff fde4 	bl	8005618 <dir_next>
 8005a50:	0003      	movs	r3, r0
 8005a52:	7023      	strb	r3, [r4, #0]
	} while (res == FR_OK);
 8005a54:	197b      	adds	r3, r7, r5
 8005a56:	781b      	ldrb	r3, [r3, #0]
 8005a58:	2b00      	cmp	r3, #0
 8005a5a:	d0ba      	beq.n	80059d2 <dir_find+0x28>
 8005a5c:	e002      	b.n	8005a64 <dir_find+0xba>
		if (res != FR_OK) break;
 8005a5e:	46c0      	nop			; (mov r8, r8)
 8005a60:	e000      	b.n	8005a64 <dir_find+0xba>
			break;
 8005a62:	46c0      	nop			; (mov r8, r8)

	return res;
 8005a64:	2317      	movs	r3, #23
 8005a66:	18fb      	adds	r3, r7, r3
 8005a68:	781b      	ldrb	r3, [r3, #0]
}
 8005a6a:	0018      	movs	r0, r3
 8005a6c:	46bd      	mov	sp, r7
 8005a6e:	b006      	add	sp, #24
 8005a70:	bdb0      	pop	{r4, r5, r7, pc}

08005a72 <dir_register>:
#if !_FS_READONLY
static
FRESULT dir_register (	/* FR_OK:Successful, FR_DENIED:No free entry or too many SFN collision, FR_DISK_ERR:Disk error */
	DIR* dp				/* Target directory with object name to be created */
)
{
 8005a72:	b5b0      	push	{r4, r5, r7, lr}
 8005a74:	b084      	sub	sp, #16
 8005a76:	af00      	add	r7, sp, #0
 8005a78:	6078      	str	r0, [r7, #4]
				res = dir_next(dp, 0);	/* Next entry */
			} while (res == FR_OK && --nent);
		}
	}
#else	/* Non LFN configuration */
	res = dir_alloc(dp, 1);		/* Allocate an entry for SFN */
 8005a7a:	250f      	movs	r5, #15
 8005a7c:	197c      	adds	r4, r7, r5
 8005a7e:	687b      	ldr	r3, [r7, #4]
 8005a80:	2101      	movs	r1, #1
 8005a82:	0018      	movs	r0, r3
 8005a84:	f7ff fee2 	bl	800584c <dir_alloc>
 8005a88:	0003      	movs	r3, r0
 8005a8a:	7023      	strb	r3, [r4, #0]
#endif

	if (res == FR_OK) {				/* Set SFN entry */
 8005a8c:	0029      	movs	r1, r5
 8005a8e:	187b      	adds	r3, r7, r1
 8005a90:	781b      	ldrb	r3, [r3, #0]
 8005a92:	2b00      	cmp	r3, #0
 8005a94:	d12f      	bne.n	8005af6 <dir_register+0x84>
		res = move_window(dp->fs, dp->sect);
 8005a96:	687a      	ldr	r2, [r7, #4]
 8005a98:	2380      	movs	r3, #128	; 0x80
 8005a9a:	009b      	lsls	r3, r3, #2
 8005a9c:	58d0      	ldr	r0, [r2, r3]
 8005a9e:	687a      	ldr	r2, [r7, #4]
 8005aa0:	2384      	movs	r3, #132	; 0x84
 8005aa2:	009b      	lsls	r3, r3, #2
 8005aa4:	58d3      	ldr	r3, [r2, r3]
 8005aa6:	000d      	movs	r5, r1
 8005aa8:	187c      	adds	r4, r7, r1
 8005aaa:	0019      	movs	r1, r3
 8005aac:	f7ff f880 	bl	8004bb0 <move_window>
 8005ab0:	0003      	movs	r3, r0
 8005ab2:	7023      	strb	r3, [r4, #0]
		if (res == FR_OK) {
 8005ab4:	197b      	adds	r3, r7, r5
 8005ab6:	781b      	ldrb	r3, [r3, #0]
 8005ab8:	2b00      	cmp	r3, #0
 8005aba:	d11c      	bne.n	8005af6 <dir_register+0x84>
			mem_set(dp->dir, 0, SZ_DIRE);	/* Clean the entry */
 8005abc:	687a      	ldr	r2, [r7, #4]
 8005abe:	2385      	movs	r3, #133	; 0x85
 8005ac0:	009b      	lsls	r3, r3, #2
 8005ac2:	58d3      	ldr	r3, [r2, r3]
 8005ac4:	2220      	movs	r2, #32
 8005ac6:	2100      	movs	r1, #0
 8005ac8:	0018      	movs	r0, r3
 8005aca:	f7fe fe02 	bl	80046d2 <mem_set>
			mem_cpy(dp->dir, dp->fn, 11);	/* Put SFN */
 8005ace:	687a      	ldr	r2, [r7, #4]
 8005ad0:	2385      	movs	r3, #133	; 0x85
 8005ad2:	009b      	lsls	r3, r3, #2
 8005ad4:	58d0      	ldr	r0, [r2, r3]
 8005ad6:	687a      	ldr	r2, [r7, #4]
 8005ad8:	2386      	movs	r3, #134	; 0x86
 8005ada:	009b      	lsls	r3, r3, #2
 8005adc:	58d3      	ldr	r3, [r2, r3]
 8005ade:	220b      	movs	r2, #11
 8005ae0:	0019      	movs	r1, r3
 8005ae2:	f7fe fdd9 	bl	8004698 <mem_cpy>
#if _USE_LFN
			dp->dir[DIR_NTres] = dp->fn[NSFLAG] & (NS_BODY | NS_EXT);	/* Put NT flag */
#endif
			dp->fs->wflag = 1;
 8005ae6:	687a      	ldr	r2, [r7, #4]
 8005ae8:	2380      	movs	r3, #128	; 0x80
 8005aea:	009b      	lsls	r3, r3, #2
 8005aec:	58d2      	ldr	r2, [r2, r3]
 8005aee:	2381      	movs	r3, #129	; 0x81
 8005af0:	009b      	lsls	r3, r3, #2
 8005af2:	2101      	movs	r1, #1
 8005af4:	54d1      	strb	r1, [r2, r3]
		}
	}

	return res;
 8005af6:	230f      	movs	r3, #15
 8005af8:	18fb      	adds	r3, r7, r3
 8005afa:	781b      	ldrb	r3, [r3, #0]
}
 8005afc:	0018      	movs	r0, r3
 8005afe:	46bd      	mov	sp, r7
 8005b00:	b004      	add	sp, #16
 8005b02:	bdb0      	pop	{r4, r5, r7, pc}

08005b04 <create_name>:
static
FRESULT create_name (
	DIR* dp,			/* Pointer to the directory object */
	const TCHAR** path	/* Pointer to pointer to the segment in the path string */
)
{
 8005b04:	b580      	push	{r7, lr}
 8005b06:	b088      	sub	sp, #32
 8005b08:	af00      	add	r7, sp, #0
 8005b0a:	6078      	str	r0, [r7, #4]
 8005b0c:	6039      	str	r1, [r7, #0]
	BYTE b, c, d, *sfn;
	UINT ni, si, i;
	const char *p;

	/* Create file name in directory form */
	for (p = *path; *p == '/' || *p == '\\'; p++) ;	/* Strip duplicated separator */
 8005b0e:	683b      	ldr	r3, [r7, #0]
 8005b10:	681b      	ldr	r3, [r3, #0]
 8005b12:	60fb      	str	r3, [r7, #12]
 8005b14:	e002      	b.n	8005b1c <create_name+0x18>
 8005b16:	68fb      	ldr	r3, [r7, #12]
 8005b18:	3301      	adds	r3, #1
 8005b1a:	60fb      	str	r3, [r7, #12]
 8005b1c:	68fb      	ldr	r3, [r7, #12]
 8005b1e:	781b      	ldrb	r3, [r3, #0]
 8005b20:	2b2f      	cmp	r3, #47	; 0x2f
 8005b22:	d0f8      	beq.n	8005b16 <create_name+0x12>
 8005b24:	68fb      	ldr	r3, [r7, #12]
 8005b26:	781b      	ldrb	r3, [r3, #0]
 8005b28:	2b5c      	cmp	r3, #92	; 0x5c
 8005b2a:	d0f4      	beq.n	8005b16 <create_name+0x12>
	sfn = dp->fn;
 8005b2c:	687a      	ldr	r2, [r7, #4]
 8005b2e:	2386      	movs	r3, #134	; 0x86
 8005b30:	009b      	lsls	r3, r3, #2
 8005b32:	58d3      	ldr	r3, [r2, r3]
 8005b34:	60bb      	str	r3, [r7, #8]
	mem_set(sfn, ' ', 11);
 8005b36:	68bb      	ldr	r3, [r7, #8]
 8005b38:	220b      	movs	r2, #11
 8005b3a:	2120      	movs	r1, #32
 8005b3c:	0018      	movs	r0, r3
 8005b3e:	f7fe fdc8 	bl	80046d2 <mem_set>
	si = i = b = 0; ni = 8;
 8005b42:	231f      	movs	r3, #31
 8005b44:	18fb      	adds	r3, r7, r3
 8005b46:	2200      	movs	r2, #0
 8005b48:	701a      	strb	r2, [r3, #0]
 8005b4a:	2300      	movs	r3, #0
 8005b4c:	613b      	str	r3, [r7, #16]
 8005b4e:	693b      	ldr	r3, [r7, #16]
 8005b50:	617b      	str	r3, [r7, #20]
 8005b52:	2308      	movs	r3, #8
 8005b54:	61bb      	str	r3, [r7, #24]
		sfn[NSFLAG] = (c <= ' ') ? NS_LAST | NS_DOT : NS_DOT;	/* Set last segment flag if end of path */
		return FR_OK;
	}
#endif
	for (;;) {
		c = (BYTE)p[si++];
 8005b56:	697b      	ldr	r3, [r7, #20]
 8005b58:	1c5a      	adds	r2, r3, #1
 8005b5a:	617a      	str	r2, [r7, #20]
 8005b5c:	68fa      	ldr	r2, [r7, #12]
 8005b5e:	18d2      	adds	r2, r2, r3
 8005b60:	211e      	movs	r1, #30
 8005b62:	187b      	adds	r3, r7, r1
 8005b64:	7812      	ldrb	r2, [r2, #0]
 8005b66:	701a      	strb	r2, [r3, #0]
		if (c <= ' ' || c == '/' || c == '\\') break;	/* Break on end of segment */
 8005b68:	000a      	movs	r2, r1
 8005b6a:	18bb      	adds	r3, r7, r2
 8005b6c:	781b      	ldrb	r3, [r3, #0]
 8005b6e:	2b20      	cmp	r3, #32
 8005b70:	d800      	bhi.n	8005b74 <create_name+0x70>
 8005b72:	e077      	b.n	8005c64 <create_name+0x160>
 8005b74:	18bb      	adds	r3, r7, r2
 8005b76:	781b      	ldrb	r3, [r3, #0]
 8005b78:	2b2f      	cmp	r3, #47	; 0x2f
 8005b7a:	d100      	bne.n	8005b7e <create_name+0x7a>
 8005b7c:	e072      	b.n	8005c64 <create_name+0x160>
 8005b7e:	18bb      	adds	r3, r7, r2
 8005b80:	781b      	ldrb	r3, [r3, #0]
 8005b82:	2b5c      	cmp	r3, #92	; 0x5c
 8005b84:	d100      	bne.n	8005b88 <create_name+0x84>
 8005b86:	e06d      	b.n	8005c64 <create_name+0x160>
		if (c == '.' || i >= ni) {
 8005b88:	18bb      	adds	r3, r7, r2
 8005b8a:	781b      	ldrb	r3, [r3, #0]
 8005b8c:	2b2e      	cmp	r3, #46	; 0x2e
 8005b8e:	d003      	beq.n	8005b98 <create_name+0x94>
 8005b90:	693a      	ldr	r2, [r7, #16]
 8005b92:	69bb      	ldr	r3, [r7, #24]
 8005b94:	429a      	cmp	r2, r3
 8005b96:	d314      	bcc.n	8005bc2 <create_name+0xbe>
			if (ni != 8 || c != '.') return FR_INVALID_NAME;
 8005b98:	69bb      	ldr	r3, [r7, #24]
 8005b9a:	2b08      	cmp	r3, #8
 8005b9c:	d104      	bne.n	8005ba8 <create_name+0xa4>
 8005b9e:	231e      	movs	r3, #30
 8005ba0:	18fb      	adds	r3, r7, r3
 8005ba2:	781b      	ldrb	r3, [r3, #0]
 8005ba4:	2b2e      	cmp	r3, #46	; 0x2e
 8005ba6:	d001      	beq.n	8005bac <create_name+0xa8>
 8005ba8:	2306      	movs	r3, #6
 8005baa:	e0a3      	b.n	8005cf4 <create_name+0x1f0>
			i = 8; ni = 11;
 8005bac:	2308      	movs	r3, #8
 8005bae:	613b      	str	r3, [r7, #16]
 8005bb0:	230b      	movs	r3, #11
 8005bb2:	61bb      	str	r3, [r7, #24]
			b <<= 2; continue;
 8005bb4:	221f      	movs	r2, #31
 8005bb6:	18bb      	adds	r3, r7, r2
 8005bb8:	18ba      	adds	r2, r7, r2
 8005bba:	7812      	ldrb	r2, [r2, #0]
 8005bbc:	0092      	lsls	r2, r2, #2
 8005bbe:	701a      	strb	r2, [r3, #0]
 8005bc0:	e04f      	b.n	8005c62 <create_name+0x15e>
		}
		if (c >= 0x80) {				/* Extended character? */
 8005bc2:	201e      	movs	r0, #30
 8005bc4:	183b      	adds	r3, r7, r0
 8005bc6:	781b      	ldrb	r3, [r3, #0]
 8005bc8:	b25b      	sxtb	r3, r3
 8005bca:	2b00      	cmp	r3, #0
 8005bcc:	da0e      	bge.n	8005bec <create_name+0xe8>
			b |= 3;						/* Eliminate NT flag */
 8005bce:	221f      	movs	r2, #31
 8005bd0:	18bb      	adds	r3, r7, r2
 8005bd2:	18ba      	adds	r2, r7, r2
 8005bd4:	7812      	ldrb	r2, [r2, #0]
 8005bd6:	2103      	movs	r1, #3
 8005bd8:	430a      	orrs	r2, r1
 8005bda:	701a      	strb	r2, [r3, #0]
#ifdef _EXCVT
			c = ExCvt[c - 0x80];		/* To upper extended characters (SBCS cfg) */
 8005bdc:	183b      	adds	r3, r7, r0
 8005bde:	781b      	ldrb	r3, [r3, #0]
 8005be0:	3b80      	subs	r3, #128	; 0x80
 8005be2:	001a      	movs	r2, r3
 8005be4:	183b      	adds	r3, r7, r0
 8005be6:	4945      	ldr	r1, [pc, #276]	; (8005cfc <create_name+0x1f8>)
 8005be8:	5c8a      	ldrb	r2, [r1, r2]
 8005bea:	701a      	strb	r2, [r3, #0]
			if (!IsDBCS2(d) || i >= ni - 1)	/* Reject invalid DBC */
				return FR_INVALID_NAME;
			sfn[i++] = c;
			sfn[i++] = d;
		} else {						/* SBC */
			if (chk_chr("\"*+,:;<=>\?[]|\x7F", c))	/* Reject illegal chrs for SFN */
 8005bec:	231e      	movs	r3, #30
 8005bee:	18fb      	adds	r3, r7, r3
 8005bf0:	781a      	ldrb	r2, [r3, #0]
 8005bf2:	4b43      	ldr	r3, [pc, #268]	; (8005d00 <create_name+0x1fc>)
 8005bf4:	0011      	movs	r1, r2
 8005bf6:	0018      	movs	r0, r3
 8005bf8:	f7fe fda9 	bl	800474e <chk_chr>
 8005bfc:	1e03      	subs	r3, r0, #0
 8005bfe:	d001      	beq.n	8005c04 <create_name+0x100>
				return FR_INVALID_NAME;
 8005c00:	2306      	movs	r3, #6
 8005c02:	e077      	b.n	8005cf4 <create_name+0x1f0>
			if (IsUpper(c)) {			/* ASCII large capital? */
 8005c04:	221e      	movs	r2, #30
 8005c06:	18bb      	adds	r3, r7, r2
 8005c08:	781b      	ldrb	r3, [r3, #0]
 8005c0a:	2b40      	cmp	r3, #64	; 0x40
 8005c0c:	d90b      	bls.n	8005c26 <create_name+0x122>
 8005c0e:	18bb      	adds	r3, r7, r2
 8005c10:	781b      	ldrb	r3, [r3, #0]
 8005c12:	2b5a      	cmp	r3, #90	; 0x5a
 8005c14:	d807      	bhi.n	8005c26 <create_name+0x122>
				b |= 2;
 8005c16:	221f      	movs	r2, #31
 8005c18:	18bb      	adds	r3, r7, r2
 8005c1a:	18ba      	adds	r2, r7, r2
 8005c1c:	7812      	ldrb	r2, [r2, #0]
 8005c1e:	2102      	movs	r1, #2
 8005c20:	430a      	orrs	r2, r1
 8005c22:	701a      	strb	r2, [r3, #0]
 8005c24:	e014      	b.n	8005c50 <create_name+0x14c>
			} else {
				if (IsLower(c)) {		/* ASCII small capital? */
 8005c26:	201e      	movs	r0, #30
 8005c28:	183b      	adds	r3, r7, r0
 8005c2a:	781b      	ldrb	r3, [r3, #0]
 8005c2c:	2b60      	cmp	r3, #96	; 0x60
 8005c2e:	d90f      	bls.n	8005c50 <create_name+0x14c>
 8005c30:	183b      	adds	r3, r7, r0
 8005c32:	781b      	ldrb	r3, [r3, #0]
 8005c34:	2b7a      	cmp	r3, #122	; 0x7a
 8005c36:	d80b      	bhi.n	8005c50 <create_name+0x14c>
					b |= 1; c -= 0x20;
 8005c38:	221f      	movs	r2, #31
 8005c3a:	18bb      	adds	r3, r7, r2
 8005c3c:	18ba      	adds	r2, r7, r2
 8005c3e:	7812      	ldrb	r2, [r2, #0]
 8005c40:	2101      	movs	r1, #1
 8005c42:	430a      	orrs	r2, r1
 8005c44:	701a      	strb	r2, [r3, #0]
 8005c46:	183b      	adds	r3, r7, r0
 8005c48:	183a      	adds	r2, r7, r0
 8005c4a:	7812      	ldrb	r2, [r2, #0]
 8005c4c:	3a20      	subs	r2, #32
 8005c4e:	701a      	strb	r2, [r3, #0]
				}
			}
			sfn[i++] = c;
 8005c50:	693b      	ldr	r3, [r7, #16]
 8005c52:	1c5a      	adds	r2, r3, #1
 8005c54:	613a      	str	r2, [r7, #16]
 8005c56:	68ba      	ldr	r2, [r7, #8]
 8005c58:	18d3      	adds	r3, r2, r3
 8005c5a:	221e      	movs	r2, #30
 8005c5c:	18ba      	adds	r2, r7, r2
 8005c5e:	7812      	ldrb	r2, [r2, #0]
 8005c60:	701a      	strb	r2, [r3, #0]
		c = (BYTE)p[si++];
 8005c62:	e778      	b.n	8005b56 <create_name+0x52>
		}
	}
	*path = &p[si];						/* Return pointer to the next segment */
 8005c64:	68fa      	ldr	r2, [r7, #12]
 8005c66:	697b      	ldr	r3, [r7, #20]
 8005c68:	18d2      	adds	r2, r2, r3
 8005c6a:	683b      	ldr	r3, [r7, #0]
 8005c6c:	601a      	str	r2, [r3, #0]
	c = (c <= ' ') ? NS_LAST : 0;		/* Set last segment flag if end of path */
 8005c6e:	231e      	movs	r3, #30
 8005c70:	18fb      	adds	r3, r7, r3
 8005c72:	781b      	ldrb	r3, [r3, #0]
 8005c74:	2b20      	cmp	r3, #32
 8005c76:	d801      	bhi.n	8005c7c <create_name+0x178>
 8005c78:	2204      	movs	r2, #4
 8005c7a:	e000      	b.n	8005c7e <create_name+0x17a>
 8005c7c:	2200      	movs	r2, #0
 8005c7e:	231e      	movs	r3, #30
 8005c80:	18fb      	adds	r3, r7, r3
 8005c82:	701a      	strb	r2, [r3, #0]

	if (!i) return FR_INVALID_NAME;		/* Reject nul string */
 8005c84:	693b      	ldr	r3, [r7, #16]
 8005c86:	2b00      	cmp	r3, #0
 8005c88:	d101      	bne.n	8005c8e <create_name+0x18a>
 8005c8a:	2306      	movs	r3, #6
 8005c8c:	e032      	b.n	8005cf4 <create_name+0x1f0>
	if (sfn[0] == DDEM) sfn[0] = RDDEM;	/* When first character collides with DDEM, replace it with RDDEM */
 8005c8e:	68bb      	ldr	r3, [r7, #8]
 8005c90:	781b      	ldrb	r3, [r3, #0]
 8005c92:	2be5      	cmp	r3, #229	; 0xe5
 8005c94:	d102      	bne.n	8005c9c <create_name+0x198>
 8005c96:	68bb      	ldr	r3, [r7, #8]
 8005c98:	2205      	movs	r2, #5
 8005c9a:	701a      	strb	r2, [r3, #0]

	if (ni == 8) b <<= 2;
 8005c9c:	69bb      	ldr	r3, [r7, #24]
 8005c9e:	2b08      	cmp	r3, #8
 8005ca0:	d105      	bne.n	8005cae <create_name+0x1aa>
 8005ca2:	221f      	movs	r2, #31
 8005ca4:	18bb      	adds	r3, r7, r2
 8005ca6:	18ba      	adds	r2, r7, r2
 8005ca8:	7812      	ldrb	r2, [r2, #0]
 8005caa:	0092      	lsls	r2, r2, #2
 8005cac:	701a      	strb	r2, [r3, #0]
	if ((b & 0x03) == 0x01) c |= NS_EXT;	/* NT flag (Name extension has only small capital) */
 8005cae:	231f      	movs	r3, #31
 8005cb0:	18fb      	adds	r3, r7, r3
 8005cb2:	781b      	ldrb	r3, [r3, #0]
 8005cb4:	2203      	movs	r2, #3
 8005cb6:	4013      	ands	r3, r2
 8005cb8:	2b01      	cmp	r3, #1
 8005cba:	d106      	bne.n	8005cca <create_name+0x1c6>
 8005cbc:	221e      	movs	r2, #30
 8005cbe:	18bb      	adds	r3, r7, r2
 8005cc0:	18ba      	adds	r2, r7, r2
 8005cc2:	7812      	ldrb	r2, [r2, #0]
 8005cc4:	2110      	movs	r1, #16
 8005cc6:	430a      	orrs	r2, r1
 8005cc8:	701a      	strb	r2, [r3, #0]
	if ((b & 0x0C) == 0x04) c |= NS_BODY;	/* NT flag (Name body has only small capital) */
 8005cca:	231f      	movs	r3, #31
 8005ccc:	18fb      	adds	r3, r7, r3
 8005cce:	781b      	ldrb	r3, [r3, #0]
 8005cd0:	220c      	movs	r2, #12
 8005cd2:	4013      	ands	r3, r2
 8005cd4:	2b04      	cmp	r3, #4
 8005cd6:	d106      	bne.n	8005ce6 <create_name+0x1e2>
 8005cd8:	221e      	movs	r2, #30
 8005cda:	18bb      	adds	r3, r7, r2
 8005cdc:	18ba      	adds	r2, r7, r2
 8005cde:	7812      	ldrb	r2, [r2, #0]
 8005ce0:	2108      	movs	r1, #8
 8005ce2:	430a      	orrs	r2, r1
 8005ce4:	701a      	strb	r2, [r3, #0]

	sfn[NSFLAG] = c;		/* Store NT flag, File name is created */
 8005ce6:	68bb      	ldr	r3, [r7, #8]
 8005ce8:	330b      	adds	r3, #11
 8005cea:	221e      	movs	r2, #30
 8005cec:	18ba      	adds	r2, r7, r2
 8005cee:	7812      	ldrb	r2, [r2, #0]
 8005cf0:	701a      	strb	r2, [r3, #0]

	return FR_OK;
 8005cf2:	2300      	movs	r3, #0
#endif
}
 8005cf4:	0018      	movs	r0, r3
 8005cf6:	46bd      	mov	sp, r7
 8005cf8:	b008      	add	sp, #32
 8005cfa:	bd80      	pop	{r7, pc}
 8005cfc:	080089a8 	.word	0x080089a8
 8005d00:	08008814 	.word	0x08008814

08005d04 <follow_path>:
static
FRESULT follow_path (	/* FR_OK(0): successful, !=0: error code */
	DIR* dp,			/* Directory object to return last directory and found object */
	const TCHAR* path	/* Full-path string to find a file or directory */
)
{
 8005d04:	b5b0      	push	{r4, r5, r7, lr}
 8005d06:	b084      	sub	sp, #16
 8005d08:	af00      	add	r7, sp, #0
 8005d0a:	6078      	str	r0, [r7, #4]
 8005d0c:	6039      	str	r1, [r7, #0]
		path++;	dp->sclust = 0;				/* Strip it and start from the root directory */
	} else {								/* No heading separator */
		dp->sclust = dp->fs->cdir;			/* Start from the current directory */
	}
#else
	if (*path == '/' || *path == '\\')		/* Strip heading separator if exist */
 8005d0e:	683b      	ldr	r3, [r7, #0]
 8005d10:	781b      	ldrb	r3, [r3, #0]
 8005d12:	2b2f      	cmp	r3, #47	; 0x2f
 8005d14:	d003      	beq.n	8005d1e <follow_path+0x1a>
 8005d16:	683b      	ldr	r3, [r7, #0]
 8005d18:	781b      	ldrb	r3, [r3, #0]
 8005d1a:	2b5c      	cmp	r3, #92	; 0x5c
 8005d1c:	d102      	bne.n	8005d24 <follow_path+0x20>
		path++;
 8005d1e:	683b      	ldr	r3, [r7, #0]
 8005d20:	3301      	adds	r3, #1
 8005d22:	603b      	str	r3, [r7, #0]
	dp->sclust = 0;							/* Always start from the root directory */
 8005d24:	687a      	ldr	r2, [r7, #4]
 8005d26:	2382      	movs	r3, #130	; 0x82
 8005d28:	009b      	lsls	r3, r3, #2
 8005d2a:	2100      	movs	r1, #0
 8005d2c:	50d1      	str	r1, [r2, r3]
#endif

	if ((UINT)*path < ' ') {				/* Null path name is the origin directory itself */
 8005d2e:	683b      	ldr	r3, [r7, #0]
 8005d30:	781b      	ldrb	r3, [r3, #0]
 8005d32:	2b1f      	cmp	r3, #31
 8005d34:	d80e      	bhi.n	8005d54 <follow_path+0x50>
		res = dir_sdi(dp, 0);
 8005d36:	230f      	movs	r3, #15
 8005d38:	18fc      	adds	r4, r7, r3
 8005d3a:	687b      	ldr	r3, [r7, #4]
 8005d3c:	2100      	movs	r1, #0
 8005d3e:	0018      	movs	r0, r3
 8005d40:	f7ff fbba 	bl	80054b8 <dir_sdi>
 8005d44:	0003      	movs	r3, r0
 8005d46:	7023      	strb	r3, [r4, #0]
		dp->dir = 0;
 8005d48:	687a      	ldr	r2, [r7, #4]
 8005d4a:	2385      	movs	r3, #133	; 0x85
 8005d4c:	009b      	lsls	r3, r3, #2
 8005d4e:	2100      	movs	r1, #0
 8005d50:	50d1      	str	r1, [r2, r3]
 8005d52:	e058      	b.n	8005e06 <follow_path+0x102>
	} else {								/* Follow path */
		for (;;) {
			res = create_name(dp, &path);	/* Get a segment name of the path */
 8005d54:	250f      	movs	r5, #15
 8005d56:	197c      	adds	r4, r7, r5
 8005d58:	003a      	movs	r2, r7
 8005d5a:	687b      	ldr	r3, [r7, #4]
 8005d5c:	0011      	movs	r1, r2
 8005d5e:	0018      	movs	r0, r3
 8005d60:	f7ff fed0 	bl	8005b04 <create_name>
 8005d64:	0003      	movs	r3, r0
 8005d66:	7023      	strb	r3, [r4, #0]
			if (res != FR_OK) break;
 8005d68:	197b      	adds	r3, r7, r5
 8005d6a:	781b      	ldrb	r3, [r3, #0]
 8005d6c:	2b00      	cmp	r3, #0
 8005d6e:	d145      	bne.n	8005dfc <follow_path+0xf8>
			res = dir_find(dp);				/* Find an object with the sagment name */
 8005d70:	197c      	adds	r4, r7, r5
 8005d72:	687b      	ldr	r3, [r7, #4]
 8005d74:	0018      	movs	r0, r3
 8005d76:	f7ff fe18 	bl	80059aa <dir_find>
 8005d7a:	0003      	movs	r3, r0
 8005d7c:	7023      	strb	r3, [r4, #0]
			ns = dp->fn[NSFLAG];
 8005d7e:	687a      	ldr	r2, [r7, #4]
 8005d80:	2386      	movs	r3, #134	; 0x86
 8005d82:	009b      	lsls	r3, r3, #2
 8005d84:	58d2      	ldr	r2, [r2, r3]
 8005d86:	210e      	movs	r1, #14
 8005d88:	187b      	adds	r3, r7, r1
 8005d8a:	7ad2      	ldrb	r2, [r2, #11]
 8005d8c:	701a      	strb	r2, [r3, #0]
			if (res != FR_OK) {				/* Failed to find the object */
 8005d8e:	197b      	adds	r3, r7, r5
 8005d90:	781b      	ldrb	r3, [r3, #0]
 8005d92:	2b00      	cmp	r3, #0
 8005d94:	d00c      	beq.n	8005db0 <follow_path+0xac>
				if (res == FR_NO_FILE) {	/* Object is not found */
 8005d96:	197b      	adds	r3, r7, r5
 8005d98:	781b      	ldrb	r3, [r3, #0]
 8005d9a:	2b04      	cmp	r3, #4
 8005d9c:	d130      	bne.n	8005e00 <follow_path+0xfc>
					if (_FS_RPATH && (ns & NS_DOT)) {	/* If dot entry is not exist, */
						dp->sclust = 0; dp->dir = 0;	/* it is the root directory and stay there */
						if (!(ns & NS_LAST)) continue;	/* Continue to follow if not last segment */
						res = FR_OK;					/* Ended at the root directroy. Function completed. */
					} else {							/* Could not find the object */
						if (!(ns & NS_LAST)) res = FR_NO_PATH;	/* Adjust error code if not last segment */
 8005d9e:	187b      	adds	r3, r7, r1
 8005da0:	781b      	ldrb	r3, [r3, #0]
 8005da2:	2204      	movs	r2, #4
 8005da4:	4013      	ands	r3, r2
 8005da6:	d12b      	bne.n	8005e00 <follow_path+0xfc>
 8005da8:	197b      	adds	r3, r7, r5
 8005daa:	2205      	movs	r2, #5
 8005dac:	701a      	strb	r2, [r3, #0]
					}
				}
				break;
 8005dae:	e027      	b.n	8005e00 <follow_path+0xfc>
			}
			if (ns & NS_LAST) break;			/* Last segment matched. Function completed. */
 8005db0:	230e      	movs	r3, #14
 8005db2:	18fb      	adds	r3, r7, r3
 8005db4:	781b      	ldrb	r3, [r3, #0]
 8005db6:	2204      	movs	r2, #4
 8005db8:	4013      	ands	r3, r2
 8005dba:	d123      	bne.n	8005e04 <follow_path+0x100>
			dir = dp->dir;						/* Follow the sub-directory */
 8005dbc:	687a      	ldr	r2, [r7, #4]
 8005dbe:	2385      	movs	r3, #133	; 0x85
 8005dc0:	009b      	lsls	r3, r3, #2
 8005dc2:	58d3      	ldr	r3, [r2, r3]
 8005dc4:	60bb      	str	r3, [r7, #8]
			if (!(dir[DIR_Attr] & AM_DIR)) {	/* It is not a sub-directory and cannot follow */
 8005dc6:	68bb      	ldr	r3, [r7, #8]
 8005dc8:	330b      	adds	r3, #11
 8005dca:	781b      	ldrb	r3, [r3, #0]
 8005dcc:	001a      	movs	r2, r3
 8005dce:	2310      	movs	r3, #16
 8005dd0:	4013      	ands	r3, r2
 8005dd2:	d104      	bne.n	8005dde <follow_path+0xda>
				res = FR_NO_PATH; break;
 8005dd4:	230f      	movs	r3, #15
 8005dd6:	18fb      	adds	r3, r7, r3
 8005dd8:	2205      	movs	r2, #5
 8005dda:	701a      	strb	r2, [r3, #0]
 8005ddc:	e013      	b.n	8005e06 <follow_path+0x102>
			}
			dp->sclust = ld_clust(dp->fs, dir);
 8005dde:	687a      	ldr	r2, [r7, #4]
 8005de0:	2380      	movs	r3, #128	; 0x80
 8005de2:	009b      	lsls	r3, r3, #2
 8005de4:	58d3      	ldr	r3, [r2, r3]
 8005de6:	68ba      	ldr	r2, [r7, #8]
 8005de8:	0011      	movs	r1, r2
 8005dea:	0018      	movs	r0, r3
 8005dec:	f7ff fd8b 	bl	8005906 <ld_clust>
 8005df0:	0001      	movs	r1, r0
 8005df2:	687a      	ldr	r2, [r7, #4]
 8005df4:	2382      	movs	r3, #130	; 0x82
 8005df6:	009b      	lsls	r3, r3, #2
 8005df8:	50d1      	str	r1, [r2, r3]
			res = create_name(dp, &path);	/* Get a segment name of the path */
 8005dfa:	e7ab      	b.n	8005d54 <follow_path+0x50>
			if (res != FR_OK) break;
 8005dfc:	46c0      	nop			; (mov r8, r8)
 8005dfe:	e002      	b.n	8005e06 <follow_path+0x102>
				break;
 8005e00:	46c0      	nop			; (mov r8, r8)
 8005e02:	e000      	b.n	8005e06 <follow_path+0x102>
			if (ns & NS_LAST) break;			/* Last segment matched. Function completed. */
 8005e04:	46c0      	nop			; (mov r8, r8)
		}
	}

	return res;
 8005e06:	230f      	movs	r3, #15
 8005e08:	18fb      	adds	r3, r7, r3
 8005e0a:	781b      	ldrb	r3, [r3, #0]
}
 8005e0c:	0018      	movs	r0, r3
 8005e0e:	46bd      	mov	sp, r7
 8005e10:	b004      	add	sp, #16
 8005e12:	bdb0      	pop	{r4, r5, r7, pc}

08005e14 <get_ldnumber>:

static
int get_ldnumber (		/* Returns logical drive number (-1:invalid drive) */
	const TCHAR** path	/* Pointer to pointer to the path name */
)
{
 8005e14:	b580      	push	{r7, lr}
 8005e16:	b086      	sub	sp, #24
 8005e18:	af00      	add	r7, sp, #0
 8005e1a:	6078      	str	r0, [r7, #4]
	const TCHAR *tp, *tt;
	UINT i;
	int vol = -1;
 8005e1c:	2301      	movs	r3, #1
 8005e1e:	425b      	negs	r3, r3
 8005e20:	613b      	str	r3, [r7, #16]
	char c;
	TCHAR tc;
#endif


	if (*path) {	/* If the pointer is not a null */
 8005e22:	687b      	ldr	r3, [r7, #4]
 8005e24:	681b      	ldr	r3, [r3, #0]
 8005e26:	2b00      	cmp	r3, #0
 8005e28:	d031      	beq.n	8005e8e <get_ldnumber+0x7a>
		for (tt = *path; (UINT)*tt >= (_USE_LFN ? ' ' : '!') && *tt != ':'; tt++) ;	/* Find ':' in the path */
 8005e2a:	687b      	ldr	r3, [r7, #4]
 8005e2c:	681b      	ldr	r3, [r3, #0]
 8005e2e:	617b      	str	r3, [r7, #20]
 8005e30:	e002      	b.n	8005e38 <get_ldnumber+0x24>
 8005e32:	697b      	ldr	r3, [r7, #20]
 8005e34:	3301      	adds	r3, #1
 8005e36:	617b      	str	r3, [r7, #20]
 8005e38:	697b      	ldr	r3, [r7, #20]
 8005e3a:	781b      	ldrb	r3, [r3, #0]
 8005e3c:	2b20      	cmp	r3, #32
 8005e3e:	d903      	bls.n	8005e48 <get_ldnumber+0x34>
 8005e40:	697b      	ldr	r3, [r7, #20]
 8005e42:	781b      	ldrb	r3, [r3, #0]
 8005e44:	2b3a      	cmp	r3, #58	; 0x3a
 8005e46:	d1f4      	bne.n	8005e32 <get_ldnumber+0x1e>
		if (*tt == ':') {	/* If a ':' is exist in the path name */
 8005e48:	697b      	ldr	r3, [r7, #20]
 8005e4a:	781b      	ldrb	r3, [r3, #0]
 8005e4c:	2b3a      	cmp	r3, #58	; 0x3a
 8005e4e:	d11c      	bne.n	8005e8a <get_ldnumber+0x76>
			tp = *path;
 8005e50:	687b      	ldr	r3, [r7, #4]
 8005e52:	681b      	ldr	r3, [r3, #0]
 8005e54:	60fb      	str	r3, [r7, #12]
			i = *tp++ - '0'; 
 8005e56:	68fb      	ldr	r3, [r7, #12]
 8005e58:	1c5a      	adds	r2, r3, #1
 8005e5a:	60fa      	str	r2, [r7, #12]
 8005e5c:	781b      	ldrb	r3, [r3, #0]
 8005e5e:	3b30      	subs	r3, #48	; 0x30
 8005e60:	60bb      	str	r3, [r7, #8]
			if (i < 10 && tp == tt) {	/* Is there a numeric drive id? */
 8005e62:	68bb      	ldr	r3, [r7, #8]
 8005e64:	2b09      	cmp	r3, #9
 8005e66:	d80e      	bhi.n	8005e86 <get_ldnumber+0x72>
 8005e68:	68fa      	ldr	r2, [r7, #12]
 8005e6a:	697b      	ldr	r3, [r7, #20]
 8005e6c:	429a      	cmp	r2, r3
 8005e6e:	d10a      	bne.n	8005e86 <get_ldnumber+0x72>
				if (i < _VOLUMES) {	/* If a drive id is found, get the value and strip it */
 8005e70:	68bb      	ldr	r3, [r7, #8]
 8005e72:	2b00      	cmp	r3, #0
 8005e74:	d107      	bne.n	8005e86 <get_ldnumber+0x72>
					vol = (int)i;
 8005e76:	68bb      	ldr	r3, [r7, #8]
 8005e78:	613b      	str	r3, [r7, #16]
					*path = ++tt;
 8005e7a:	697b      	ldr	r3, [r7, #20]
 8005e7c:	3301      	adds	r3, #1
 8005e7e:	617b      	str	r3, [r7, #20]
 8005e80:	687b      	ldr	r3, [r7, #4]
 8005e82:	697a      	ldr	r2, [r7, #20]
 8005e84:	601a      	str	r2, [r3, #0]
					vol = (int)i;
					*path = tt;
				}
			}
#endif
			return vol;
 8005e86:	693b      	ldr	r3, [r7, #16]
 8005e88:	e002      	b.n	8005e90 <get_ldnumber+0x7c>
		}
#if _FS_RPATH && _VOLUMES >= 2
		vol = CurrVol;	/* Current drive */
#else
		vol = 0;		/* Drive 0 */
 8005e8a:	2300      	movs	r3, #0
 8005e8c:	613b      	str	r3, [r7, #16]
#endif
	}
	return vol;
 8005e8e:	693b      	ldr	r3, [r7, #16]
}
 8005e90:	0018      	movs	r0, r3
 8005e92:	46bd      	mov	sp, r7
 8005e94:	b006      	add	sp, #24
 8005e96:	bd80      	pop	{r7, pc}

08005e98 <check_fs>:
static
BYTE check_fs (	/* 0:FAT boor sector, 1:Valid boor sector but not FAT, 2:Not a boot sector, 3:Disk error */
	FATFS* fs,	/* File system object */
	DWORD sect	/* Sector# (lba) to check if it is an FAT boot record or not */
)
{
 8005e98:	b580      	push	{r7, lr}
 8005e9a:	b082      	sub	sp, #8
 8005e9c:	af00      	add	r7, sp, #0
 8005e9e:	6078      	str	r0, [r7, #4]
 8005ea0:	6039      	str	r1, [r7, #0]
	fs->wflag = 0; fs->winsect = 0xFFFFFFFF;	/* Invaidate window */
 8005ea2:	687a      	ldr	r2, [r7, #4]
 8005ea4:	2381      	movs	r3, #129	; 0x81
 8005ea6:	009b      	lsls	r3, r3, #2
 8005ea8:	2100      	movs	r1, #0
 8005eaa:	54d1      	strb	r1, [r2, r3]
 8005eac:	687a      	ldr	r2, [r7, #4]
 8005eae:	238b      	movs	r3, #139	; 0x8b
 8005eb0:	009b      	lsls	r3, r3, #2
 8005eb2:	2101      	movs	r1, #1
 8005eb4:	4249      	negs	r1, r1
 8005eb6:	50d1      	str	r1, [r2, r3]
	if (move_window(fs, sect) != FR_OK)			/* Load boot record */
 8005eb8:	683a      	ldr	r2, [r7, #0]
 8005eba:	687b      	ldr	r3, [r7, #4]
 8005ebc:	0011      	movs	r1, r2
 8005ebe:	0018      	movs	r0, r3
 8005ec0:	f7fe fe76 	bl	8004bb0 <move_window>
 8005ec4:	1e03      	subs	r3, r0, #0
 8005ec6:	d001      	beq.n	8005ecc <check_fs+0x34>
		return 3;
 8005ec8:	2303      	movs	r3, #3
 8005eca:	e04b      	b.n	8005f64 <check_fs+0xcc>

	if (LD_WORD(&fs->win.d8[BS_55AA]) != 0xAA55)	/* Check boot record signature (always placed at offset 510 even if the sector size is >512) */
 8005ecc:	687b      	ldr	r3, [r7, #4]
 8005ece:	33ff      	adds	r3, #255	; 0xff
 8005ed0:	33ff      	adds	r3, #255	; 0xff
 8005ed2:	3301      	adds	r3, #1
 8005ed4:	781b      	ldrb	r3, [r3, #0]
 8005ed6:	021b      	lsls	r3, r3, #8
 8005ed8:	b21a      	sxth	r2, r3
 8005eda:	6879      	ldr	r1, [r7, #4]
 8005edc:	23ff      	movs	r3, #255	; 0xff
 8005ede:	005b      	lsls	r3, r3, #1
 8005ee0:	5ccb      	ldrb	r3, [r1, r3]
 8005ee2:	b21b      	sxth	r3, r3
 8005ee4:	4313      	orrs	r3, r2
 8005ee6:	b21b      	sxth	r3, r3
 8005ee8:	4a20      	ldr	r2, [pc, #128]	; (8005f6c <check_fs+0xd4>)
 8005eea:	4293      	cmp	r3, r2
 8005eec:	d001      	beq.n	8005ef2 <check_fs+0x5a>
		return 2;
 8005eee:	2302      	movs	r3, #2
 8005ef0:	e038      	b.n	8005f64 <check_fs+0xcc>

	if ((LD_DWORD(&fs->win.d8[BS_FilSysType]) & 0xFFFFFF) == 0x544146)		/* Check "FAT" string */
 8005ef2:	687b      	ldr	r3, [r7, #4]
 8005ef4:	3336      	adds	r3, #54	; 0x36
 8005ef6:	3303      	adds	r3, #3
 8005ef8:	781b      	ldrb	r3, [r3, #0]
 8005efa:	061a      	lsls	r2, r3, #24
 8005efc:	687b      	ldr	r3, [r7, #4]
 8005efe:	3336      	adds	r3, #54	; 0x36
 8005f00:	3302      	adds	r3, #2
 8005f02:	781b      	ldrb	r3, [r3, #0]
 8005f04:	041b      	lsls	r3, r3, #16
 8005f06:	4313      	orrs	r3, r2
 8005f08:	687a      	ldr	r2, [r7, #4]
 8005f0a:	3236      	adds	r2, #54	; 0x36
 8005f0c:	3201      	adds	r2, #1
 8005f0e:	7812      	ldrb	r2, [r2, #0]
 8005f10:	0212      	lsls	r2, r2, #8
 8005f12:	4313      	orrs	r3, r2
 8005f14:	687a      	ldr	r2, [r7, #4]
 8005f16:	2136      	movs	r1, #54	; 0x36
 8005f18:	5c52      	ldrb	r2, [r2, r1]
 8005f1a:	4313      	orrs	r3, r2
 8005f1c:	021b      	lsls	r3, r3, #8
 8005f1e:	0a1b      	lsrs	r3, r3, #8
 8005f20:	4a13      	ldr	r2, [pc, #76]	; (8005f70 <check_fs+0xd8>)
 8005f22:	4293      	cmp	r3, r2
 8005f24:	d101      	bne.n	8005f2a <check_fs+0x92>
		return 0;
 8005f26:	2300      	movs	r3, #0
 8005f28:	e01c      	b.n	8005f64 <check_fs+0xcc>
	if ((LD_DWORD(&fs->win.d8[BS_FilSysType32]) & 0xFFFFFF) == 0x544146)	/* Check "FAT" string */
 8005f2a:	687b      	ldr	r3, [r7, #4]
 8005f2c:	3352      	adds	r3, #82	; 0x52
 8005f2e:	3303      	adds	r3, #3
 8005f30:	781b      	ldrb	r3, [r3, #0]
 8005f32:	061a      	lsls	r2, r3, #24
 8005f34:	687b      	ldr	r3, [r7, #4]
 8005f36:	3352      	adds	r3, #82	; 0x52
 8005f38:	3302      	adds	r3, #2
 8005f3a:	781b      	ldrb	r3, [r3, #0]
 8005f3c:	041b      	lsls	r3, r3, #16
 8005f3e:	4313      	orrs	r3, r2
 8005f40:	687a      	ldr	r2, [r7, #4]
 8005f42:	3252      	adds	r2, #82	; 0x52
 8005f44:	3201      	adds	r2, #1
 8005f46:	7812      	ldrb	r2, [r2, #0]
 8005f48:	0212      	lsls	r2, r2, #8
 8005f4a:	4313      	orrs	r3, r2
 8005f4c:	687a      	ldr	r2, [r7, #4]
 8005f4e:	2152      	movs	r1, #82	; 0x52
 8005f50:	5c52      	ldrb	r2, [r2, r1]
 8005f52:	4313      	orrs	r3, r2
 8005f54:	021b      	lsls	r3, r3, #8
 8005f56:	0a1b      	lsrs	r3, r3, #8
 8005f58:	4a05      	ldr	r2, [pc, #20]	; (8005f70 <check_fs+0xd8>)
 8005f5a:	4293      	cmp	r3, r2
 8005f5c:	d101      	bne.n	8005f62 <check_fs+0xca>
		return 0;
 8005f5e:	2300      	movs	r3, #0
 8005f60:	e000      	b.n	8005f64 <check_fs+0xcc>

	return 1;
 8005f62:	2301      	movs	r3, #1
}
 8005f64:	0018      	movs	r0, r3
 8005f66:	46bd      	mov	sp, r7
 8005f68:	b002      	add	sp, #8
 8005f6a:	bd80      	pop	{r7, pc}
 8005f6c:	ffffaa55 	.word	0xffffaa55
 8005f70:	00544146 	.word	0x00544146

08005f74 <find_volume>:
FRESULT find_volume (	/* FR_OK(0): successful, !=0: any error occurred */
	FATFS** rfs,		/* Pointer to pointer to the found file system object */
	const TCHAR** path,	/* Pointer to pointer to the path name (drive number) */
	BYTE wmode			/* !=0: Check write protection for write access */
)
{
 8005f74:	b5b0      	push	{r4, r5, r7, lr}
 8005f76:	b096      	sub	sp, #88	; 0x58
 8005f78:	af00      	add	r7, sp, #0
 8005f7a:	60f8      	str	r0, [r7, #12]
 8005f7c:	60b9      	str	r1, [r7, #8]
 8005f7e:	1dfb      	adds	r3, r7, #7
 8005f80:	701a      	strb	r2, [r3, #0]
	FATFS *fs;
	UINT i;


	/* Get logical drive number from the path name */
	*rfs = 0;
 8005f82:	68fb      	ldr	r3, [r7, #12]
 8005f84:	2200      	movs	r2, #0
 8005f86:	601a      	str	r2, [r3, #0]
	vol = get_ldnumber(path);
 8005f88:	68bb      	ldr	r3, [r7, #8]
 8005f8a:	0018      	movs	r0, r3
 8005f8c:	f7ff ff42 	bl	8005e14 <get_ldnumber>
 8005f90:	0003      	movs	r3, r0
 8005f92:	63fb      	str	r3, [r7, #60]	; 0x3c
	if (vol < 0) return FR_INVALID_DRIVE;
 8005f94:	6bfb      	ldr	r3, [r7, #60]	; 0x3c
 8005f96:	2b00      	cmp	r3, #0
 8005f98:	da01      	bge.n	8005f9e <find_volume+0x2a>
 8005f9a:	230b      	movs	r3, #11
 8005f9c:	e2f2      	b.n	8006584 <find_volume+0x610>

	/* Check if the file system object is valid or not */
	fs = FatFs[vol];					/* Get pointer to the file system object */
 8005f9e:	4bcf      	ldr	r3, [pc, #828]	; (80062dc <find_volume+0x368>)
 8005fa0:	6bfa      	ldr	r2, [r7, #60]	; 0x3c
 8005fa2:	0092      	lsls	r2, r2, #2
 8005fa4:	58d3      	ldr	r3, [r2, r3]
 8005fa6:	63bb      	str	r3, [r7, #56]	; 0x38
	if (!fs) return FR_NOT_ENABLED;		/* Is the file system object available? */
 8005fa8:	6bbb      	ldr	r3, [r7, #56]	; 0x38
 8005faa:	2b00      	cmp	r3, #0
 8005fac:	d101      	bne.n	8005fb2 <find_volume+0x3e>
 8005fae:	230c      	movs	r3, #12
 8005fb0:	e2e8      	b.n	8006584 <find_volume+0x610>

	ENTER_FF(fs);						/* Lock the volume */
	*rfs = fs;							/* Return pointer to the file system object */
 8005fb2:	68fb      	ldr	r3, [r7, #12]
 8005fb4:	6bba      	ldr	r2, [r7, #56]	; 0x38
 8005fb6:	601a      	str	r2, [r3, #0]

	if (fs->fs_type) {					/* If the volume has been mounted */
 8005fb8:	6bba      	ldr	r2, [r7, #56]	; 0x38
 8005fba:	2380      	movs	r3, #128	; 0x80
 8005fbc:	009b      	lsls	r3, r3, #2
 8005fbe:	5cd3      	ldrb	r3, [r2, r3]
 8005fc0:	2b00      	cmp	r3, #0
 8005fc2:	d01c      	beq.n	8005ffe <find_volume+0x8a>
		stat = disk_status(fs->drv);
 8005fc4:	6bbb      	ldr	r3, [r7, #56]	; 0x38
 8005fc6:	4ac6      	ldr	r2, [pc, #792]	; (80062e0 <find_volume+0x36c>)
 8005fc8:	5c9b      	ldrb	r3, [r3, r2]
 8005fca:	2537      	movs	r5, #55	; 0x37
 8005fcc:	197c      	adds	r4, r7, r5
 8005fce:	0018      	movs	r0, r3
 8005fd0:	f7fe fa98 	bl	8004504 <disk_status>
 8005fd4:	0003      	movs	r3, r0
 8005fd6:	7023      	strb	r3, [r4, #0]
		if (!(stat & STA_NOINIT)) {		/* and the physical drive is kept initialized */
 8005fd8:	0029      	movs	r1, r5
 8005fda:	187b      	adds	r3, r7, r1
 8005fdc:	781b      	ldrb	r3, [r3, #0]
 8005fde:	2201      	movs	r2, #1
 8005fe0:	4013      	ands	r3, r2
 8005fe2:	d10c      	bne.n	8005ffe <find_volume+0x8a>
			if (!_FS_READONLY && wmode && (stat & STA_PROTECT))	/* Check write protection if needed */
 8005fe4:	1dfb      	adds	r3, r7, #7
 8005fe6:	781b      	ldrb	r3, [r3, #0]
 8005fe8:	2b00      	cmp	r3, #0
 8005fea:	d006      	beq.n	8005ffa <find_volume+0x86>
 8005fec:	187b      	adds	r3, r7, r1
 8005fee:	781b      	ldrb	r3, [r3, #0]
 8005ff0:	2204      	movs	r2, #4
 8005ff2:	4013      	ands	r3, r2
 8005ff4:	d001      	beq.n	8005ffa <find_volume+0x86>
				return FR_WRITE_PROTECTED;
 8005ff6:	230a      	movs	r3, #10
 8005ff8:	e2c4      	b.n	8006584 <find_volume+0x610>
			return FR_OK;				/* The file system object is valid */
 8005ffa:	2300      	movs	r3, #0
 8005ffc:	e2c2      	b.n	8006584 <find_volume+0x610>
	}

	/* The file system object is not valid. */
	/* Following code attempts to mount the volume. (analyze BPB and initialize the fs object) */

	fs->fs_type = 0;					/* Clear the file system object */
 8005ffe:	6bba      	ldr	r2, [r7, #56]	; 0x38
 8006000:	2380      	movs	r3, #128	; 0x80
 8006002:	009b      	lsls	r3, r3, #2
 8006004:	2100      	movs	r1, #0
 8006006:	54d1      	strb	r1, [r2, r3]
	fs->drv = LD2PD(vol);				/* Bind the logical drive and a physical drive */
 8006008:	6bfb      	ldr	r3, [r7, #60]	; 0x3c
 800600a:	b2d9      	uxtb	r1, r3
 800600c:	6bbb      	ldr	r3, [r7, #56]	; 0x38
 800600e:	4ab4      	ldr	r2, [pc, #720]	; (80062e0 <find_volume+0x36c>)
 8006010:	5499      	strb	r1, [r3, r2]
	stat = disk_initialize(fs->drv);	/* Initialize the physical drive */
 8006012:	6bbb      	ldr	r3, [r7, #56]	; 0x38
 8006014:	4ab2      	ldr	r2, [pc, #712]	; (80062e0 <find_volume+0x36c>)
 8006016:	5c9b      	ldrb	r3, [r3, r2]
 8006018:	2537      	movs	r5, #55	; 0x37
 800601a:	197c      	adds	r4, r7, r5
 800601c:	0018      	movs	r0, r3
 800601e:	f7fe fa93 	bl	8004548 <disk_initialize>
 8006022:	0003      	movs	r3, r0
 8006024:	7023      	strb	r3, [r4, #0]
	if (stat & STA_NOINIT)				/* Check if the initialization succeeded */
 8006026:	197b      	adds	r3, r7, r5
 8006028:	781b      	ldrb	r3, [r3, #0]
 800602a:	2201      	movs	r2, #1
 800602c:	4013      	ands	r3, r2
 800602e:	d001      	beq.n	8006034 <find_volume+0xc0>
		return FR_NOT_READY;			/* Failed to initialize due to no medium or hard error */
 8006030:	2303      	movs	r3, #3
 8006032:	e2a7      	b.n	8006584 <find_volume+0x610>
	if (!_FS_READONLY && wmode && (stat & STA_PROTECT))	/* Check disk write protection if needed */
 8006034:	1dfb      	adds	r3, r7, #7
 8006036:	781b      	ldrb	r3, [r3, #0]
 8006038:	2b00      	cmp	r3, #0
 800603a:	d007      	beq.n	800604c <find_volume+0xd8>
 800603c:	2337      	movs	r3, #55	; 0x37
 800603e:	18fb      	adds	r3, r7, r3
 8006040:	781b      	ldrb	r3, [r3, #0]
 8006042:	2204      	movs	r2, #4
 8006044:	4013      	ands	r3, r2
 8006046:	d001      	beq.n	800604c <find_volume+0xd8>
		return FR_WRITE_PROTECTED;
 8006048:	230a      	movs	r3, #10
 800604a:	e29b      	b.n	8006584 <find_volume+0x610>
#if _MAX_SS != _MIN_SS						/* Get sector size (multiple sector size cfg only) */
	if (disk_ioctl(fs->drv, GET_SECTOR_SIZE, &SS(fs)) != RES_OK
		|| SS(fs) < _MIN_SS || SS(fs) > _MAX_SS) return FR_DISK_ERR;
#endif
	/* Find an FAT partition on the drive. Supports only generic partitioning, FDISK and SFD. */
	bsect = 0;
 800604c:	2300      	movs	r3, #0
 800604e:	653b      	str	r3, [r7, #80]	; 0x50
	fmt = check_fs(fs, bsect);					/* Load sector 0 and check if it is an FAT boot sector as SFD */
 8006050:	2557      	movs	r5, #87	; 0x57
 8006052:	197c      	adds	r4, r7, r5
 8006054:	6d3a      	ldr	r2, [r7, #80]	; 0x50
 8006056:	6bbb      	ldr	r3, [r7, #56]	; 0x38
 8006058:	0011      	movs	r1, r2
 800605a:	0018      	movs	r0, r3
 800605c:	f7ff ff1c 	bl	8005e98 <check_fs>
 8006060:	0003      	movs	r3, r0
 8006062:	7023      	strb	r3, [r4, #0]
	if (fmt == 1 || (!fmt && (LD2PT(vol)))) {	/* Not an FAT boot sector or forced partition number */
 8006064:	197b      	adds	r3, r7, r5
 8006066:	781b      	ldrb	r3, [r3, #0]
 8006068:	2b01      	cmp	r3, #1
 800606a:	d155      	bne.n	8006118 <find_volume+0x1a4>
		for (i = 0; i < 4; i++) {			/* Get partition offset */
 800606c:	2300      	movs	r3, #0
 800606e:	643b      	str	r3, [r7, #64]	; 0x40
 8006070:	e027      	b.n	80060c2 <find_volume+0x14e>
			pt = fs->win.d8 + MBR_Table + i * SZ_PTE;
 8006072:	6bba      	ldr	r2, [r7, #56]	; 0x38
 8006074:	6c3b      	ldr	r3, [r7, #64]	; 0x40
 8006076:	011b      	lsls	r3, r3, #4
 8006078:	33bf      	adds	r3, #191	; 0xbf
 800607a:	33ff      	adds	r3, #255	; 0xff
 800607c:	18d3      	adds	r3, r2, r3
 800607e:	633b      	str	r3, [r7, #48]	; 0x30
			br[i] = pt[4] ? LD_DWORD(&pt[8]) : 0;
 8006080:	6b3b      	ldr	r3, [r7, #48]	; 0x30
 8006082:	3304      	adds	r3, #4
 8006084:	781b      	ldrb	r3, [r3, #0]
 8006086:	2b00      	cmp	r3, #0
 8006088:	d012      	beq.n	80060b0 <find_volume+0x13c>
 800608a:	6b3b      	ldr	r3, [r7, #48]	; 0x30
 800608c:	330b      	adds	r3, #11
 800608e:	781b      	ldrb	r3, [r3, #0]
 8006090:	061a      	lsls	r2, r3, #24
 8006092:	6b3b      	ldr	r3, [r7, #48]	; 0x30
 8006094:	330a      	adds	r3, #10
 8006096:	781b      	ldrb	r3, [r3, #0]
 8006098:	041b      	lsls	r3, r3, #16
 800609a:	4313      	orrs	r3, r2
 800609c:	6b3a      	ldr	r2, [r7, #48]	; 0x30
 800609e:	3209      	adds	r2, #9
 80060a0:	7812      	ldrb	r2, [r2, #0]
 80060a2:	0212      	lsls	r2, r2, #8
 80060a4:	4313      	orrs	r3, r2
 80060a6:	6b3a      	ldr	r2, [r7, #48]	; 0x30
 80060a8:	3208      	adds	r2, #8
 80060aa:	7812      	ldrb	r2, [r2, #0]
 80060ac:	4313      	orrs	r3, r2
 80060ae:	e000      	b.n	80060b2 <find_volume+0x13e>
 80060b0:	2300      	movs	r3, #0
 80060b2:	2214      	movs	r2, #20
 80060b4:	18ba      	adds	r2, r7, r2
 80060b6:	6c39      	ldr	r1, [r7, #64]	; 0x40
 80060b8:	0089      	lsls	r1, r1, #2
 80060ba:	508b      	str	r3, [r1, r2]
		for (i = 0; i < 4; i++) {			/* Get partition offset */
 80060bc:	6c3b      	ldr	r3, [r7, #64]	; 0x40
 80060be:	3301      	adds	r3, #1
 80060c0:	643b      	str	r3, [r7, #64]	; 0x40
 80060c2:	6c3b      	ldr	r3, [r7, #64]	; 0x40
 80060c4:	2b03      	cmp	r3, #3
 80060c6:	d9d4      	bls.n	8006072 <find_volume+0xfe>
		}
		i = LD2PT(vol);						/* Partition number: 0:auto, 1-4:forced */
 80060c8:	2300      	movs	r3, #0
 80060ca:	643b      	str	r3, [r7, #64]	; 0x40
		if (i) i--;
 80060cc:	6c3b      	ldr	r3, [r7, #64]	; 0x40
 80060ce:	2b00      	cmp	r3, #0
 80060d0:	d002      	beq.n	80060d8 <find_volume+0x164>
 80060d2:	6c3b      	ldr	r3, [r7, #64]	; 0x40
 80060d4:	3b01      	subs	r3, #1
 80060d6:	643b      	str	r3, [r7, #64]	; 0x40
		do {								/* Find an FAT volume */
			bsect = br[i];
 80060d8:	2314      	movs	r3, #20
 80060da:	18fb      	adds	r3, r7, r3
 80060dc:	6c3a      	ldr	r2, [r7, #64]	; 0x40
 80060de:	0092      	lsls	r2, r2, #2
 80060e0:	58d3      	ldr	r3, [r2, r3]
 80060e2:	653b      	str	r3, [r7, #80]	; 0x50
			fmt = bsect ? check_fs(fs, bsect) : 2;	/* Check the partition */
 80060e4:	6d3b      	ldr	r3, [r7, #80]	; 0x50
 80060e6:	2b00      	cmp	r3, #0
 80060e8:	d008      	beq.n	80060fc <find_volume+0x188>
 80060ea:	6d3a      	ldr	r2, [r7, #80]	; 0x50
 80060ec:	6bbb      	ldr	r3, [r7, #56]	; 0x38
 80060ee:	0011      	movs	r1, r2
 80060f0:	0018      	movs	r0, r3
 80060f2:	f7ff fed1 	bl	8005e98 <check_fs>
 80060f6:	0003      	movs	r3, r0
 80060f8:	001a      	movs	r2, r3
 80060fa:	e000      	b.n	80060fe <find_volume+0x18a>
 80060fc:	2202      	movs	r2, #2
 80060fe:	2157      	movs	r1, #87	; 0x57
 8006100:	187b      	adds	r3, r7, r1
 8006102:	701a      	strb	r2, [r3, #0]
		} while (!LD2PT(vol) && fmt && ++i < 4);
 8006104:	187b      	adds	r3, r7, r1
 8006106:	781b      	ldrb	r3, [r3, #0]
 8006108:	2b00      	cmp	r3, #0
 800610a:	d005      	beq.n	8006118 <find_volume+0x1a4>
 800610c:	6c3b      	ldr	r3, [r7, #64]	; 0x40
 800610e:	3301      	adds	r3, #1
 8006110:	643b      	str	r3, [r7, #64]	; 0x40
 8006112:	6c3b      	ldr	r3, [r7, #64]	; 0x40
 8006114:	2b03      	cmp	r3, #3
 8006116:	d9df      	bls.n	80060d8 <find_volume+0x164>
	}
	if (fmt == 3) return FR_DISK_ERR;		/* An error occured in the disk I/O layer */
 8006118:	2357      	movs	r3, #87	; 0x57
 800611a:	18fb      	adds	r3, r7, r3
 800611c:	781b      	ldrb	r3, [r3, #0]
 800611e:	2b03      	cmp	r3, #3
 8006120:	d101      	bne.n	8006126 <find_volume+0x1b2>
 8006122:	2301      	movs	r3, #1
 8006124:	e22e      	b.n	8006584 <find_volume+0x610>
	if (fmt) return FR_NO_FILESYSTEM;		/* No FAT volume is found */
 8006126:	2357      	movs	r3, #87	; 0x57
 8006128:	18fb      	adds	r3, r7, r3
 800612a:	781b      	ldrb	r3, [r3, #0]
 800612c:	2b00      	cmp	r3, #0
 800612e:	d001      	beq.n	8006134 <find_volume+0x1c0>
 8006130:	230d      	movs	r3, #13
 8006132:	e227      	b.n	8006584 <find_volume+0x610>

	/* An FAT volume is found. Following code initializes the file system object */

	if (LD_WORD(fs->win.d8 + BPB_BytsPerSec) != SS(fs))	/* (BPB_BytsPerSec must be equal to the physical sector size) */
 8006134:	6bbb      	ldr	r3, [r7, #56]	; 0x38
 8006136:	7b1b      	ldrb	r3, [r3, #12]
 8006138:	021b      	lsls	r3, r3, #8
 800613a:	b21a      	sxth	r2, r3
 800613c:	6bbb      	ldr	r3, [r7, #56]	; 0x38
 800613e:	7adb      	ldrb	r3, [r3, #11]
 8006140:	b21b      	sxth	r3, r3
 8006142:	4313      	orrs	r3, r2
 8006144:	b21a      	sxth	r2, r3
 8006146:	2380      	movs	r3, #128	; 0x80
 8006148:	009b      	lsls	r3, r3, #2
 800614a:	429a      	cmp	r2, r3
 800614c:	d001      	beq.n	8006152 <find_volume+0x1de>
		return FR_NO_FILESYSTEM;
 800614e:	230d      	movs	r3, #13
 8006150:	e218      	b.n	8006584 <find_volume+0x610>

	fasize = LD_WORD(fs->win.d8 + BPB_FATSz16);			/* Number of sectors per FAT */
 8006152:	6bbb      	ldr	r3, [r7, #56]	; 0x38
 8006154:	7ddb      	ldrb	r3, [r3, #23]
 8006156:	021b      	lsls	r3, r3, #8
 8006158:	b21a      	sxth	r2, r3
 800615a:	6bbb      	ldr	r3, [r7, #56]	; 0x38
 800615c:	7d9b      	ldrb	r3, [r3, #22]
 800615e:	b21b      	sxth	r3, r3
 8006160:	4313      	orrs	r3, r2
 8006162:	b21b      	sxth	r3, r3
 8006164:	b29b      	uxth	r3, r3
 8006166:	64fb      	str	r3, [r7, #76]	; 0x4c
	if (!fasize) fasize = LD_DWORD(fs->win.d8 + BPB_FATSz32);
 8006168:	6cfb      	ldr	r3, [r7, #76]	; 0x4c
 800616a:	2b00      	cmp	r3, #0
 800616c:	d112      	bne.n	8006194 <find_volume+0x220>
 800616e:	6bbb      	ldr	r3, [r7, #56]	; 0x38
 8006170:	2227      	movs	r2, #39	; 0x27
 8006172:	5c9b      	ldrb	r3, [r3, r2]
 8006174:	061a      	lsls	r2, r3, #24
 8006176:	6bbb      	ldr	r3, [r7, #56]	; 0x38
 8006178:	2126      	movs	r1, #38	; 0x26
 800617a:	5c5b      	ldrb	r3, [r3, r1]
 800617c:	041b      	lsls	r3, r3, #16
 800617e:	4313      	orrs	r3, r2
 8006180:	6bba      	ldr	r2, [r7, #56]	; 0x38
 8006182:	2125      	movs	r1, #37	; 0x25
 8006184:	5c52      	ldrb	r2, [r2, r1]
 8006186:	0212      	lsls	r2, r2, #8
 8006188:	4313      	orrs	r3, r2
 800618a:	6bba      	ldr	r2, [r7, #56]	; 0x38
 800618c:	2124      	movs	r1, #36	; 0x24
 800618e:	5c52      	ldrb	r2, [r2, r1]
 8006190:	4313      	orrs	r3, r2
 8006192:	64fb      	str	r3, [r7, #76]	; 0x4c
	fs->fsize = fasize;
 8006194:	6bba      	ldr	r2, [r7, #56]	; 0x38
 8006196:	2386      	movs	r3, #134	; 0x86
 8006198:	009b      	lsls	r3, r3, #2
 800619a:	6cf9      	ldr	r1, [r7, #76]	; 0x4c
 800619c:	50d1      	str	r1, [r2, r3]

	fs->n_fats = fs->win.d8[BPB_NumFATs];					/* Number of FAT copies */
 800619e:	6bbb      	ldr	r3, [r7, #56]	; 0x38
 80061a0:	7c19      	ldrb	r1, [r3, #16]
 80061a2:	6bbb      	ldr	r3, [r7, #56]	; 0x38
 80061a4:	4a4f      	ldr	r2, [pc, #316]	; (80062e4 <find_volume+0x370>)
 80061a6:	5499      	strb	r1, [r3, r2]
	if (fs->n_fats != 1 && fs->n_fats != 2)				/* (Must be 1 or 2) */
 80061a8:	6bbb      	ldr	r3, [r7, #56]	; 0x38
 80061aa:	4a4e      	ldr	r2, [pc, #312]	; (80062e4 <find_volume+0x370>)
 80061ac:	5c9b      	ldrb	r3, [r3, r2]
 80061ae:	2b01      	cmp	r3, #1
 80061b0:	d006      	beq.n	80061c0 <find_volume+0x24c>
 80061b2:	6bbb      	ldr	r3, [r7, #56]	; 0x38
 80061b4:	4a4b      	ldr	r2, [pc, #300]	; (80062e4 <find_volume+0x370>)
 80061b6:	5c9b      	ldrb	r3, [r3, r2]
 80061b8:	2b02      	cmp	r3, #2
 80061ba:	d001      	beq.n	80061c0 <find_volume+0x24c>
		return FR_NO_FILESYSTEM;
 80061bc:	230d      	movs	r3, #13
 80061be:	e1e1      	b.n	8006584 <find_volume+0x610>
	fasize *= fs->n_fats;								/* Number of sectors for FAT area */
 80061c0:	6bbb      	ldr	r3, [r7, #56]	; 0x38
 80061c2:	4a48      	ldr	r2, [pc, #288]	; (80062e4 <find_volume+0x370>)
 80061c4:	5c9b      	ldrb	r3, [r3, r2]
 80061c6:	001a      	movs	r2, r3
 80061c8:	6cfb      	ldr	r3, [r7, #76]	; 0x4c
 80061ca:	4353      	muls	r3, r2
 80061cc:	64fb      	str	r3, [r7, #76]	; 0x4c

	fs->csize = fs->win.d8[BPB_SecPerClus];				/* Number of sectors per cluster */
 80061ce:	6bbb      	ldr	r3, [r7, #56]	; 0x38
 80061d0:	7b59      	ldrb	r1, [r3, #13]
 80061d2:	6bbb      	ldr	r3, [r7, #56]	; 0x38
 80061d4:	4a44      	ldr	r2, [pc, #272]	; (80062e8 <find_volume+0x374>)
 80061d6:	5499      	strb	r1, [r3, r2]
	if (!fs->csize || (fs->csize & (fs->csize - 1)))	/* (Must be power of 2) */
 80061d8:	6bbb      	ldr	r3, [r7, #56]	; 0x38
 80061da:	4a43      	ldr	r2, [pc, #268]	; (80062e8 <find_volume+0x374>)
 80061dc:	5c9b      	ldrb	r3, [r3, r2]
 80061de:	2b00      	cmp	r3, #0
 80061e0:	d009      	beq.n	80061f6 <find_volume+0x282>
 80061e2:	6bbb      	ldr	r3, [r7, #56]	; 0x38
 80061e4:	4a40      	ldr	r2, [pc, #256]	; (80062e8 <find_volume+0x374>)
 80061e6:	5c9b      	ldrb	r3, [r3, r2]
 80061e8:	0019      	movs	r1, r3
 80061ea:	6bbb      	ldr	r3, [r7, #56]	; 0x38
 80061ec:	4a3e      	ldr	r2, [pc, #248]	; (80062e8 <find_volume+0x374>)
 80061ee:	5c9b      	ldrb	r3, [r3, r2]
 80061f0:	3b01      	subs	r3, #1
 80061f2:	400b      	ands	r3, r1
 80061f4:	d001      	beq.n	80061fa <find_volume+0x286>
		return FR_NO_FILESYSTEM;
 80061f6:	230d      	movs	r3, #13
 80061f8:	e1c4      	b.n	8006584 <find_volume+0x610>

	fs->n_rootdir = LD_WORD(fs->win.d8 + BPB_RootEntCnt);	/* Number of root directory entries */
 80061fa:	6bbb      	ldr	r3, [r7, #56]	; 0x38
 80061fc:	7c9b      	ldrb	r3, [r3, #18]
 80061fe:	021b      	lsls	r3, r3, #8
 8006200:	b21a      	sxth	r2, r3
 8006202:	6bbb      	ldr	r3, [r7, #56]	; 0x38
 8006204:	7c5b      	ldrb	r3, [r3, #17]
 8006206:	b21b      	sxth	r3, r3
 8006208:	4313      	orrs	r3, r2
 800620a:	b21b      	sxth	r3, r3
 800620c:	b299      	uxth	r1, r3
 800620e:	6bba      	ldr	r2, [r7, #56]	; 0x38
 8006210:	2382      	movs	r3, #130	; 0x82
 8006212:	009b      	lsls	r3, r3, #2
 8006214:	52d1      	strh	r1, [r2, r3]
	if (fs->n_rootdir % (SS(fs) / SZ_DIRE))				/* (Must be sector aligned) */
 8006216:	6bba      	ldr	r2, [r7, #56]	; 0x38
 8006218:	2382      	movs	r3, #130	; 0x82
 800621a:	009b      	lsls	r3, r3, #2
 800621c:	5ad3      	ldrh	r3, [r2, r3]
 800621e:	220f      	movs	r2, #15
 8006220:	4013      	ands	r3, r2
 8006222:	b29b      	uxth	r3, r3
 8006224:	2b00      	cmp	r3, #0
 8006226:	d001      	beq.n	800622c <find_volume+0x2b8>
		return FR_NO_FILESYSTEM;
 8006228:	230d      	movs	r3, #13
 800622a:	e1ab      	b.n	8006584 <find_volume+0x610>

	tsect = LD_WORD(fs->win.d8 + BPB_TotSec16);			/* Number of sectors on the volume */
 800622c:	6bbb      	ldr	r3, [r7, #56]	; 0x38
 800622e:	7d1b      	ldrb	r3, [r3, #20]
 8006230:	021b      	lsls	r3, r3, #8
 8006232:	b21a      	sxth	r2, r3
 8006234:	6bbb      	ldr	r3, [r7, #56]	; 0x38
 8006236:	7cdb      	ldrb	r3, [r3, #19]
 8006238:	b21b      	sxth	r3, r3
 800623a:	4313      	orrs	r3, r2
 800623c:	b21b      	sxth	r3, r3
 800623e:	b29b      	uxth	r3, r3
 8006240:	64bb      	str	r3, [r7, #72]	; 0x48
	if (!tsect) tsect = LD_DWORD(fs->win.d8 + BPB_TotSec32);
 8006242:	6cbb      	ldr	r3, [r7, #72]	; 0x48
 8006244:	2b00      	cmp	r3, #0
 8006246:	d112      	bne.n	800626e <find_volume+0x2fa>
 8006248:	6bbb      	ldr	r3, [r7, #56]	; 0x38
 800624a:	2223      	movs	r2, #35	; 0x23
 800624c:	5c9b      	ldrb	r3, [r3, r2]
 800624e:	061a      	lsls	r2, r3, #24
 8006250:	6bbb      	ldr	r3, [r7, #56]	; 0x38
 8006252:	2122      	movs	r1, #34	; 0x22
 8006254:	5c5b      	ldrb	r3, [r3, r1]
 8006256:	041b      	lsls	r3, r3, #16
 8006258:	4313      	orrs	r3, r2
 800625a:	6bba      	ldr	r2, [r7, #56]	; 0x38
 800625c:	2121      	movs	r1, #33	; 0x21
 800625e:	5c52      	ldrb	r2, [r2, r1]
 8006260:	0212      	lsls	r2, r2, #8
 8006262:	4313      	orrs	r3, r2
 8006264:	6bba      	ldr	r2, [r7, #56]	; 0x38
 8006266:	2120      	movs	r1, #32
 8006268:	5c52      	ldrb	r2, [r2, r1]
 800626a:	4313      	orrs	r3, r2
 800626c:	64bb      	str	r3, [r7, #72]	; 0x48

	nrsv = LD_WORD(fs->win.d8 + BPB_RsvdSecCnt);			/* Number of reserved sectors */
 800626e:	6bbb      	ldr	r3, [r7, #56]	; 0x38
 8006270:	7bdb      	ldrb	r3, [r3, #15]
 8006272:	021b      	lsls	r3, r3, #8
 8006274:	b21a      	sxth	r2, r3
 8006276:	6bbb      	ldr	r3, [r7, #56]	; 0x38
 8006278:	7b9b      	ldrb	r3, [r3, #14]
 800627a:	b21b      	sxth	r3, r3
 800627c:	4313      	orrs	r3, r2
 800627e:	b21a      	sxth	r2, r3
 8006280:	212e      	movs	r1, #46	; 0x2e
 8006282:	187b      	adds	r3, r7, r1
 8006284:	801a      	strh	r2, [r3, #0]
	if (!nrsv) return FR_NO_FILESYSTEM;					/* (Must not be 0) */
 8006286:	187b      	adds	r3, r7, r1
 8006288:	881b      	ldrh	r3, [r3, #0]
 800628a:	2b00      	cmp	r3, #0
 800628c:	d101      	bne.n	8006292 <find_volume+0x31e>
 800628e:	230d      	movs	r3, #13
 8006290:	e178      	b.n	8006584 <find_volume+0x610>

	/* Determine the FAT sub type */
	sysect = nrsv + fasize + fs->n_rootdir / (SS(fs) / SZ_DIRE);	/* RSV + FAT + DIR */
 8006292:	232e      	movs	r3, #46	; 0x2e
 8006294:	18fb      	adds	r3, r7, r3
 8006296:	881a      	ldrh	r2, [r3, #0]
 8006298:	6cfb      	ldr	r3, [r7, #76]	; 0x4c
 800629a:	18d3      	adds	r3, r2, r3
 800629c:	6bb9      	ldr	r1, [r7, #56]	; 0x38
 800629e:	2282      	movs	r2, #130	; 0x82
 80062a0:	0092      	lsls	r2, r2, #2
 80062a2:	5a8a      	ldrh	r2, [r1, r2]
 80062a4:	0912      	lsrs	r2, r2, #4
 80062a6:	b292      	uxth	r2, r2
 80062a8:	189b      	adds	r3, r3, r2
 80062aa:	62bb      	str	r3, [r7, #40]	; 0x28
	if (tsect < sysect) return FR_NO_FILESYSTEM;		/* (Invalid volume size) */
 80062ac:	6cba      	ldr	r2, [r7, #72]	; 0x48
 80062ae:	6abb      	ldr	r3, [r7, #40]	; 0x28
 80062b0:	429a      	cmp	r2, r3
 80062b2:	d201      	bcs.n	80062b8 <find_volume+0x344>
 80062b4:	230d      	movs	r3, #13
 80062b6:	e165      	b.n	8006584 <find_volume+0x610>
	nclst = (tsect - sysect) / fs->csize;				/* Number of clusters */
 80062b8:	6cba      	ldr	r2, [r7, #72]	; 0x48
 80062ba:	6abb      	ldr	r3, [r7, #40]	; 0x28
 80062bc:	1ad2      	subs	r2, r2, r3
 80062be:	6bbb      	ldr	r3, [r7, #56]	; 0x38
 80062c0:	4909      	ldr	r1, [pc, #36]	; (80062e8 <find_volume+0x374>)
 80062c2:	5c5b      	ldrb	r3, [r3, r1]
 80062c4:	0019      	movs	r1, r3
 80062c6:	0010      	movs	r0, r2
 80062c8:	f7f9 ff30 	bl	800012c <__udivsi3>
 80062cc:	0003      	movs	r3, r0
 80062ce:	627b      	str	r3, [r7, #36]	; 0x24
	if (!nclst) return FR_NO_FILESYSTEM;				/* (Invalid volume size) */
 80062d0:	6a7b      	ldr	r3, [r7, #36]	; 0x24
 80062d2:	2b00      	cmp	r3, #0
 80062d4:	d10a      	bne.n	80062ec <find_volume+0x378>
 80062d6:	230d      	movs	r3, #13
 80062d8:	e154      	b.n	8006584 <find_volume+0x610>
 80062da:	46c0      	nop			; (mov r8, r8)
 80062dc:	200006dc 	.word	0x200006dc
 80062e0:	00000201 	.word	0x00000201
 80062e4:	00000203 	.word	0x00000203
 80062e8:	00000202 	.word	0x00000202
	fmt = FS_FAT12;
 80062ec:	2157      	movs	r1, #87	; 0x57
 80062ee:	187b      	adds	r3, r7, r1
 80062f0:	2201      	movs	r2, #1
 80062f2:	701a      	strb	r2, [r3, #0]
	if (nclst >= MIN_FAT16) fmt = FS_FAT16;
 80062f4:	6a7b      	ldr	r3, [r7, #36]	; 0x24
 80062f6:	4aa5      	ldr	r2, [pc, #660]	; (800658c <find_volume+0x618>)
 80062f8:	4293      	cmp	r3, r2
 80062fa:	d902      	bls.n	8006302 <find_volume+0x38e>
 80062fc:	187b      	adds	r3, r7, r1
 80062fe:	2202      	movs	r2, #2
 8006300:	701a      	strb	r2, [r3, #0]
	if (nclst >= MIN_FAT32) fmt = FS_FAT32;
 8006302:	6a7b      	ldr	r3, [r7, #36]	; 0x24
 8006304:	4aa2      	ldr	r2, [pc, #648]	; (8006590 <find_volume+0x61c>)
 8006306:	4293      	cmp	r3, r2
 8006308:	d903      	bls.n	8006312 <find_volume+0x39e>
 800630a:	2357      	movs	r3, #87	; 0x57
 800630c:	18fb      	adds	r3, r7, r3
 800630e:	2203      	movs	r2, #3
 8006310:	701a      	strb	r2, [r3, #0]

	/* Boundaries and Limits */
	fs->n_fatent = nclst + 2;							/* Number of FAT entries */
 8006312:	6a7b      	ldr	r3, [r7, #36]	; 0x24
 8006314:	1c99      	adds	r1, r3, #2
 8006316:	6bba      	ldr	r2, [r7, #56]	; 0x38
 8006318:	2385      	movs	r3, #133	; 0x85
 800631a:	009b      	lsls	r3, r3, #2
 800631c:	50d1      	str	r1, [r2, r3]
	fs->volbase = bsect;								/* Volume start sector */
 800631e:	6bba      	ldr	r2, [r7, #56]	; 0x38
 8006320:	2387      	movs	r3, #135	; 0x87
 8006322:	009b      	lsls	r3, r3, #2
 8006324:	6d39      	ldr	r1, [r7, #80]	; 0x50
 8006326:	50d1      	str	r1, [r2, r3]
	fs->fatbase = bsect + nrsv; 						/* FAT start sector */
 8006328:	232e      	movs	r3, #46	; 0x2e
 800632a:	18fb      	adds	r3, r7, r3
 800632c:	881a      	ldrh	r2, [r3, #0]
 800632e:	6d3b      	ldr	r3, [r7, #80]	; 0x50
 8006330:	18d1      	adds	r1, r2, r3
 8006332:	6bba      	ldr	r2, [r7, #56]	; 0x38
 8006334:	2388      	movs	r3, #136	; 0x88
 8006336:	009b      	lsls	r3, r3, #2
 8006338:	50d1      	str	r1, [r2, r3]
	fs->database = bsect + sysect;						/* Data start sector */
 800633a:	6d3a      	ldr	r2, [r7, #80]	; 0x50
 800633c:	6abb      	ldr	r3, [r7, #40]	; 0x28
 800633e:	18d1      	adds	r1, r2, r3
 8006340:	6bba      	ldr	r2, [r7, #56]	; 0x38
 8006342:	238a      	movs	r3, #138	; 0x8a
 8006344:	009b      	lsls	r3, r3, #2
 8006346:	50d1      	str	r1, [r2, r3]
	if (fmt == FS_FAT32) {
 8006348:	2357      	movs	r3, #87	; 0x57
 800634a:	18fb      	adds	r3, r7, r3
 800634c:	781b      	ldrb	r3, [r3, #0]
 800634e:	2b03      	cmp	r3, #3
 8006350:	d125      	bne.n	800639e <find_volume+0x42a>
		if (fs->n_rootdir) return FR_NO_FILESYSTEM;		/* (BPB_RootEntCnt must be 0) */
 8006352:	6bba      	ldr	r2, [r7, #56]	; 0x38
 8006354:	2382      	movs	r3, #130	; 0x82
 8006356:	009b      	lsls	r3, r3, #2
 8006358:	5ad3      	ldrh	r3, [r2, r3]
 800635a:	2b00      	cmp	r3, #0
 800635c:	d001      	beq.n	8006362 <find_volume+0x3ee>
 800635e:	230d      	movs	r3, #13
 8006360:	e110      	b.n	8006584 <find_volume+0x610>
		fs->dirbase = LD_DWORD(fs->win.d8 + BPB_RootClus);	/* Root directory start cluster */
 8006362:	6bbb      	ldr	r3, [r7, #56]	; 0x38
 8006364:	222f      	movs	r2, #47	; 0x2f
 8006366:	5c9b      	ldrb	r3, [r3, r2]
 8006368:	061a      	lsls	r2, r3, #24
 800636a:	6bbb      	ldr	r3, [r7, #56]	; 0x38
 800636c:	212e      	movs	r1, #46	; 0x2e
 800636e:	5c5b      	ldrb	r3, [r3, r1]
 8006370:	041b      	lsls	r3, r3, #16
 8006372:	4313      	orrs	r3, r2
 8006374:	6bba      	ldr	r2, [r7, #56]	; 0x38
 8006376:	212d      	movs	r1, #45	; 0x2d
 8006378:	5c52      	ldrb	r2, [r2, r1]
 800637a:	0212      	lsls	r2, r2, #8
 800637c:	4313      	orrs	r3, r2
 800637e:	6bba      	ldr	r2, [r7, #56]	; 0x38
 8006380:	212c      	movs	r1, #44	; 0x2c
 8006382:	5c52      	ldrb	r2, [r2, r1]
 8006384:	4313      	orrs	r3, r2
 8006386:	0019      	movs	r1, r3
 8006388:	6bba      	ldr	r2, [r7, #56]	; 0x38
 800638a:	2389      	movs	r3, #137	; 0x89
 800638c:	009b      	lsls	r3, r3, #2
 800638e:	50d1      	str	r1, [r2, r3]
		szbfat = fs->n_fatent * 4;						/* (Needed FAT size) */
 8006390:	6bba      	ldr	r2, [r7, #56]	; 0x38
 8006392:	2385      	movs	r3, #133	; 0x85
 8006394:	009b      	lsls	r3, r3, #2
 8006396:	58d3      	ldr	r3, [r2, r3]
 8006398:	009b      	lsls	r3, r3, #2
 800639a:	647b      	str	r3, [r7, #68]	; 0x44
 800639c:	e02c      	b.n	80063f8 <find_volume+0x484>
	} else {
		if (!fs->n_rootdir)	return FR_NO_FILESYSTEM;	/* (BPB_RootEntCnt must not be 0) */
 800639e:	6bba      	ldr	r2, [r7, #56]	; 0x38
 80063a0:	2382      	movs	r3, #130	; 0x82
 80063a2:	009b      	lsls	r3, r3, #2
 80063a4:	5ad3      	ldrh	r3, [r2, r3]
 80063a6:	2b00      	cmp	r3, #0
 80063a8:	d101      	bne.n	80063ae <find_volume+0x43a>
 80063aa:	230d      	movs	r3, #13
 80063ac:	e0ea      	b.n	8006584 <find_volume+0x610>
		fs->dirbase = fs->fatbase + fasize;				/* Root directory start sector */
 80063ae:	6bba      	ldr	r2, [r7, #56]	; 0x38
 80063b0:	2388      	movs	r3, #136	; 0x88
 80063b2:	009b      	lsls	r3, r3, #2
 80063b4:	58d2      	ldr	r2, [r2, r3]
 80063b6:	6cfb      	ldr	r3, [r7, #76]	; 0x4c
 80063b8:	18d1      	adds	r1, r2, r3
 80063ba:	6bba      	ldr	r2, [r7, #56]	; 0x38
 80063bc:	2389      	movs	r3, #137	; 0x89
 80063be:	009b      	lsls	r3, r3, #2
 80063c0:	50d1      	str	r1, [r2, r3]
		szbfat = (fmt == FS_FAT16) ?					/* (Needed FAT size) */
			fs->n_fatent * 2 : fs->n_fatent * 3 / 2 + (fs->n_fatent & 1);
 80063c2:	2357      	movs	r3, #87	; 0x57
 80063c4:	18fb      	adds	r3, r7, r3
 80063c6:	781b      	ldrb	r3, [r3, #0]
 80063c8:	2b02      	cmp	r3, #2
 80063ca:	d105      	bne.n	80063d8 <find_volume+0x464>
 80063cc:	6bba      	ldr	r2, [r7, #56]	; 0x38
 80063ce:	2385      	movs	r3, #133	; 0x85
 80063d0:	009b      	lsls	r3, r3, #2
 80063d2:	58d3      	ldr	r3, [r2, r3]
 80063d4:	005b      	lsls	r3, r3, #1
 80063d6:	e00e      	b.n	80063f6 <find_volume+0x482>
 80063d8:	6bba      	ldr	r2, [r7, #56]	; 0x38
 80063da:	2385      	movs	r3, #133	; 0x85
 80063dc:	009b      	lsls	r3, r3, #2
 80063de:	58d2      	ldr	r2, [r2, r3]
 80063e0:	0013      	movs	r3, r2
 80063e2:	005b      	lsls	r3, r3, #1
 80063e4:	189b      	adds	r3, r3, r2
 80063e6:	085a      	lsrs	r2, r3, #1
 80063e8:	6bb9      	ldr	r1, [r7, #56]	; 0x38
 80063ea:	2385      	movs	r3, #133	; 0x85
 80063ec:	009b      	lsls	r3, r3, #2
 80063ee:	58cb      	ldr	r3, [r1, r3]
 80063f0:	2101      	movs	r1, #1
 80063f2:	400b      	ands	r3, r1
 80063f4:	18d3      	adds	r3, r2, r3
		szbfat = (fmt == FS_FAT16) ?					/* (Needed FAT size) */
 80063f6:	647b      	str	r3, [r7, #68]	; 0x44
	}
	if (fs->fsize < (szbfat + (SS(fs) - 1)) / SS(fs))	/* (BPB_FATSz must not be less than the size needed) */
 80063f8:	6bba      	ldr	r2, [r7, #56]	; 0x38
 80063fa:	2386      	movs	r3, #134	; 0x86
 80063fc:	009b      	lsls	r3, r3, #2
 80063fe:	58d2      	ldr	r2, [r2, r3]
 8006400:	6c7b      	ldr	r3, [r7, #68]	; 0x44
 8006402:	4964      	ldr	r1, [pc, #400]	; (8006594 <find_volume+0x620>)
 8006404:	468c      	mov	ip, r1
 8006406:	4463      	add	r3, ip
 8006408:	0a5b      	lsrs	r3, r3, #9
 800640a:	429a      	cmp	r2, r3
 800640c:	d201      	bcs.n	8006412 <find_volume+0x49e>
		return FR_NO_FILESYSTEM;
 800640e:	230d      	movs	r3, #13
 8006410:	e0b8      	b.n	8006584 <find_volume+0x610>

#if !_FS_READONLY
	/* Initialize cluster allocation information */
	fs->last_clust = fs->free_clust = 0xFFFFFFFF;
 8006412:	6bba      	ldr	r2, [r7, #56]	; 0x38
 8006414:	2384      	movs	r3, #132	; 0x84
 8006416:	009b      	lsls	r3, r3, #2
 8006418:	2101      	movs	r1, #1
 800641a:	4249      	negs	r1, r1
 800641c:	50d1      	str	r1, [r2, r3]
 800641e:	6bba      	ldr	r2, [r7, #56]	; 0x38
 8006420:	2384      	movs	r3, #132	; 0x84
 8006422:	009b      	lsls	r3, r3, #2
 8006424:	58d1      	ldr	r1, [r2, r3]
 8006426:	6bba      	ldr	r2, [r7, #56]	; 0x38
 8006428:	2383      	movs	r3, #131	; 0x83
 800642a:	009b      	lsls	r3, r3, #2
 800642c:	50d1      	str	r1, [r2, r3]

	/* Get fsinfo if available */
	fs->fsi_flag = 0x80;
 800642e:	6bbb      	ldr	r3, [r7, #56]	; 0x38
 8006430:	4a59      	ldr	r2, [pc, #356]	; (8006598 <find_volume+0x624>)
 8006432:	2180      	movs	r1, #128	; 0x80
 8006434:	5499      	strb	r1, [r3, r2]
#if (_FS_NOFSINFO & 3) != 3
	if (fmt == FS_FAT32				/* Enable FSINFO only if FAT32 and BPB_FSInfo is 1 */
 8006436:	2357      	movs	r3, #87	; 0x57
 8006438:	18fb      	adds	r3, r7, r3
 800643a:	781b      	ldrb	r3, [r3, #0]
 800643c:	2b03      	cmp	r3, #3
 800643e:	d000      	beq.n	8006442 <find_volume+0x4ce>
 8006440:	e089      	b.n	8006556 <find_volume+0x5e2>
		&& LD_WORD(fs->win.d8 + BPB_FSInfo) == 1
 8006442:	6bbb      	ldr	r3, [r7, #56]	; 0x38
 8006444:	2231      	movs	r2, #49	; 0x31
 8006446:	5c9b      	ldrb	r3, [r3, r2]
 8006448:	021b      	lsls	r3, r3, #8
 800644a:	b21a      	sxth	r2, r3
 800644c:	6bbb      	ldr	r3, [r7, #56]	; 0x38
 800644e:	2130      	movs	r1, #48	; 0x30
 8006450:	5c5b      	ldrb	r3, [r3, r1]
 8006452:	b21b      	sxth	r3, r3
 8006454:	4313      	orrs	r3, r2
 8006456:	b21b      	sxth	r3, r3
 8006458:	2b01      	cmp	r3, #1
 800645a:	d000      	beq.n	800645e <find_volume+0x4ea>
 800645c:	e07b      	b.n	8006556 <find_volume+0x5e2>
		&& move_window(fs, bsect + 1) == FR_OK)
 800645e:	6d3b      	ldr	r3, [r7, #80]	; 0x50
 8006460:	1c5a      	adds	r2, r3, #1
 8006462:	6bbb      	ldr	r3, [r7, #56]	; 0x38
 8006464:	0011      	movs	r1, r2
 8006466:	0018      	movs	r0, r3
 8006468:	f7fe fba2 	bl	8004bb0 <move_window>
 800646c:	1e03      	subs	r3, r0, #0
 800646e:	d172      	bne.n	8006556 <find_volume+0x5e2>
	{
		fs->fsi_flag = 0;
 8006470:	6bbb      	ldr	r3, [r7, #56]	; 0x38
 8006472:	4a49      	ldr	r2, [pc, #292]	; (8006598 <find_volume+0x624>)
 8006474:	2100      	movs	r1, #0
 8006476:	5499      	strb	r1, [r3, r2]
		if (LD_WORD(fs->win.d8 + BS_55AA) == 0xAA55	/* Load FSINFO data if available */
 8006478:	6bbb      	ldr	r3, [r7, #56]	; 0x38
 800647a:	4a46      	ldr	r2, [pc, #280]	; (8006594 <find_volume+0x620>)
 800647c:	5c9b      	ldrb	r3, [r3, r2]
 800647e:	021b      	lsls	r3, r3, #8
 8006480:	b21a      	sxth	r2, r3
 8006482:	6bb9      	ldr	r1, [r7, #56]	; 0x38
 8006484:	23ff      	movs	r3, #255	; 0xff
 8006486:	005b      	lsls	r3, r3, #1
 8006488:	5ccb      	ldrb	r3, [r1, r3]
 800648a:	b21b      	sxth	r3, r3
 800648c:	4313      	orrs	r3, r2
 800648e:	b21b      	sxth	r3, r3
 8006490:	4a42      	ldr	r2, [pc, #264]	; (800659c <find_volume+0x628>)
 8006492:	4293      	cmp	r3, r2
 8006494:	d15f      	bne.n	8006556 <find_volume+0x5e2>
			&& LD_DWORD(fs->win.d8 + FSI_LeadSig) == 0x41615252
 8006496:	6bbb      	ldr	r3, [r7, #56]	; 0x38
 8006498:	78db      	ldrb	r3, [r3, #3]
 800649a:	061a      	lsls	r2, r3, #24
 800649c:	6bbb      	ldr	r3, [r7, #56]	; 0x38
 800649e:	789b      	ldrb	r3, [r3, #2]
 80064a0:	041b      	lsls	r3, r3, #16
 80064a2:	4313      	orrs	r3, r2
 80064a4:	6bba      	ldr	r2, [r7, #56]	; 0x38
 80064a6:	7852      	ldrb	r2, [r2, #1]
 80064a8:	0212      	lsls	r2, r2, #8
 80064aa:	4313      	orrs	r3, r2
 80064ac:	6bba      	ldr	r2, [r7, #56]	; 0x38
 80064ae:	7812      	ldrb	r2, [r2, #0]
 80064b0:	4313      	orrs	r3, r2
 80064b2:	4a3b      	ldr	r2, [pc, #236]	; (80065a0 <find_volume+0x62c>)
 80064b4:	4293      	cmp	r3, r2
 80064b6:	d14e      	bne.n	8006556 <find_volume+0x5e2>
			&& LD_DWORD(fs->win.d8 + FSI_StrucSig) == 0x61417272)
 80064b8:	6bba      	ldr	r2, [r7, #56]	; 0x38
 80064ba:	23e8      	movs	r3, #232	; 0xe8
 80064bc:	33ff      	adds	r3, #255	; 0xff
 80064be:	5cd3      	ldrb	r3, [r2, r3]
 80064c0:	061a      	lsls	r2, r3, #24
 80064c2:	6bb9      	ldr	r1, [r7, #56]	; 0x38
 80064c4:	23f3      	movs	r3, #243	; 0xf3
 80064c6:	005b      	lsls	r3, r3, #1
 80064c8:	5ccb      	ldrb	r3, [r1, r3]
 80064ca:	041b      	lsls	r3, r3, #16
 80064cc:	4313      	orrs	r3, r2
 80064ce:	6bb9      	ldr	r1, [r7, #56]	; 0x38
 80064d0:	22e6      	movs	r2, #230	; 0xe6
 80064d2:	32ff      	adds	r2, #255	; 0xff
 80064d4:	5c8a      	ldrb	r2, [r1, r2]
 80064d6:	0212      	lsls	r2, r2, #8
 80064d8:	4313      	orrs	r3, r2
 80064da:	6bb9      	ldr	r1, [r7, #56]	; 0x38
 80064dc:	22f2      	movs	r2, #242	; 0xf2
 80064de:	0052      	lsls	r2, r2, #1
 80064e0:	5c8a      	ldrb	r2, [r1, r2]
 80064e2:	4313      	orrs	r3, r2
 80064e4:	4a2f      	ldr	r2, [pc, #188]	; (80065a4 <find_volume+0x630>)
 80064e6:	4293      	cmp	r3, r2
 80064e8:	d135      	bne.n	8006556 <find_volume+0x5e2>
		{
#if (_FS_NOFSINFO & 1) == 0
			fs->free_clust = LD_DWORD(fs->win.d8 + FSI_Free_Count);
 80064ea:	6bba      	ldr	r2, [r7, #56]	; 0x38
 80064ec:	23ec      	movs	r3, #236	; 0xec
 80064ee:	33ff      	adds	r3, #255	; 0xff
 80064f0:	5cd3      	ldrb	r3, [r2, r3]
 80064f2:	061a      	lsls	r2, r3, #24
 80064f4:	6bb9      	ldr	r1, [r7, #56]	; 0x38
 80064f6:	23f5      	movs	r3, #245	; 0xf5
 80064f8:	005b      	lsls	r3, r3, #1
 80064fa:	5ccb      	ldrb	r3, [r1, r3]
 80064fc:	041b      	lsls	r3, r3, #16
 80064fe:	4313      	orrs	r3, r2
 8006500:	6bb9      	ldr	r1, [r7, #56]	; 0x38
 8006502:	22ea      	movs	r2, #234	; 0xea
 8006504:	32ff      	adds	r2, #255	; 0xff
 8006506:	5c8a      	ldrb	r2, [r1, r2]
 8006508:	0212      	lsls	r2, r2, #8
 800650a:	4313      	orrs	r3, r2
 800650c:	6bb9      	ldr	r1, [r7, #56]	; 0x38
 800650e:	22f4      	movs	r2, #244	; 0xf4
 8006510:	0052      	lsls	r2, r2, #1
 8006512:	5c8a      	ldrb	r2, [r1, r2]
 8006514:	4313      	orrs	r3, r2
 8006516:	0019      	movs	r1, r3
 8006518:	6bba      	ldr	r2, [r7, #56]	; 0x38
 800651a:	2384      	movs	r3, #132	; 0x84
 800651c:	009b      	lsls	r3, r3, #2
 800651e:	50d1      	str	r1, [r2, r3]
#endif
#if (_FS_NOFSINFO & 2) == 0
			fs->last_clust = LD_DWORD(fs->win.d8 + FSI_Nxt_Free);
 8006520:	6bba      	ldr	r2, [r7, #56]	; 0x38
 8006522:	23f0      	movs	r3, #240	; 0xf0
 8006524:	33ff      	adds	r3, #255	; 0xff
 8006526:	5cd3      	ldrb	r3, [r2, r3]
 8006528:	061a      	lsls	r2, r3, #24
 800652a:	6bb9      	ldr	r1, [r7, #56]	; 0x38
 800652c:	23f7      	movs	r3, #247	; 0xf7
 800652e:	005b      	lsls	r3, r3, #1
 8006530:	5ccb      	ldrb	r3, [r1, r3]
 8006532:	041b      	lsls	r3, r3, #16
 8006534:	4313      	orrs	r3, r2
 8006536:	6bb9      	ldr	r1, [r7, #56]	; 0x38
 8006538:	22ee      	movs	r2, #238	; 0xee
 800653a:	32ff      	adds	r2, #255	; 0xff
 800653c:	5c8a      	ldrb	r2, [r1, r2]
 800653e:	0212      	lsls	r2, r2, #8
 8006540:	4313      	orrs	r3, r2
 8006542:	6bb9      	ldr	r1, [r7, #56]	; 0x38
 8006544:	22f6      	movs	r2, #246	; 0xf6
 8006546:	0052      	lsls	r2, r2, #1
 8006548:	5c8a      	ldrb	r2, [r1, r2]
 800654a:	4313      	orrs	r3, r2
 800654c:	0019      	movs	r1, r3
 800654e:	6bba      	ldr	r2, [r7, #56]	; 0x38
 8006550:	2383      	movs	r3, #131	; 0x83
 8006552:	009b      	lsls	r3, r3, #2
 8006554:	50d1      	str	r1, [r2, r3]
#endif
		}
	}
#endif
#endif
	fs->fs_type = fmt;	/* FAT sub-type */
 8006556:	6bba      	ldr	r2, [r7, #56]	; 0x38
 8006558:	2357      	movs	r3, #87	; 0x57
 800655a:	18f9      	adds	r1, r7, r3
 800655c:	2380      	movs	r3, #128	; 0x80
 800655e:	009b      	lsls	r3, r3, #2
 8006560:	7809      	ldrb	r1, [r1, #0]
 8006562:	54d1      	strb	r1, [r2, r3]
	fs->id = ++Fsid;	/* File system mount ID */
 8006564:	4b10      	ldr	r3, [pc, #64]	; (80065a8 <find_volume+0x634>)
 8006566:	881b      	ldrh	r3, [r3, #0]
 8006568:	3301      	adds	r3, #1
 800656a:	b29a      	uxth	r2, r3
 800656c:	4b0e      	ldr	r3, [pc, #56]	; (80065a8 <find_volume+0x634>)
 800656e:	801a      	strh	r2, [r3, #0]
 8006570:	4b0d      	ldr	r3, [pc, #52]	; (80065a8 <find_volume+0x634>)
 8006572:	8819      	ldrh	r1, [r3, #0]
 8006574:	6bbb      	ldr	r3, [r7, #56]	; 0x38
 8006576:	4a0d      	ldr	r2, [pc, #52]	; (80065ac <find_volume+0x638>)
 8006578:	5299      	strh	r1, [r3, r2]
#if _FS_RPATH
	fs->cdir = 0;		/* Set current directory to root */
#endif
#if _FS_LOCK			/* Clear file lock semaphores */
	clear_lock(fs);
 800657a:	6bbb      	ldr	r3, [r7, #56]	; 0x38
 800657c:	0018      	movs	r0, r3
 800657e:	f7fe fa99 	bl	8004ab4 <clear_lock>
#endif

	return FR_OK;
 8006582:	2300      	movs	r3, #0
}
 8006584:	0018      	movs	r0, r3
 8006586:	46bd      	mov	sp, r7
 8006588:	b016      	add	sp, #88	; 0x58
 800658a:	bdb0      	pop	{r4, r5, r7, pc}
 800658c:	00000ff5 	.word	0x00000ff5
 8006590:	0000fff5 	.word	0x0000fff5
 8006594:	000001ff 	.word	0x000001ff
 8006598:	00000205 	.word	0x00000205
 800659c:	ffffaa55 	.word	0xffffaa55
 80065a0:	41615252 	.word	0x41615252
 80065a4:	61417272 	.word	0x61417272
 80065a8:	200006e0 	.word	0x200006e0
 80065ac:	00000206 	.word	0x00000206

080065b0 <validate>:

static
FRESULT validate (	/* FR_OK(0): The object is valid, !=0: Invalid */
	void* obj		/* Pointer to the object FIL/DIR to check validity */
)
{
 80065b0:	b580      	push	{r7, lr}
 80065b2:	b084      	sub	sp, #16
 80065b4:	af00      	add	r7, sp, #0
 80065b6:	6078      	str	r0, [r7, #4]
	FIL *fil = (FIL*)obj;	/* Assuming offset of .fs and .id in the FIL/DIR structure is identical */
 80065b8:	687b      	ldr	r3, [r7, #4]
 80065ba:	60fb      	str	r3, [r7, #12]


	if (!fil || !fil->fs || !fil->fs->fs_type || fil->fs->id != fil->id || (disk_status(fil->fs->drv) & STA_NOINIT))
 80065bc:	68fb      	ldr	r3, [r7, #12]
 80065be:	2b00      	cmp	r3, #0
 80065c0:	d028      	beq.n	8006614 <validate+0x64>
 80065c2:	68fa      	ldr	r2, [r7, #12]
 80065c4:	2380      	movs	r3, #128	; 0x80
 80065c6:	009b      	lsls	r3, r3, #2
 80065c8:	58d3      	ldr	r3, [r2, r3]
 80065ca:	2b00      	cmp	r3, #0
 80065cc:	d022      	beq.n	8006614 <validate+0x64>
 80065ce:	68fa      	ldr	r2, [r7, #12]
 80065d0:	2380      	movs	r3, #128	; 0x80
 80065d2:	009b      	lsls	r3, r3, #2
 80065d4:	58d2      	ldr	r2, [r2, r3]
 80065d6:	2380      	movs	r3, #128	; 0x80
 80065d8:	009b      	lsls	r3, r3, #2
 80065da:	5cd3      	ldrb	r3, [r2, r3]
 80065dc:	2b00      	cmp	r3, #0
 80065de:	d019      	beq.n	8006614 <validate+0x64>
 80065e0:	68fa      	ldr	r2, [r7, #12]
 80065e2:	2380      	movs	r3, #128	; 0x80
 80065e4:	009b      	lsls	r3, r3, #2
 80065e6:	58d3      	ldr	r3, [r2, r3]
 80065e8:	4a0e      	ldr	r2, [pc, #56]	; (8006624 <validate+0x74>)
 80065ea:	5a9a      	ldrh	r2, [r3, r2]
 80065ec:	68f9      	ldr	r1, [r7, #12]
 80065ee:	2381      	movs	r3, #129	; 0x81
 80065f0:	009b      	lsls	r3, r3, #2
 80065f2:	5acb      	ldrh	r3, [r1, r3]
 80065f4:	429a      	cmp	r2, r3
 80065f6:	d10d      	bne.n	8006614 <validate+0x64>
 80065f8:	68fa      	ldr	r2, [r7, #12]
 80065fa:	2380      	movs	r3, #128	; 0x80
 80065fc:	009b      	lsls	r3, r3, #2
 80065fe:	58d3      	ldr	r3, [r2, r3]
 8006600:	4a09      	ldr	r2, [pc, #36]	; (8006628 <validate+0x78>)
 8006602:	5c9b      	ldrb	r3, [r3, r2]
 8006604:	0018      	movs	r0, r3
 8006606:	f7fd ff7d 	bl	8004504 <disk_status>
 800660a:	0003      	movs	r3, r0
 800660c:	001a      	movs	r2, r3
 800660e:	2301      	movs	r3, #1
 8006610:	4013      	ands	r3, r2
 8006612:	d001      	beq.n	8006618 <validate+0x68>
		return FR_INVALID_OBJECT;
 8006614:	2309      	movs	r3, #9
 8006616:	e000      	b.n	800661a <validate+0x6a>

	ENTER_FF(fil->fs);		/* Lock file system */

	return FR_OK;
 8006618:	2300      	movs	r3, #0
}
 800661a:	0018      	movs	r0, r3
 800661c:	46bd      	mov	sp, r7
 800661e:	b004      	add	sp, #16
 8006620:	bd80      	pop	{r7, pc}
 8006622:	46c0      	nop			; (mov r8, r8)
 8006624:	00000206 	.word	0x00000206
 8006628:	00000201 	.word	0x00000201

0800662c <f_mount>:
FRESULT f_mount (
	FATFS* fs,			/* Pointer to the file system object (NULL:unmount)*/
	const TCHAR* path,	/* Logical drive number to be mounted/unmounted */
	BYTE opt			/* 0:Do not mount (delayed mount), 1:Mount immediately */
)
{
 800662c:	b5b0      	push	{r4, r5, r7, lr}
 800662e:	b088      	sub	sp, #32
 8006630:	af00      	add	r7, sp, #0
 8006632:	60f8      	str	r0, [r7, #12]
 8006634:	60b9      	str	r1, [r7, #8]
 8006636:	1dfb      	adds	r3, r7, #7
 8006638:	701a      	strb	r2, [r3, #0]
	FATFS *cfs;
	int vol;
	FRESULT res;
	const TCHAR *rp = path;
 800663a:	68bb      	ldr	r3, [r7, #8]
 800663c:	613b      	str	r3, [r7, #16]


	vol = get_ldnumber(&rp);
 800663e:	2310      	movs	r3, #16
 8006640:	18fb      	adds	r3, r7, r3
 8006642:	0018      	movs	r0, r3
 8006644:	f7ff fbe6 	bl	8005e14 <get_ldnumber>
 8006648:	0003      	movs	r3, r0
 800664a:	61fb      	str	r3, [r7, #28]
	if (vol < 0) return FR_INVALID_DRIVE;
 800664c:	69fb      	ldr	r3, [r7, #28]
 800664e:	2b00      	cmp	r3, #0
 8006650:	da01      	bge.n	8006656 <f_mount+0x2a>
 8006652:	230b      	movs	r3, #11
 8006654:	e034      	b.n	80066c0 <f_mount+0x94>
	cfs = FatFs[vol];					/* Pointer to fs object */
 8006656:	4b1c      	ldr	r3, [pc, #112]	; (80066c8 <f_mount+0x9c>)
 8006658:	69fa      	ldr	r2, [r7, #28]
 800665a:	0092      	lsls	r2, r2, #2
 800665c:	58d3      	ldr	r3, [r2, r3]
 800665e:	61bb      	str	r3, [r7, #24]

	if (cfs) {
 8006660:	69bb      	ldr	r3, [r7, #24]
 8006662:	2b00      	cmp	r3, #0
 8006664:	d008      	beq.n	8006678 <f_mount+0x4c>
#if _FS_LOCK
		clear_lock(cfs);
 8006666:	69bb      	ldr	r3, [r7, #24]
 8006668:	0018      	movs	r0, r3
 800666a:	f7fe fa23 	bl	8004ab4 <clear_lock>
#endif
#if _FS_REENTRANT						/* Discard sync object of the current volume */
		if (!ff_del_syncobj(cfs->sobj)) return FR_INT_ERR;
#endif
		cfs->fs_type = 0;				/* Clear old fs object */
 800666e:	69ba      	ldr	r2, [r7, #24]
 8006670:	2380      	movs	r3, #128	; 0x80
 8006672:	009b      	lsls	r3, r3, #2
 8006674:	2100      	movs	r1, #0
 8006676:	54d1      	strb	r1, [r2, r3]
	}

	if (fs) {
 8006678:	68fb      	ldr	r3, [r7, #12]
 800667a:	2b00      	cmp	r3, #0
 800667c:	d004      	beq.n	8006688 <f_mount+0x5c>
		fs->fs_type = 0;				/* Clear new fs object */
 800667e:	68fa      	ldr	r2, [r7, #12]
 8006680:	2380      	movs	r3, #128	; 0x80
 8006682:	009b      	lsls	r3, r3, #2
 8006684:	2100      	movs	r1, #0
 8006686:	54d1      	strb	r1, [r2, r3]
#if _FS_REENTRANT						/* Create sync object for the new volume */
		if (!ff_cre_syncobj((BYTE)vol, &fs->sobj)) return FR_INT_ERR;
#endif
	}
	FatFs[vol] = fs;					/* Register new fs object */
 8006688:	68f9      	ldr	r1, [r7, #12]
 800668a:	4b0f      	ldr	r3, [pc, #60]	; (80066c8 <f_mount+0x9c>)
 800668c:	69fa      	ldr	r2, [r7, #28]
 800668e:	0092      	lsls	r2, r2, #2
 8006690:	50d1      	str	r1, [r2, r3]

	if (!fs || opt != 1) return FR_OK;	/* Do not mount now, it will be mounted later */
 8006692:	68fb      	ldr	r3, [r7, #12]
 8006694:	2b00      	cmp	r3, #0
 8006696:	d003      	beq.n	80066a0 <f_mount+0x74>
 8006698:	1dfb      	adds	r3, r7, #7
 800669a:	781b      	ldrb	r3, [r3, #0]
 800669c:	2b01      	cmp	r3, #1
 800669e:	d001      	beq.n	80066a4 <f_mount+0x78>
 80066a0:	2300      	movs	r3, #0
 80066a2:	e00d      	b.n	80066c0 <f_mount+0x94>

	res = find_volume(&fs, &path, 0);	/* Force mounted the volume */
 80066a4:	2517      	movs	r5, #23
 80066a6:	197c      	adds	r4, r7, r5
 80066a8:	2308      	movs	r3, #8
 80066aa:	18f9      	adds	r1, r7, r3
 80066ac:	230c      	movs	r3, #12
 80066ae:	18fb      	adds	r3, r7, r3
 80066b0:	2200      	movs	r2, #0
 80066b2:	0018      	movs	r0, r3
 80066b4:	f7ff fc5e 	bl	8005f74 <find_volume>
 80066b8:	0003      	movs	r3, r0
 80066ba:	7023      	strb	r3, [r4, #0]
	LEAVE_FF(fs, res);
 80066bc:	197b      	adds	r3, r7, r5
 80066be:	781b      	ldrb	r3, [r3, #0]
}
 80066c0:	0018      	movs	r0, r3
 80066c2:	46bd      	mov	sp, r7
 80066c4:	b008      	add	sp, #32
 80066c6:	bdb0      	pop	{r4, r5, r7, pc}
 80066c8:	200006dc 	.word	0x200006dc

080066cc <f_open>:
FRESULT f_open (
	FIL* fp,			/* Pointer to the blank file object */
	const TCHAR* path,	/* Pointer to the file name */
	BYTE mode			/* Access mode and file open mode flags */
)
{
 80066cc:	b5f0      	push	{r4, r5, r6, r7, lr}
 80066ce:	4ccf      	ldr	r4, [pc, #828]	; (8006a0c <f_open+0x340>)
 80066d0:	44a5      	add	sp, r4
 80066d2:	af00      	add	r7, sp, #0
 80066d4:	60f8      	str	r0, [r7, #12]
 80066d6:	60b9      	str	r1, [r7, #8]
 80066d8:	4bcd      	ldr	r3, [pc, #820]	; (8006a10 <f_open+0x344>)
 80066da:	2194      	movs	r1, #148	; 0x94
 80066dc:	0089      	lsls	r1, r1, #2
 80066de:	185b      	adds	r3, r3, r1
 80066e0:	19db      	adds	r3, r3, r7
 80066e2:	701a      	strb	r2, [r3, #0]
#if !_FS_READONLY
	DWORD dw, cl;
#endif


	if (!fp) return FR_INVALID_OBJECT;
 80066e4:	68fb      	ldr	r3, [r7, #12]
 80066e6:	2b00      	cmp	r3, #0
 80066e8:	d101      	bne.n	80066ee <f_open+0x22>
 80066ea:	2309      	movs	r3, #9
 80066ec:	e262      	b.n	8006bb4 <f_open+0x4e8>
	fp->fs = 0;			/* Clear file object */
 80066ee:	68fa      	ldr	r2, [r7, #12]
 80066f0:	2380      	movs	r3, #128	; 0x80
 80066f2:	009b      	lsls	r3, r3, #2
 80066f4:	2100      	movs	r1, #0
 80066f6:	50d1      	str	r1, [r2, r3]

	/* Get logical drive number */
#if !_FS_READONLY
	mode &= FA_READ | FA_WRITE | FA_CREATE_ALWAYS | FA_OPEN_ALWAYS | FA_CREATE_NEW;
 80066f8:	4bc5      	ldr	r3, [pc, #788]	; (8006a10 <f_open+0x344>)
 80066fa:	2594      	movs	r5, #148	; 0x94
 80066fc:	00ad      	lsls	r5, r5, #2
 80066fe:	195b      	adds	r3, r3, r5
 8006700:	19db      	adds	r3, r3, r7
 8006702:	4ac3      	ldr	r2, [pc, #780]	; (8006a10 <f_open+0x344>)
 8006704:	1952      	adds	r2, r2, r5
 8006706:	19d2      	adds	r2, r2, r7
 8006708:	7812      	ldrb	r2, [r2, #0]
 800670a:	211f      	movs	r1, #31
 800670c:	400a      	ands	r2, r1
 800670e:	701a      	strb	r2, [r3, #0]
	res = find_volume(&dj.fs, &path, (BYTE)(mode & ~FA_READ));
 8006710:	4bbf      	ldr	r3, [pc, #764]	; (8006a10 <f_open+0x344>)
 8006712:	195b      	adds	r3, r3, r5
 8006714:	19db      	adds	r3, r3, r7
 8006716:	781b      	ldrb	r3, [r3, #0]
 8006718:	2201      	movs	r2, #1
 800671a:	4393      	bics	r3, r2
 800671c:	b2da      	uxtb	r2, r3
 800671e:	4ebd      	ldr	r6, [pc, #756]	; (8006a14 <f_open+0x348>)
 8006720:	19bc      	adds	r4, r7, r6
 8006722:	2308      	movs	r3, #8
 8006724:	18f9      	adds	r1, r7, r3
 8006726:	2320      	movs	r3, #32
 8006728:	18fb      	adds	r3, r7, r3
 800672a:	2080      	movs	r0, #128	; 0x80
 800672c:	0080      	lsls	r0, r0, #2
 800672e:	4684      	mov	ip, r0
 8006730:	4463      	add	r3, ip
 8006732:	0018      	movs	r0, r3
 8006734:	f7ff fc1e 	bl	8005f74 <find_volume>
 8006738:	0003      	movs	r3, r0
 800673a:	7023      	strb	r3, [r4, #0]
#else
	mode &= FA_READ;
	res = find_volume(&dj.fs, &path, 0);
#endif
	if (res == FR_OK) {
 800673c:	19bb      	adds	r3, r7, r6
 800673e:	781b      	ldrb	r3, [r3, #0]
 8006740:	2b00      	cmp	r3, #0
 8006742:	d000      	beq.n	8006746 <f_open+0x7a>
 8006744:	e233      	b.n	8006bae <f_open+0x4e2>
		INIT_BUF(dj);
 8006746:	4bb4      	ldr	r3, [pc, #720]	; (8006a18 <f_open+0x34c>)
 8006748:	195a      	adds	r2, r3, r5
 800674a:	19d2      	adds	r2, r2, r7
 800674c:	2386      	movs	r3, #134	; 0x86
 800674e:	009b      	lsls	r3, r3, #2
 8006750:	2114      	movs	r1, #20
 8006752:	1879      	adds	r1, r7, r1
 8006754:	50d1      	str	r1, [r2, r3]
		res = follow_path(&dj, path);	/* Follow the file path */
 8006756:	68ba      	ldr	r2, [r7, #8]
 8006758:	19bc      	adds	r4, r7, r6
 800675a:	2320      	movs	r3, #32
 800675c:	18fb      	adds	r3, r7, r3
 800675e:	0011      	movs	r1, r2
 8006760:	0018      	movs	r0, r3
 8006762:	f7ff facf 	bl	8005d04 <follow_path>
 8006766:	0003      	movs	r3, r0
 8006768:	7023      	strb	r3, [r4, #0]
		dir = dj.dir;
 800676a:	4bab      	ldr	r3, [pc, #684]	; (8006a18 <f_open+0x34c>)
 800676c:	195b      	adds	r3, r3, r5
 800676e:	19da      	adds	r2, r3, r7
 8006770:	2385      	movs	r3, #133	; 0x85
 8006772:	009b      	lsls	r3, r3, #2
 8006774:	58d3      	ldr	r3, [r2, r3]
 8006776:	2292      	movs	r2, #146	; 0x92
 8006778:	0092      	lsls	r2, r2, #2
 800677a:	18b9      	adds	r1, r7, r2
 800677c:	600b      	str	r3, [r1, #0]
#if !_FS_READONLY	/* R/W configuration */
		if (res == FR_OK) {
 800677e:	19bb      	adds	r3, r7, r6
 8006780:	781b      	ldrb	r3, [r3, #0]
 8006782:	2b00      	cmp	r3, #0
 8006784:	d11d      	bne.n	80067c2 <f_open+0xf6>
			if (!dir)	/* Default directory itself */
 8006786:	18bb      	adds	r3, r7, r2
 8006788:	681b      	ldr	r3, [r3, #0]
 800678a:	2b00      	cmp	r3, #0
 800678c:	d103      	bne.n	8006796 <f_open+0xca>
				res = FR_INVALID_NAME;
 800678e:	19bb      	adds	r3, r7, r6
 8006790:	2206      	movs	r2, #6
 8006792:	701a      	strb	r2, [r3, #0]
 8006794:	e015      	b.n	80067c2 <f_open+0xf6>
#if _FS_LOCK
			else
				res = chk_lock(&dj, (mode & ~FA_READ) ? 1 : 0);
 8006796:	4b9e      	ldr	r3, [pc, #632]	; (8006a10 <f_open+0x344>)
 8006798:	2294      	movs	r2, #148	; 0x94
 800679a:	0092      	lsls	r2, r2, #2
 800679c:	189b      	adds	r3, r3, r2
 800679e:	19db      	adds	r3, r3, r7
 80067a0:	781b      	ldrb	r3, [r3, #0]
 80067a2:	2201      	movs	r2, #1
 80067a4:	4393      	bics	r3, r2
 80067a6:	1e5a      	subs	r2, r3, #1
 80067a8:	4193      	sbcs	r3, r2
 80067aa:	b2db      	uxtb	r3, r3
 80067ac:	001a      	movs	r2, r3
 80067ae:	4b99      	ldr	r3, [pc, #612]	; (8006a14 <f_open+0x348>)
 80067b0:	18fc      	adds	r4, r7, r3
 80067b2:	2320      	movs	r3, #32
 80067b4:	18fb      	adds	r3, r7, r3
 80067b6:	0011      	movs	r1, r2
 80067b8:	0018      	movs	r0, r3
 80067ba:	f7fd ffe1 	bl	8004780 <chk_lock>
 80067be:	0003      	movs	r3, r0
 80067c0:	7023      	strb	r3, [r4, #0]
#endif
		}
		/* Create or Open a file */
		if (mode & (FA_CREATE_ALWAYS | FA_OPEN_ALWAYS | FA_CREATE_NEW)) {
 80067c2:	4b93      	ldr	r3, [pc, #588]	; (8006a10 <f_open+0x344>)
 80067c4:	2294      	movs	r2, #148	; 0x94
 80067c6:	0092      	lsls	r2, r2, #2
 80067c8:	189b      	adds	r3, r3, r2
 80067ca:	19db      	adds	r3, r3, r7
 80067cc:	781b      	ldrb	r3, [r3, #0]
 80067ce:	221c      	movs	r2, #28
 80067d0:	4013      	ands	r3, r2
 80067d2:	d100      	bne.n	80067d6 <f_open+0x10a>
 80067d4:	e106      	b.n	80069e4 <f_open+0x318>
			if (res != FR_OK) {					/* No file, create new */
 80067d6:	4a8f      	ldr	r2, [pc, #572]	; (8006a14 <f_open+0x348>)
 80067d8:	18bb      	adds	r3, r7, r2
 80067da:	781b      	ldrb	r3, [r3, #0]
 80067dc:	2b00      	cmp	r3, #0
 80067de:	d02a      	beq.n	8006836 <f_open+0x16a>
				if (res == FR_NO_FILE)			/* There is no file to open, create a new entry */
 80067e0:	18bb      	adds	r3, r7, r2
 80067e2:	781b      	ldrb	r3, [r3, #0]
 80067e4:	2b04      	cmp	r3, #4
 80067e6:	d10f      	bne.n	8006808 <f_open+0x13c>
#if _FS_LOCK
					res = enq_lock() ? dir_register(&dj) : FR_TOO_MANY_OPEN_FILES;
 80067e8:	f7fe f838 	bl	800485c <enq_lock>
 80067ec:	1e03      	subs	r3, r0, #0
 80067ee:	d007      	beq.n	8006800 <f_open+0x134>
 80067f0:	2320      	movs	r3, #32
 80067f2:	18fb      	adds	r3, r7, r3
 80067f4:	0018      	movs	r0, r3
 80067f6:	f7ff f93c 	bl	8005a72 <dir_register>
 80067fa:	0003      	movs	r3, r0
 80067fc:	001a      	movs	r2, r3
 80067fe:	e000      	b.n	8006802 <f_open+0x136>
 8006800:	2212      	movs	r2, #18
 8006802:	4b84      	ldr	r3, [pc, #528]	; (8006a14 <f_open+0x348>)
 8006804:	18fb      	adds	r3, r7, r3
 8006806:	701a      	strb	r2, [r3, #0]
#else
					res = dir_register(&dj);
#endif
				mode |= FA_CREATE_ALWAYS;		/* File is created */
 8006808:	4b81      	ldr	r3, [pc, #516]	; (8006a10 <f_open+0x344>)
 800680a:	2094      	movs	r0, #148	; 0x94
 800680c:	0080      	lsls	r0, r0, #2
 800680e:	181b      	adds	r3, r3, r0
 8006810:	19db      	adds	r3, r3, r7
 8006812:	4a7f      	ldr	r2, [pc, #508]	; (8006a10 <f_open+0x344>)
 8006814:	1812      	adds	r2, r2, r0
 8006816:	19d2      	adds	r2, r2, r7
 8006818:	7812      	ldrb	r2, [r2, #0]
 800681a:	2108      	movs	r1, #8
 800681c:	430a      	orrs	r2, r1
 800681e:	701a      	strb	r2, [r3, #0]
				dir = dj.dir;					/* New entry */
 8006820:	4b7d      	ldr	r3, [pc, #500]	; (8006a18 <f_open+0x34c>)
 8006822:	181b      	adds	r3, r3, r0
 8006824:	19da      	adds	r2, r3, r7
 8006826:	2385      	movs	r3, #133	; 0x85
 8006828:	009b      	lsls	r3, r3, #2
 800682a:	58d3      	ldr	r3, [r2, r3]
 800682c:	2292      	movs	r2, #146	; 0x92
 800682e:	0092      	lsls	r2, r2, #2
 8006830:	18ba      	adds	r2, r7, r2
 8006832:	6013      	str	r3, [r2, #0]
 8006834:	e01b      	b.n	800686e <f_open+0x1a2>
			}
			else {								/* Any object is already existing */
				if (dir[DIR_Attr] & (AM_RDO | AM_DIR)) {	/* Cannot overwrite it (R/O or DIR) */
 8006836:	2392      	movs	r3, #146	; 0x92
 8006838:	009b      	lsls	r3, r3, #2
 800683a:	18fb      	adds	r3, r7, r3
 800683c:	681b      	ldr	r3, [r3, #0]
 800683e:	330b      	adds	r3, #11
 8006840:	781b      	ldrb	r3, [r3, #0]
 8006842:	001a      	movs	r2, r3
 8006844:	2311      	movs	r3, #17
 8006846:	4013      	ands	r3, r2
 8006848:	d004      	beq.n	8006854 <f_open+0x188>
					res = FR_DENIED;
 800684a:	4b72      	ldr	r3, [pc, #456]	; (8006a14 <f_open+0x348>)
 800684c:	18fb      	adds	r3, r7, r3
 800684e:	2207      	movs	r2, #7
 8006850:	701a      	strb	r2, [r3, #0]
 8006852:	e00c      	b.n	800686e <f_open+0x1a2>
				} else {
					if (mode & FA_CREATE_NEW)	/* Cannot create as new file */
 8006854:	4b6e      	ldr	r3, [pc, #440]	; (8006a10 <f_open+0x344>)
 8006856:	2294      	movs	r2, #148	; 0x94
 8006858:	0092      	lsls	r2, r2, #2
 800685a:	189b      	adds	r3, r3, r2
 800685c:	19db      	adds	r3, r3, r7
 800685e:	781b      	ldrb	r3, [r3, #0]
 8006860:	2204      	movs	r2, #4
 8006862:	4013      	ands	r3, r2
 8006864:	d003      	beq.n	800686e <f_open+0x1a2>
						res = FR_EXIST;
 8006866:	4b6b      	ldr	r3, [pc, #428]	; (8006a14 <f_open+0x348>)
 8006868:	18fb      	adds	r3, r7, r3
 800686a:	2208      	movs	r2, #8
 800686c:	701a      	strb	r2, [r3, #0]
				}
			}
			if (res == FR_OK && (mode & FA_CREATE_ALWAYS)) {	/* Truncate it if overwrite mode */
 800686e:	4869      	ldr	r0, [pc, #420]	; (8006a14 <f_open+0x348>)
 8006870:	183b      	adds	r3, r7, r0
 8006872:	781b      	ldrb	r3, [r3, #0]
 8006874:	2b00      	cmp	r3, #0
 8006876:	d000      	beq.n	800687a <f_open+0x1ae>
 8006878:	e0e7      	b.n	8006a4a <f_open+0x37e>
 800687a:	4b65      	ldr	r3, [pc, #404]	; (8006a10 <f_open+0x344>)
 800687c:	2494      	movs	r4, #148	; 0x94
 800687e:	00a4      	lsls	r4, r4, #2
 8006880:	191b      	adds	r3, r3, r4
 8006882:	19db      	adds	r3, r3, r7
 8006884:	781b      	ldrb	r3, [r3, #0]
 8006886:	2208      	movs	r2, #8
 8006888:	4013      	ands	r3, r2
 800688a:	d100      	bne.n	800688e <f_open+0x1c2>
 800688c:	e0dd      	b.n	8006a4a <f_open+0x37e>
				dw = GET_FATTIME();				/* Created time */
 800688e:	f7fb f9fb 	bl	8001c88 <get_fattime>
 8006892:	0003      	movs	r3, r0
 8006894:	2691      	movs	r6, #145	; 0x91
 8006896:	00b6      	lsls	r6, r6, #2
 8006898:	19ba      	adds	r2, r7, r6
 800689a:	6013      	str	r3, [r2, #0]
				ST_DWORD(dir + DIR_CrtTime, dw);
 800689c:	2192      	movs	r1, #146	; 0x92
 800689e:	0089      	lsls	r1, r1, #2
 80068a0:	187b      	adds	r3, r7, r1
 80068a2:	681b      	ldr	r3, [r3, #0]
 80068a4:	330e      	adds	r3, #14
 80068a6:	19ba      	adds	r2, r7, r6
 80068a8:	6812      	ldr	r2, [r2, #0]
 80068aa:	b2d2      	uxtb	r2, r2
 80068ac:	701a      	strb	r2, [r3, #0]
 80068ae:	19bb      	adds	r3, r7, r6
 80068b0:	681b      	ldr	r3, [r3, #0]
 80068b2:	b29b      	uxth	r3, r3
 80068b4:	0a1b      	lsrs	r3, r3, #8
 80068b6:	b29a      	uxth	r2, r3
 80068b8:	187b      	adds	r3, r7, r1
 80068ba:	681b      	ldr	r3, [r3, #0]
 80068bc:	330f      	adds	r3, #15
 80068be:	b2d2      	uxtb	r2, r2
 80068c0:	701a      	strb	r2, [r3, #0]
 80068c2:	19bb      	adds	r3, r7, r6
 80068c4:	681b      	ldr	r3, [r3, #0]
 80068c6:	0c1a      	lsrs	r2, r3, #16
 80068c8:	187b      	adds	r3, r7, r1
 80068ca:	681b      	ldr	r3, [r3, #0]
 80068cc:	3310      	adds	r3, #16
 80068ce:	b2d2      	uxtb	r2, r2
 80068d0:	701a      	strb	r2, [r3, #0]
 80068d2:	19bb      	adds	r3, r7, r6
 80068d4:	681b      	ldr	r3, [r3, #0]
 80068d6:	0e1a      	lsrs	r2, r3, #24
 80068d8:	187b      	adds	r3, r7, r1
 80068da:	681b      	ldr	r3, [r3, #0]
 80068dc:	3311      	adds	r3, #17
 80068de:	b2d2      	uxtb	r2, r2
 80068e0:	701a      	strb	r2, [r3, #0]
				dir[DIR_Attr] = 0;				/* Reset attribute */
 80068e2:	187b      	adds	r3, r7, r1
 80068e4:	681b      	ldr	r3, [r3, #0]
 80068e6:	330b      	adds	r3, #11
 80068e8:	2200      	movs	r2, #0
 80068ea:	701a      	strb	r2, [r3, #0]
				ST_DWORD(dir + DIR_FileSize, 0);/* size = 0 */
 80068ec:	187b      	adds	r3, r7, r1
 80068ee:	681b      	ldr	r3, [r3, #0]
 80068f0:	331c      	adds	r3, #28
 80068f2:	2200      	movs	r2, #0
 80068f4:	701a      	strb	r2, [r3, #0]
 80068f6:	187b      	adds	r3, r7, r1
 80068f8:	681b      	ldr	r3, [r3, #0]
 80068fa:	331d      	adds	r3, #29
 80068fc:	2200      	movs	r2, #0
 80068fe:	701a      	strb	r2, [r3, #0]
 8006900:	187b      	adds	r3, r7, r1
 8006902:	681b      	ldr	r3, [r3, #0]
 8006904:	331e      	adds	r3, #30
 8006906:	2200      	movs	r2, #0
 8006908:	701a      	strb	r2, [r3, #0]
 800690a:	187b      	adds	r3, r7, r1
 800690c:	681b      	ldr	r3, [r3, #0]
 800690e:	331f      	adds	r3, #31
 8006910:	2200      	movs	r2, #0
 8006912:	701a      	strb	r2, [r3, #0]
				cl = ld_clust(dj.fs, dir);		/* Get start cluster */
 8006914:	4b40      	ldr	r3, [pc, #256]	; (8006a18 <f_open+0x34c>)
 8006916:	0025      	movs	r5, r4
 8006918:	191b      	adds	r3, r3, r4
 800691a:	19da      	adds	r2, r3, r7
 800691c:	2380      	movs	r3, #128	; 0x80
 800691e:	009b      	lsls	r3, r3, #2
 8006920:	58d3      	ldr	r3, [r2, r3]
 8006922:	000c      	movs	r4, r1
 8006924:	187a      	adds	r2, r7, r1
 8006926:	6812      	ldr	r2, [r2, #0]
 8006928:	0011      	movs	r1, r2
 800692a:	0018      	movs	r0, r3
 800692c:	f7fe ffeb 	bl	8005906 <ld_clust>
 8006930:	0003      	movs	r3, r0
 8006932:	2190      	movs	r1, #144	; 0x90
 8006934:	0089      	lsls	r1, r1, #2
 8006936:	187a      	adds	r2, r7, r1
 8006938:	6013      	str	r3, [r2, #0]
				st_clust(dir, 0);				/* cluster = 0 */
 800693a:	193b      	adds	r3, r7, r4
 800693c:	681b      	ldr	r3, [r3, #0]
 800693e:	2100      	movs	r1, #0
 8006940:	0018      	movs	r0, r3
 8006942:	f7ff f80d 	bl	8005960 <st_clust>
				dj.fs->wflag = 1;
 8006946:	4b34      	ldr	r3, [pc, #208]	; (8006a18 <f_open+0x34c>)
 8006948:	195b      	adds	r3, r3, r5
 800694a:	19da      	adds	r2, r3, r7
 800694c:	2380      	movs	r3, #128	; 0x80
 800694e:	009b      	lsls	r3, r3, #2
 8006950:	58d2      	ldr	r2, [r2, r3]
 8006952:	2381      	movs	r3, #129	; 0x81
 8006954:	009b      	lsls	r3, r3, #2
 8006956:	2101      	movs	r1, #1
 8006958:	54d1      	strb	r1, [r2, r3]
				if (cl) {						/* Remove the cluster chain if exist */
 800695a:	2190      	movs	r1, #144	; 0x90
 800695c:	0089      	lsls	r1, r1, #2
 800695e:	187b      	adds	r3, r7, r1
 8006960:	681b      	ldr	r3, [r3, #0]
 8006962:	2b00      	cmp	r3, #0
 8006964:	d100      	bne.n	8006968 <f_open+0x29c>
 8006966:	e070      	b.n	8006a4a <f_open+0x37e>
					dw = dj.fs->winsect;
 8006968:	4b2b      	ldr	r3, [pc, #172]	; (8006a18 <f_open+0x34c>)
 800696a:	195b      	adds	r3, r3, r5
 800696c:	19da      	adds	r2, r3, r7
 800696e:	2380      	movs	r3, #128	; 0x80
 8006970:	009b      	lsls	r3, r3, #2
 8006972:	58d2      	ldr	r2, [r2, r3]
 8006974:	238b      	movs	r3, #139	; 0x8b
 8006976:	009b      	lsls	r3, r3, #2
 8006978:	58d3      	ldr	r3, [r2, r3]
 800697a:	19ba      	adds	r2, r7, r6
 800697c:	6013      	str	r3, [r2, #0]
					res = remove_chain(dj.fs, cl);
 800697e:	4b26      	ldr	r3, [pc, #152]	; (8006a18 <f_open+0x34c>)
 8006980:	195b      	adds	r3, r3, r5
 8006982:	19da      	adds	r2, r3, r7
 8006984:	2380      	movs	r3, #128	; 0x80
 8006986:	009b      	lsls	r3, r3, #2
 8006988:	58d3      	ldr	r3, [r2, r3]
 800698a:	4822      	ldr	r0, [pc, #136]	; (8006a14 <f_open+0x348>)
 800698c:	183c      	adds	r4, r7, r0
 800698e:	187a      	adds	r2, r7, r1
 8006990:	6812      	ldr	r2, [r2, #0]
 8006992:	0011      	movs	r1, r2
 8006994:	0018      	movs	r0, r3
 8006996:	f7fe fc2f 	bl	80051f8 <remove_chain>
 800699a:	0003      	movs	r3, r0
 800699c:	7023      	strb	r3, [r4, #0]
					if (res == FR_OK) {
 800699e:	481d      	ldr	r0, [pc, #116]	; (8006a14 <f_open+0x348>)
 80069a0:	183b      	adds	r3, r7, r0
 80069a2:	781b      	ldrb	r3, [r3, #0]
 80069a4:	2b00      	cmp	r3, #0
 80069a6:	d150      	bne.n	8006a4a <f_open+0x37e>
						dj.fs->last_clust = cl - 1;	/* Reuse the cluster hole */
 80069a8:	4b1b      	ldr	r3, [pc, #108]	; (8006a18 <f_open+0x34c>)
 80069aa:	195b      	adds	r3, r3, r5
 80069ac:	19da      	adds	r2, r3, r7
 80069ae:	2380      	movs	r3, #128	; 0x80
 80069b0:	009b      	lsls	r3, r3, #2
 80069b2:	58d2      	ldr	r2, [r2, r3]
 80069b4:	2190      	movs	r1, #144	; 0x90
 80069b6:	0089      	lsls	r1, r1, #2
 80069b8:	187b      	adds	r3, r7, r1
 80069ba:	681b      	ldr	r3, [r3, #0]
 80069bc:	1e59      	subs	r1, r3, #1
 80069be:	2383      	movs	r3, #131	; 0x83
 80069c0:	009b      	lsls	r3, r3, #2
 80069c2:	50d1      	str	r1, [r2, r3]
						res = move_window(dj.fs, dw);
 80069c4:	4b14      	ldr	r3, [pc, #80]	; (8006a18 <f_open+0x34c>)
 80069c6:	195b      	adds	r3, r3, r5
 80069c8:	19da      	adds	r2, r3, r7
 80069ca:	2380      	movs	r3, #128	; 0x80
 80069cc:	009b      	lsls	r3, r3, #2
 80069ce:	58d3      	ldr	r3, [r2, r3]
 80069d0:	183c      	adds	r4, r7, r0
 80069d2:	19ba      	adds	r2, r7, r6
 80069d4:	6812      	ldr	r2, [r2, #0]
 80069d6:	0011      	movs	r1, r2
 80069d8:	0018      	movs	r0, r3
 80069da:	f7fe f8e9 	bl	8004bb0 <move_window>
 80069de:	0003      	movs	r3, r0
 80069e0:	7023      	strb	r3, [r4, #0]
 80069e2:	e032      	b.n	8006a4a <f_open+0x37e>
					}
				}
			}
		}
		else {	/* Open an existing file */
			if (res == FR_OK) {					/* Follow succeeded */
 80069e4:	490b      	ldr	r1, [pc, #44]	; (8006a14 <f_open+0x348>)
 80069e6:	187b      	adds	r3, r7, r1
 80069e8:	781b      	ldrb	r3, [r3, #0]
 80069ea:	2b00      	cmp	r3, #0
 80069ec:	d12d      	bne.n	8006a4a <f_open+0x37e>
				if (dir[DIR_Attr] & AM_DIR) {	/* It is a directory */
 80069ee:	2392      	movs	r3, #146	; 0x92
 80069f0:	009b      	lsls	r3, r3, #2
 80069f2:	18fb      	adds	r3, r7, r3
 80069f4:	681b      	ldr	r3, [r3, #0]
 80069f6:	330b      	adds	r3, #11
 80069f8:	781b      	ldrb	r3, [r3, #0]
 80069fa:	001a      	movs	r2, r3
 80069fc:	2310      	movs	r3, #16
 80069fe:	4013      	ands	r3, r2
 8006a00:	d00c      	beq.n	8006a1c <f_open+0x350>
					res = FR_NO_FILE;
 8006a02:	187b      	adds	r3, r7, r1
 8006a04:	2204      	movs	r2, #4
 8006a06:	701a      	strb	r2, [r3, #0]
 8006a08:	e01f      	b.n	8006a4a <f_open+0x37e>
 8006a0a:	46c0      	nop			; (mov r8, r8)
 8006a0c:	fffffdac 	.word	0xfffffdac
 8006a10:	fffffdb7 	.word	0xfffffdb7
 8006a14:	0000024f 	.word	0x0000024f
 8006a18:	fffffdd0 	.word	0xfffffdd0
				} else {
					if ((mode & FA_WRITE) && (dir[DIR_Attr] & AM_RDO)) /* R/O violation */
 8006a1c:	4b68      	ldr	r3, [pc, #416]	; (8006bc0 <f_open+0x4f4>)
 8006a1e:	2294      	movs	r2, #148	; 0x94
 8006a20:	0092      	lsls	r2, r2, #2
 8006a22:	189b      	adds	r3, r3, r2
 8006a24:	19db      	adds	r3, r3, r7
 8006a26:	781b      	ldrb	r3, [r3, #0]
 8006a28:	2202      	movs	r2, #2
 8006a2a:	4013      	ands	r3, r2
 8006a2c:	d00d      	beq.n	8006a4a <f_open+0x37e>
 8006a2e:	2392      	movs	r3, #146	; 0x92
 8006a30:	009b      	lsls	r3, r3, #2
 8006a32:	18fb      	adds	r3, r7, r3
 8006a34:	681b      	ldr	r3, [r3, #0]
 8006a36:	330b      	adds	r3, #11
 8006a38:	781b      	ldrb	r3, [r3, #0]
 8006a3a:	001a      	movs	r2, r3
 8006a3c:	2301      	movs	r3, #1
 8006a3e:	4013      	ands	r3, r2
 8006a40:	d003      	beq.n	8006a4a <f_open+0x37e>
						res = FR_DENIED;
 8006a42:	4b60      	ldr	r3, [pc, #384]	; (8006bc4 <f_open+0x4f8>)
 8006a44:	18fb      	adds	r3, r7, r3
 8006a46:	2207      	movs	r2, #7
 8006a48:	701a      	strb	r2, [r3, #0]
				}
			}
		}
		if (res == FR_OK) {
 8006a4a:	4b5e      	ldr	r3, [pc, #376]	; (8006bc4 <f_open+0x4f8>)
 8006a4c:	18fb      	adds	r3, r7, r3
 8006a4e:	781b      	ldrb	r3, [r3, #0]
 8006a50:	2b00      	cmp	r3, #0
 8006a52:	d148      	bne.n	8006ae6 <f_open+0x41a>
			if (mode & FA_CREATE_ALWAYS)		/* Set file change flag if created or overwritten */
 8006a54:	4b5a      	ldr	r3, [pc, #360]	; (8006bc0 <f_open+0x4f4>)
 8006a56:	2194      	movs	r1, #148	; 0x94
 8006a58:	0089      	lsls	r1, r1, #2
 8006a5a:	185b      	adds	r3, r3, r1
 8006a5c:	19db      	adds	r3, r3, r7
 8006a5e:	781b      	ldrb	r3, [r3, #0]
 8006a60:	2208      	movs	r2, #8
 8006a62:	4013      	ands	r3, r2
 8006a64:	d009      	beq.n	8006a7a <f_open+0x3ae>
				mode |= FA__WRITTEN;
 8006a66:	4b56      	ldr	r3, [pc, #344]	; (8006bc0 <f_open+0x4f4>)
 8006a68:	185b      	adds	r3, r3, r1
 8006a6a:	19db      	adds	r3, r3, r7
 8006a6c:	4a54      	ldr	r2, [pc, #336]	; (8006bc0 <f_open+0x4f4>)
 8006a6e:	1852      	adds	r2, r2, r1
 8006a70:	19d2      	adds	r2, r2, r7
 8006a72:	7812      	ldrb	r2, [r2, #0]
 8006a74:	2120      	movs	r1, #32
 8006a76:	430a      	orrs	r2, r1
 8006a78:	701a      	strb	r2, [r3, #0]
			fp->dir_sect = dj.fs->winsect;		/* Pointer to the directory entry */
 8006a7a:	4b53      	ldr	r3, [pc, #332]	; (8006bc8 <f_open+0x4fc>)
 8006a7c:	2094      	movs	r0, #148	; 0x94
 8006a7e:	0080      	lsls	r0, r0, #2
 8006a80:	181b      	adds	r3, r3, r0
 8006a82:	19da      	adds	r2, r3, r7
 8006a84:	2380      	movs	r3, #128	; 0x80
 8006a86:	009b      	lsls	r3, r3, #2
 8006a88:	58d2      	ldr	r2, [r2, r3]
 8006a8a:	238b      	movs	r3, #139	; 0x8b
 8006a8c:	009b      	lsls	r3, r3, #2
 8006a8e:	58d1      	ldr	r1, [r2, r3]
 8006a90:	68fa      	ldr	r2, [r7, #12]
 8006a92:	2387      	movs	r3, #135	; 0x87
 8006a94:	009b      	lsls	r3, r3, #2
 8006a96:	50d1      	str	r1, [r2, r3]
			fp->dir_ptr = dir;
 8006a98:	68fa      	ldr	r2, [r7, #12]
 8006a9a:	2388      	movs	r3, #136	; 0x88
 8006a9c:	009b      	lsls	r3, r3, #2
 8006a9e:	2192      	movs	r1, #146	; 0x92
 8006aa0:	0089      	lsls	r1, r1, #2
 8006aa2:	1879      	adds	r1, r7, r1
 8006aa4:	6809      	ldr	r1, [r1, #0]
 8006aa6:	50d1      	str	r1, [r2, r3]
#if _FS_LOCK
			fp->lockid = inc_lock(&dj, (mode & ~FA_READ) ? 1 : 0);
 8006aa8:	4b45      	ldr	r3, [pc, #276]	; (8006bc0 <f_open+0x4f4>)
 8006aaa:	181b      	adds	r3, r3, r0
 8006aac:	19db      	adds	r3, r3, r7
 8006aae:	781b      	ldrb	r3, [r3, #0]
 8006ab0:	2201      	movs	r2, #1
 8006ab2:	4393      	bics	r3, r2
 8006ab4:	1e5a      	subs	r2, r3, #1
 8006ab6:	4193      	sbcs	r3, r2
 8006ab8:	b2db      	uxtb	r3, r3
 8006aba:	001a      	movs	r2, r3
 8006abc:	2320      	movs	r3, #32
 8006abe:	18fb      	adds	r3, r7, r3
 8006ac0:	0011      	movs	r1, r2
 8006ac2:	0018      	movs	r0, r3
 8006ac4:	f7fd feea 	bl	800489c <inc_lock>
 8006ac8:	0001      	movs	r1, r0
 8006aca:	68fa      	ldr	r2, [r7, #12]
 8006acc:	238a      	movs	r3, #138	; 0x8a
 8006ace:	009b      	lsls	r3, r3, #2
 8006ad0:	50d1      	str	r1, [r2, r3]
			if (!fp->lockid) res = FR_INT_ERR;
 8006ad2:	68fa      	ldr	r2, [r7, #12]
 8006ad4:	238a      	movs	r3, #138	; 0x8a
 8006ad6:	009b      	lsls	r3, r3, #2
 8006ad8:	58d3      	ldr	r3, [r2, r3]
 8006ada:	2b00      	cmp	r3, #0
 8006adc:	d103      	bne.n	8006ae6 <f_open+0x41a>
 8006ade:	4b39      	ldr	r3, [pc, #228]	; (8006bc4 <f_open+0x4f8>)
 8006ae0:	18fb      	adds	r3, r7, r3
 8006ae2:	2202      	movs	r2, #2
 8006ae4:	701a      	strb	r2, [r3, #0]
			}
		}
#endif
		FREE_BUF();

		if (res == FR_OK) {
 8006ae6:	4b37      	ldr	r3, [pc, #220]	; (8006bc4 <f_open+0x4f8>)
 8006ae8:	18fb      	adds	r3, r7, r3
 8006aea:	781b      	ldrb	r3, [r3, #0]
 8006aec:	2b00      	cmp	r3, #0
 8006aee:	d15e      	bne.n	8006bae <f_open+0x4e2>
			fp->flag = mode;					/* File access mode */
 8006af0:	68fb      	ldr	r3, [r7, #12]
 8006af2:	4a33      	ldr	r2, [pc, #204]	; (8006bc0 <f_open+0x4f4>)
 8006af4:	2594      	movs	r5, #148	; 0x94
 8006af6:	00ad      	lsls	r5, r5, #2
 8006af8:	1952      	adds	r2, r2, r5
 8006afa:	19d2      	adds	r2, r2, r7
 8006afc:	4933      	ldr	r1, [pc, #204]	; (8006bcc <f_open+0x500>)
 8006afe:	7812      	ldrb	r2, [r2, #0]
 8006b00:	545a      	strb	r2, [r3, r1]
			fp->err = 0;						/* Clear error flag */
 8006b02:	68fb      	ldr	r3, [r7, #12]
 8006b04:	4a32      	ldr	r2, [pc, #200]	; (8006bd0 <f_open+0x504>)
 8006b06:	2100      	movs	r1, #0
 8006b08:	5499      	strb	r1, [r3, r2]
			fp->sclust = ld_clust(dj.fs, dir);	/* File start cluster */
 8006b0a:	4b2f      	ldr	r3, [pc, #188]	; (8006bc8 <f_open+0x4fc>)
 8006b0c:	195b      	adds	r3, r3, r5
 8006b0e:	19da      	adds	r2, r3, r7
 8006b10:	2380      	movs	r3, #128	; 0x80
 8006b12:	009b      	lsls	r3, r3, #2
 8006b14:	58d3      	ldr	r3, [r2, r3]
 8006b16:	2492      	movs	r4, #146	; 0x92
 8006b18:	00a4      	lsls	r4, r4, #2
 8006b1a:	193a      	adds	r2, r7, r4
 8006b1c:	6812      	ldr	r2, [r2, #0]
 8006b1e:	0011      	movs	r1, r2
 8006b20:	0018      	movs	r0, r3
 8006b22:	f7fe fef0 	bl	8005906 <ld_clust>
 8006b26:	0001      	movs	r1, r0
 8006b28:	68fa      	ldr	r2, [r7, #12]
 8006b2a:	2384      	movs	r3, #132	; 0x84
 8006b2c:	009b      	lsls	r3, r3, #2
 8006b2e:	50d1      	str	r1, [r2, r3]
			fp->fsize = LD_DWORD(dir + DIR_FileSize);	/* File size */
 8006b30:	0021      	movs	r1, r4
 8006b32:	187b      	adds	r3, r7, r1
 8006b34:	681b      	ldr	r3, [r3, #0]
 8006b36:	331f      	adds	r3, #31
 8006b38:	781b      	ldrb	r3, [r3, #0]
 8006b3a:	061a      	lsls	r2, r3, #24
 8006b3c:	187b      	adds	r3, r7, r1
 8006b3e:	681b      	ldr	r3, [r3, #0]
 8006b40:	331e      	adds	r3, #30
 8006b42:	781b      	ldrb	r3, [r3, #0]
 8006b44:	041b      	lsls	r3, r3, #16
 8006b46:	4313      	orrs	r3, r2
 8006b48:	187a      	adds	r2, r7, r1
 8006b4a:	6812      	ldr	r2, [r2, #0]
 8006b4c:	321d      	adds	r2, #29
 8006b4e:	7812      	ldrb	r2, [r2, #0]
 8006b50:	0212      	lsls	r2, r2, #8
 8006b52:	4313      	orrs	r3, r2
 8006b54:	187a      	adds	r2, r7, r1
 8006b56:	6812      	ldr	r2, [r2, #0]
 8006b58:	321c      	adds	r2, #28
 8006b5a:	7812      	ldrb	r2, [r2, #0]
 8006b5c:	4313      	orrs	r3, r2
 8006b5e:	0019      	movs	r1, r3
 8006b60:	68fa      	ldr	r2, [r7, #12]
 8006b62:	2383      	movs	r3, #131	; 0x83
 8006b64:	009b      	lsls	r3, r3, #2
 8006b66:	50d1      	str	r1, [r2, r3]
			fp->fptr = 0;						/* File pointer */
 8006b68:	68fa      	ldr	r2, [r7, #12]
 8006b6a:	2382      	movs	r3, #130	; 0x82
 8006b6c:	009b      	lsls	r3, r3, #2
 8006b6e:	2100      	movs	r1, #0
 8006b70:	50d1      	str	r1, [r2, r3]
			fp->dsect = 0;
 8006b72:	68fa      	ldr	r2, [r7, #12]
 8006b74:	2386      	movs	r3, #134	; 0x86
 8006b76:	009b      	lsls	r3, r3, #2
 8006b78:	2100      	movs	r1, #0
 8006b7a:	50d1      	str	r1, [r2, r3]
#if _USE_FASTSEEK
			fp->cltbl = 0;						/* Normal seek mode */
 8006b7c:	68fa      	ldr	r2, [r7, #12]
 8006b7e:	2389      	movs	r3, #137	; 0x89
 8006b80:	009b      	lsls	r3, r3, #2
 8006b82:	2100      	movs	r1, #0
 8006b84:	50d1      	str	r1, [r2, r3]
#endif
			fp->fs = dj.fs;	 					/* Validate file object */
 8006b86:	4b10      	ldr	r3, [pc, #64]	; (8006bc8 <f_open+0x4fc>)
 8006b88:	195b      	adds	r3, r3, r5
 8006b8a:	19da      	adds	r2, r3, r7
 8006b8c:	2380      	movs	r3, #128	; 0x80
 8006b8e:	009b      	lsls	r3, r3, #2
 8006b90:	58d1      	ldr	r1, [r2, r3]
 8006b92:	68fa      	ldr	r2, [r7, #12]
 8006b94:	2380      	movs	r3, #128	; 0x80
 8006b96:	009b      	lsls	r3, r3, #2
 8006b98:	50d1      	str	r1, [r2, r3]
			fp->id = fp->fs->id;
 8006b9a:	68fa      	ldr	r2, [r7, #12]
 8006b9c:	2380      	movs	r3, #128	; 0x80
 8006b9e:	009b      	lsls	r3, r3, #2
 8006ba0:	58d3      	ldr	r3, [r2, r3]
 8006ba2:	4a0a      	ldr	r2, [pc, #40]	; (8006bcc <f_open+0x500>)
 8006ba4:	5a99      	ldrh	r1, [r3, r2]
 8006ba6:	68fa      	ldr	r2, [r7, #12]
 8006ba8:	2381      	movs	r3, #129	; 0x81
 8006baa:	009b      	lsls	r3, r3, #2
 8006bac:	52d1      	strh	r1, [r2, r3]
		}
	}

	LEAVE_FF(dj.fs, res);
 8006bae:	4b05      	ldr	r3, [pc, #20]	; (8006bc4 <f_open+0x4f8>)
 8006bb0:	18fb      	adds	r3, r7, r3
 8006bb2:	781b      	ldrb	r3, [r3, #0]
}
 8006bb4:	0018      	movs	r0, r3
 8006bb6:	46bd      	mov	sp, r7
 8006bb8:	2395      	movs	r3, #149	; 0x95
 8006bba:	009b      	lsls	r3, r3, #2
 8006bbc:	449d      	add	sp, r3
 8006bbe:	bdf0      	pop	{r4, r5, r6, r7, pc}
 8006bc0:	fffffdb7 	.word	0xfffffdb7
 8006bc4:	0000024f 	.word	0x0000024f
 8006bc8:	fffffdd0 	.word	0xfffffdd0
 8006bcc:	00000206 	.word	0x00000206
 8006bd0:	00000207 	.word	0x00000207

08006bd4 <f_read>:
	FIL* fp, 		/* Pointer to the file object */
	void* buff,		/* Pointer to data buffer */
	UINT btr,		/* Number of bytes to read */
	UINT* br		/* Pointer to number of bytes read */
)
{
 8006bd4:	b5b0      	push	{r4, r5, r7, lr}
 8006bd6:	b08c      	sub	sp, #48	; 0x30
 8006bd8:	af00      	add	r7, sp, #0
 8006bda:	60f8      	str	r0, [r7, #12]
 8006bdc:	60b9      	str	r1, [r7, #8]
 8006bde:	607a      	str	r2, [r7, #4]
 8006be0:	603b      	str	r3, [r7, #0]
	FRESULT res;
	DWORD clst, sect, remain;
	UINT rcnt, cc;
	BYTE csect, *rbuff = (BYTE*)buff;
 8006be2:	68bb      	ldr	r3, [r7, #8]
 8006be4:	623b      	str	r3, [r7, #32]


	*br = 0;	/* Clear read byte counter */
 8006be6:	683b      	ldr	r3, [r7, #0]
 8006be8:	2200      	movs	r2, #0
 8006bea:	601a      	str	r2, [r3, #0]

	res = validate(fp);							/* Check validity */
 8006bec:	251f      	movs	r5, #31
 8006bee:	197c      	adds	r4, r7, r5
 8006bf0:	68fb      	ldr	r3, [r7, #12]
 8006bf2:	0018      	movs	r0, r3
 8006bf4:	f7ff fcdc 	bl	80065b0 <validate>
 8006bf8:	0003      	movs	r3, r0
 8006bfa:	7023      	strb	r3, [r4, #0]
	if (res != FR_OK) LEAVE_FF(fp->fs, res);
 8006bfc:	197b      	adds	r3, r7, r5
 8006bfe:	781b      	ldrb	r3, [r3, #0]
 8006c00:	2b00      	cmp	r3, #0
 8006c02:	d002      	beq.n	8006c0a <f_read+0x36>
 8006c04:	197b      	adds	r3, r7, r5
 8006c06:	781b      	ldrb	r3, [r3, #0]
 8006c08:	e171      	b.n	8006eee <f_read+0x31a>
	if (fp->err)								/* Check error */
 8006c0a:	68fb      	ldr	r3, [r7, #12]
 8006c0c:	4aba      	ldr	r2, [pc, #744]	; (8006ef8 <f_read+0x324>)
 8006c0e:	5c9b      	ldrb	r3, [r3, r2]
 8006c10:	2b00      	cmp	r3, #0
 8006c12:	d003      	beq.n	8006c1c <f_read+0x48>
		LEAVE_FF(fp->fs, (FRESULT)fp->err);
 8006c14:	68fb      	ldr	r3, [r7, #12]
 8006c16:	4ab8      	ldr	r2, [pc, #736]	; (8006ef8 <f_read+0x324>)
 8006c18:	5c9b      	ldrb	r3, [r3, r2]
 8006c1a:	e168      	b.n	8006eee <f_read+0x31a>
	if (!(fp->flag & FA_READ)) 					/* Check access mode */
 8006c1c:	68fb      	ldr	r3, [r7, #12]
 8006c1e:	4ab7      	ldr	r2, [pc, #732]	; (8006efc <f_read+0x328>)
 8006c20:	5c9b      	ldrb	r3, [r3, r2]
 8006c22:	001a      	movs	r2, r3
 8006c24:	2301      	movs	r3, #1
 8006c26:	4013      	ands	r3, r2
 8006c28:	d101      	bne.n	8006c2e <f_read+0x5a>
		LEAVE_FF(fp->fs, FR_DENIED);
 8006c2a:	2307      	movs	r3, #7
 8006c2c:	e15f      	b.n	8006eee <f_read+0x31a>
	remain = fp->fsize - fp->fptr;
 8006c2e:	68fa      	ldr	r2, [r7, #12]
 8006c30:	2383      	movs	r3, #131	; 0x83
 8006c32:	009b      	lsls	r3, r3, #2
 8006c34:	58d2      	ldr	r2, [r2, r3]
 8006c36:	68f9      	ldr	r1, [r7, #12]
 8006c38:	2382      	movs	r3, #130	; 0x82
 8006c3a:	009b      	lsls	r3, r3, #2
 8006c3c:	58cb      	ldr	r3, [r1, r3]
 8006c3e:	1ad3      	subs	r3, r2, r3
 8006c40:	61bb      	str	r3, [r7, #24]
	if (btr > remain) btr = (UINT)remain;		/* Truncate btr by remaining bytes */
 8006c42:	687a      	ldr	r2, [r7, #4]
 8006c44:	69bb      	ldr	r3, [r7, #24]
 8006c46:	429a      	cmp	r2, r3
 8006c48:	d800      	bhi.n	8006c4c <f_read+0x78>
 8006c4a:	e14b      	b.n	8006ee4 <f_read+0x310>
 8006c4c:	69bb      	ldr	r3, [r7, #24]
 8006c4e:	607b      	str	r3, [r7, #4]

	for ( ;  btr;								/* Repeat until all data read */
 8006c50:	e148      	b.n	8006ee4 <f_read+0x310>
		rbuff += rcnt, fp->fptr += rcnt, *br += rcnt, btr -= rcnt) {
		if ((fp->fptr % SS(fp->fs)) == 0) {		/* On the sector boundary? */
 8006c52:	68fa      	ldr	r2, [r7, #12]
 8006c54:	2382      	movs	r3, #130	; 0x82
 8006c56:	009b      	lsls	r3, r3, #2
 8006c58:	58d3      	ldr	r3, [r2, r3]
 8006c5a:	05db      	lsls	r3, r3, #23
 8006c5c:	0ddb      	lsrs	r3, r3, #23
 8006c5e:	d000      	beq.n	8006c62 <f_read+0x8e>
 8006c60:	e10b      	b.n	8006e7a <f_read+0x2a6>
			csect = (BYTE)(fp->fptr / SS(fp->fs) & (fp->fs->csize - 1));	/* Sector offset in the cluster */
 8006c62:	68fa      	ldr	r2, [r7, #12]
 8006c64:	2382      	movs	r3, #130	; 0x82
 8006c66:	009b      	lsls	r3, r3, #2
 8006c68:	58d3      	ldr	r3, [r2, r3]
 8006c6a:	0a5b      	lsrs	r3, r3, #9
 8006c6c:	b2da      	uxtb	r2, r3
 8006c6e:	68f9      	ldr	r1, [r7, #12]
 8006c70:	2380      	movs	r3, #128	; 0x80
 8006c72:	009b      	lsls	r3, r3, #2
 8006c74:	58cb      	ldr	r3, [r1, r3]
 8006c76:	49a2      	ldr	r1, [pc, #648]	; (8006f00 <f_read+0x32c>)
 8006c78:	5c5b      	ldrb	r3, [r3, r1]
 8006c7a:	3b01      	subs	r3, #1
 8006c7c:	b2d9      	uxtb	r1, r3
 8006c7e:	2017      	movs	r0, #23
 8006c80:	183b      	adds	r3, r7, r0
 8006c82:	400a      	ands	r2, r1
 8006c84:	701a      	strb	r2, [r3, #0]
			if (!csect) {						/* On the cluster boundary? */
 8006c86:	183b      	adds	r3, r7, r0
 8006c88:	781b      	ldrb	r3, [r3, #0]
 8006c8a:	2b00      	cmp	r3, #0
 8006c8c:	d141      	bne.n	8006d12 <f_read+0x13e>
				if (fp->fptr == 0) {			/* On the top of the file? */
 8006c8e:	68fa      	ldr	r2, [r7, #12]
 8006c90:	2382      	movs	r3, #130	; 0x82
 8006c92:	009b      	lsls	r3, r3, #2
 8006c94:	58d3      	ldr	r3, [r2, r3]
 8006c96:	2b00      	cmp	r3, #0
 8006c98:	d105      	bne.n	8006ca6 <f_read+0xd2>
					clst = fp->sclust;			/* Follow from the origin */
 8006c9a:	68fa      	ldr	r2, [r7, #12]
 8006c9c:	2384      	movs	r3, #132	; 0x84
 8006c9e:	009b      	lsls	r3, r3, #2
 8006ca0:	58d3      	ldr	r3, [r2, r3]
 8006ca2:	62fb      	str	r3, [r7, #44]	; 0x2c
 8006ca4:	e01e      	b.n	8006ce4 <f_read+0x110>
				} else {						/* Middle or end of the file */
#if _USE_FASTSEEK
					if (fp->cltbl)
 8006ca6:	68fa      	ldr	r2, [r7, #12]
 8006ca8:	2389      	movs	r3, #137	; 0x89
 8006caa:	009b      	lsls	r3, r3, #2
 8006cac:	58d3      	ldr	r3, [r2, r3]
 8006cae:	2b00      	cmp	r3, #0
 8006cb0:	d00b      	beq.n	8006cca <f_read+0xf6>
						clst = clmt_clust(fp, fp->fptr);	/* Get cluster# from the CLMT */
 8006cb2:	68fa      	ldr	r2, [r7, #12]
 8006cb4:	2382      	movs	r3, #130	; 0x82
 8006cb6:	009b      	lsls	r3, r3, #2
 8006cb8:	58d2      	ldr	r2, [r2, r3]
 8006cba:	68fb      	ldr	r3, [r7, #12]
 8006cbc:	0011      	movs	r1, r2
 8006cbe:	0018      	movs	r0, r3
 8006cc0:	f7fe fbc0 	bl	8005444 <clmt_clust>
 8006cc4:	0003      	movs	r3, r0
 8006cc6:	62fb      	str	r3, [r7, #44]	; 0x2c
 8006cc8:	e00c      	b.n	8006ce4 <f_read+0x110>
					else
#endif
						clst = get_fat(fp->fs, fp->clust);	/* Follow cluster chain on the FAT */
 8006cca:	68fa      	ldr	r2, [r7, #12]
 8006ccc:	2380      	movs	r3, #128	; 0x80
 8006cce:	009b      	lsls	r3, r3, #2
 8006cd0:	58d0      	ldr	r0, [r2, r3]
 8006cd2:	68fa      	ldr	r2, [r7, #12]
 8006cd4:	2385      	movs	r3, #133	; 0x85
 8006cd6:	009b      	lsls	r3, r3, #2
 8006cd8:	58d3      	ldr	r3, [r2, r3]
 8006cda:	0019      	movs	r1, r3
 8006cdc:	f7fe f89c 	bl	8004e18 <get_fat>
 8006ce0:	0003      	movs	r3, r0
 8006ce2:	62fb      	str	r3, [r7, #44]	; 0x2c
				}
				if (clst < 2) ABORT(fp->fs, FR_INT_ERR);
 8006ce4:	6afb      	ldr	r3, [r7, #44]	; 0x2c
 8006ce6:	2b01      	cmp	r3, #1
 8006ce8:	d805      	bhi.n	8006cf6 <f_read+0x122>
 8006cea:	68fb      	ldr	r3, [r7, #12]
 8006cec:	4a82      	ldr	r2, [pc, #520]	; (8006ef8 <f_read+0x324>)
 8006cee:	2102      	movs	r1, #2
 8006cf0:	5499      	strb	r1, [r3, r2]
 8006cf2:	2302      	movs	r3, #2
 8006cf4:	e0fb      	b.n	8006eee <f_read+0x31a>
				if (clst == 0xFFFFFFFF) ABORT(fp->fs, FR_DISK_ERR);
 8006cf6:	6afb      	ldr	r3, [r7, #44]	; 0x2c
 8006cf8:	3301      	adds	r3, #1
 8006cfa:	d105      	bne.n	8006d08 <f_read+0x134>
 8006cfc:	68fb      	ldr	r3, [r7, #12]
 8006cfe:	4a7e      	ldr	r2, [pc, #504]	; (8006ef8 <f_read+0x324>)
 8006d00:	2101      	movs	r1, #1
 8006d02:	5499      	strb	r1, [r3, r2]
 8006d04:	2301      	movs	r3, #1
 8006d06:	e0f2      	b.n	8006eee <f_read+0x31a>
				fp->clust = clst;				/* Update current cluster */
 8006d08:	68fa      	ldr	r2, [r7, #12]
 8006d0a:	2385      	movs	r3, #133	; 0x85
 8006d0c:	009b      	lsls	r3, r3, #2
 8006d0e:	6af9      	ldr	r1, [r7, #44]	; 0x2c
 8006d10:	50d1      	str	r1, [r2, r3]
			}
			sect = clust2sect(fp->fs, fp->clust);	/* Get current sector */
 8006d12:	68fa      	ldr	r2, [r7, #12]
 8006d14:	2380      	movs	r3, #128	; 0x80
 8006d16:	009b      	lsls	r3, r3, #2
 8006d18:	58d0      	ldr	r0, [r2, r3]
 8006d1a:	68fa      	ldr	r2, [r7, #12]
 8006d1c:	2385      	movs	r3, #133	; 0x85
 8006d1e:	009b      	lsls	r3, r3, #2
 8006d20:	58d3      	ldr	r3, [r2, r3]
 8006d22:	0019      	movs	r1, r3
 8006d24:	f7fe f854 	bl	8004dd0 <clust2sect>
 8006d28:	0003      	movs	r3, r0
 8006d2a:	613b      	str	r3, [r7, #16]
			if (!sect) ABORT(fp->fs, FR_INT_ERR);
 8006d2c:	693b      	ldr	r3, [r7, #16]
 8006d2e:	2b00      	cmp	r3, #0
 8006d30:	d105      	bne.n	8006d3e <f_read+0x16a>
 8006d32:	68fb      	ldr	r3, [r7, #12]
 8006d34:	4a70      	ldr	r2, [pc, #448]	; (8006ef8 <f_read+0x324>)
 8006d36:	2102      	movs	r1, #2
 8006d38:	5499      	strb	r1, [r3, r2]
 8006d3a:	2302      	movs	r3, #2
 8006d3c:	e0d7      	b.n	8006eee <f_read+0x31a>
			sect += csect;
 8006d3e:	2017      	movs	r0, #23
 8006d40:	183b      	adds	r3, r7, r0
 8006d42:	781b      	ldrb	r3, [r3, #0]
 8006d44:	693a      	ldr	r2, [r7, #16]
 8006d46:	18d3      	adds	r3, r2, r3
 8006d48:	613b      	str	r3, [r7, #16]
			cc = btr / SS(fp->fs);				/* When remaining bytes >= sector size, */
 8006d4a:	687b      	ldr	r3, [r7, #4]
 8006d4c:	0a5b      	lsrs	r3, r3, #9
 8006d4e:	627b      	str	r3, [r7, #36]	; 0x24
			if (cc) {							/* Read maximum contiguous sectors directly */
 8006d50:	6a7b      	ldr	r3, [r7, #36]	; 0x24
 8006d52:	2b00      	cmp	r3, #0
 8006d54:	d04c      	beq.n	8006df0 <f_read+0x21c>
				if (csect + cc > fp->fs->csize)	/* Clip at cluster boundary */
 8006d56:	183b      	adds	r3, r7, r0
 8006d58:	781a      	ldrb	r2, [r3, #0]
 8006d5a:	6a7b      	ldr	r3, [r7, #36]	; 0x24
 8006d5c:	18d3      	adds	r3, r2, r3
 8006d5e:	68f9      	ldr	r1, [r7, #12]
 8006d60:	2280      	movs	r2, #128	; 0x80
 8006d62:	0092      	lsls	r2, r2, #2
 8006d64:	588a      	ldr	r2, [r1, r2]
 8006d66:	4966      	ldr	r1, [pc, #408]	; (8006f00 <f_read+0x32c>)
 8006d68:	5c52      	ldrb	r2, [r2, r1]
 8006d6a:	4293      	cmp	r3, r2
 8006d6c:	d90a      	bls.n	8006d84 <f_read+0x1b0>
					cc = fp->fs->csize - csect;
 8006d6e:	68fa      	ldr	r2, [r7, #12]
 8006d70:	2380      	movs	r3, #128	; 0x80
 8006d72:	009b      	lsls	r3, r3, #2
 8006d74:	58d3      	ldr	r3, [r2, r3]
 8006d76:	4a62      	ldr	r2, [pc, #392]	; (8006f00 <f_read+0x32c>)
 8006d78:	5c9b      	ldrb	r3, [r3, r2]
 8006d7a:	001a      	movs	r2, r3
 8006d7c:	183b      	adds	r3, r7, r0
 8006d7e:	781b      	ldrb	r3, [r3, #0]
 8006d80:	1ad3      	subs	r3, r2, r3
 8006d82:	627b      	str	r3, [r7, #36]	; 0x24
				if (disk_read(fp->fs->drv, rbuff, sect, cc) != RES_OK)
 8006d84:	68fa      	ldr	r2, [r7, #12]
 8006d86:	2380      	movs	r3, #128	; 0x80
 8006d88:	009b      	lsls	r3, r3, #2
 8006d8a:	58d3      	ldr	r3, [r2, r3]
 8006d8c:	4a5d      	ldr	r2, [pc, #372]	; (8006f04 <f_read+0x330>)
 8006d8e:	5c98      	ldrb	r0, [r3, r2]
 8006d90:	6a7b      	ldr	r3, [r7, #36]	; 0x24
 8006d92:	693a      	ldr	r2, [r7, #16]
 8006d94:	6a39      	ldr	r1, [r7, #32]
 8006d96:	f7fd fc07 	bl	80045a8 <disk_read>
 8006d9a:	1e03      	subs	r3, r0, #0
 8006d9c:	d005      	beq.n	8006daa <f_read+0x1d6>
					ABORT(fp->fs, FR_DISK_ERR);
 8006d9e:	68fb      	ldr	r3, [r7, #12]
 8006da0:	4a55      	ldr	r2, [pc, #340]	; (8006ef8 <f_read+0x324>)
 8006da2:	2101      	movs	r1, #1
 8006da4:	5499      	strb	r1, [r3, r2]
 8006da6:	2301      	movs	r3, #1
 8006da8:	e0a1      	b.n	8006eee <f_read+0x31a>
#if !_FS_READONLY && _FS_MINIMIZE <= 2			/* Replace one of the read sectors with cached data if it contains a dirty sector */
#if _FS_TINY
				if (fp->fs->wflag && fp->fs->winsect - sect < cc)
					mem_cpy(rbuff + ((fp->fs->winsect - sect) * SS(fp->fs)), fp->fs->win.d8, SS(fp->fs));
#else
				if ((fp->flag & FA__DIRTY) && fp->dsect - sect < cc)
 8006daa:	68fb      	ldr	r3, [r7, #12]
 8006dac:	4a53      	ldr	r2, [pc, #332]	; (8006efc <f_read+0x328>)
 8006dae:	5c9b      	ldrb	r3, [r3, r2]
 8006db0:	001a      	movs	r2, r3
 8006db2:	2340      	movs	r3, #64	; 0x40
 8006db4:	4013      	ands	r3, r2
 8006db6:	d017      	beq.n	8006de8 <f_read+0x214>
 8006db8:	68fa      	ldr	r2, [r7, #12]
 8006dba:	2386      	movs	r3, #134	; 0x86
 8006dbc:	009b      	lsls	r3, r3, #2
 8006dbe:	58d2      	ldr	r2, [r2, r3]
 8006dc0:	693b      	ldr	r3, [r7, #16]
 8006dc2:	1ad3      	subs	r3, r2, r3
 8006dc4:	6a7a      	ldr	r2, [r7, #36]	; 0x24
 8006dc6:	429a      	cmp	r2, r3
 8006dc8:	d90e      	bls.n	8006de8 <f_read+0x214>
					mem_cpy(rbuff + ((fp->dsect - sect) * SS(fp->fs)), fp->buf.d8, SS(fp->fs));
 8006dca:	68fa      	ldr	r2, [r7, #12]
 8006dcc:	2386      	movs	r3, #134	; 0x86
 8006dce:	009b      	lsls	r3, r3, #2
 8006dd0:	58d2      	ldr	r2, [r2, r3]
 8006dd2:	693b      	ldr	r3, [r7, #16]
 8006dd4:	1ad3      	subs	r3, r2, r3
 8006dd6:	025b      	lsls	r3, r3, #9
 8006dd8:	6a3a      	ldr	r2, [r7, #32]
 8006dda:	18d3      	adds	r3, r2, r3
 8006ddc:	68f9      	ldr	r1, [r7, #12]
 8006dde:	2280      	movs	r2, #128	; 0x80
 8006de0:	0092      	lsls	r2, r2, #2
 8006de2:	0018      	movs	r0, r3
 8006de4:	f7fd fc58 	bl	8004698 <mem_cpy>
#endif
#endif
				rcnt = SS(fp->fs) * cc;			/* Number of bytes transferred */
 8006de8:	6a7b      	ldr	r3, [r7, #36]	; 0x24
 8006dea:	025b      	lsls	r3, r3, #9
 8006dec:	62bb      	str	r3, [r7, #40]	; 0x28
				continue;
 8006dee:	e061      	b.n	8006eb4 <f_read+0x2e0>
			}
#if !_FS_TINY
			if (fp->dsect != sect) {			/* Load data sector if not in cache */
 8006df0:	68fa      	ldr	r2, [r7, #12]
 8006df2:	2386      	movs	r3, #134	; 0x86
 8006df4:	009b      	lsls	r3, r3, #2
 8006df6:	58d3      	ldr	r3, [r2, r3]
 8006df8:	693a      	ldr	r2, [r7, #16]
 8006dfa:	429a      	cmp	r2, r3
 8006dfc:	d038      	beq.n	8006e70 <f_read+0x29c>
#if !_FS_READONLY
				if (fp->flag & FA__DIRTY) {		/* Write-back dirty sector cache */
 8006dfe:	68fb      	ldr	r3, [r7, #12]
 8006e00:	4a3e      	ldr	r2, [pc, #248]	; (8006efc <f_read+0x328>)
 8006e02:	5c9b      	ldrb	r3, [r3, r2]
 8006e04:	001a      	movs	r2, r3
 8006e06:	2340      	movs	r3, #64	; 0x40
 8006e08:	4013      	ands	r3, r2
 8006e0a:	d01e      	beq.n	8006e4a <f_read+0x276>
					if (disk_write(fp->fs->drv, fp->buf.d8, fp->dsect, 1) != RES_OK)
 8006e0c:	68fa      	ldr	r2, [r7, #12]
 8006e0e:	2380      	movs	r3, #128	; 0x80
 8006e10:	009b      	lsls	r3, r3, #2
 8006e12:	58d3      	ldr	r3, [r2, r3]
 8006e14:	4a3b      	ldr	r2, [pc, #236]	; (8006f04 <f_read+0x330>)
 8006e16:	5c98      	ldrb	r0, [r3, r2]
 8006e18:	68f9      	ldr	r1, [r7, #12]
 8006e1a:	68fa      	ldr	r2, [r7, #12]
 8006e1c:	2386      	movs	r3, #134	; 0x86
 8006e1e:	009b      	lsls	r3, r3, #2
 8006e20:	58d2      	ldr	r2, [r2, r3]
 8006e22:	2301      	movs	r3, #1
 8006e24:	f7fd fbe8 	bl	80045f8 <disk_write>
 8006e28:	1e03      	subs	r3, r0, #0
 8006e2a:	d005      	beq.n	8006e38 <f_read+0x264>
						ABORT(fp->fs, FR_DISK_ERR);
 8006e2c:	68fb      	ldr	r3, [r7, #12]
 8006e2e:	4a32      	ldr	r2, [pc, #200]	; (8006ef8 <f_read+0x324>)
 8006e30:	2101      	movs	r1, #1
 8006e32:	5499      	strb	r1, [r3, r2]
 8006e34:	2301      	movs	r3, #1
 8006e36:	e05a      	b.n	8006eee <f_read+0x31a>
					fp->flag &= ~FA__DIRTY;
 8006e38:	68fb      	ldr	r3, [r7, #12]
 8006e3a:	4a30      	ldr	r2, [pc, #192]	; (8006efc <f_read+0x328>)
 8006e3c:	5c9b      	ldrb	r3, [r3, r2]
 8006e3e:	2240      	movs	r2, #64	; 0x40
 8006e40:	4393      	bics	r3, r2
 8006e42:	b2d9      	uxtb	r1, r3
 8006e44:	68fb      	ldr	r3, [r7, #12]
 8006e46:	4a2d      	ldr	r2, [pc, #180]	; (8006efc <f_read+0x328>)
 8006e48:	5499      	strb	r1, [r3, r2]
				}
#endif
				if (disk_read(fp->fs->drv, fp->buf.d8, sect, 1) != RES_OK)	/* Fill sector cache */
 8006e4a:	68fa      	ldr	r2, [r7, #12]
 8006e4c:	2380      	movs	r3, #128	; 0x80
 8006e4e:	009b      	lsls	r3, r3, #2
 8006e50:	58d3      	ldr	r3, [r2, r3]
 8006e52:	4a2c      	ldr	r2, [pc, #176]	; (8006f04 <f_read+0x330>)
 8006e54:	5c98      	ldrb	r0, [r3, r2]
 8006e56:	68f9      	ldr	r1, [r7, #12]
 8006e58:	693a      	ldr	r2, [r7, #16]
 8006e5a:	2301      	movs	r3, #1
 8006e5c:	f7fd fba4 	bl	80045a8 <disk_read>
 8006e60:	1e03      	subs	r3, r0, #0
 8006e62:	d005      	beq.n	8006e70 <f_read+0x29c>
					ABORT(fp->fs, FR_DISK_ERR);
 8006e64:	68fb      	ldr	r3, [r7, #12]
 8006e66:	4a24      	ldr	r2, [pc, #144]	; (8006ef8 <f_read+0x324>)
 8006e68:	2101      	movs	r1, #1
 8006e6a:	5499      	strb	r1, [r3, r2]
 8006e6c:	2301      	movs	r3, #1
 8006e6e:	e03e      	b.n	8006eee <f_read+0x31a>
			}
#endif
			fp->dsect = sect;
 8006e70:	68fa      	ldr	r2, [r7, #12]
 8006e72:	2386      	movs	r3, #134	; 0x86
 8006e74:	009b      	lsls	r3, r3, #2
 8006e76:	6939      	ldr	r1, [r7, #16]
 8006e78:	50d1      	str	r1, [r2, r3]
		}
		rcnt = SS(fp->fs) - ((UINT)fp->fptr % SS(fp->fs));	/* Get partial sector data from sector buffer */
 8006e7a:	68fa      	ldr	r2, [r7, #12]
 8006e7c:	2382      	movs	r3, #130	; 0x82
 8006e7e:	009b      	lsls	r3, r3, #2
 8006e80:	58d3      	ldr	r3, [r2, r3]
 8006e82:	05db      	lsls	r3, r3, #23
 8006e84:	0ddb      	lsrs	r3, r3, #23
 8006e86:	2280      	movs	r2, #128	; 0x80
 8006e88:	0092      	lsls	r2, r2, #2
 8006e8a:	1ad3      	subs	r3, r2, r3
 8006e8c:	62bb      	str	r3, [r7, #40]	; 0x28
		if (rcnt > btr) rcnt = btr;
 8006e8e:	6aba      	ldr	r2, [r7, #40]	; 0x28
 8006e90:	687b      	ldr	r3, [r7, #4]
 8006e92:	429a      	cmp	r2, r3
 8006e94:	d901      	bls.n	8006e9a <f_read+0x2c6>
 8006e96:	687b      	ldr	r3, [r7, #4]
 8006e98:	62bb      	str	r3, [r7, #40]	; 0x28
#if _FS_TINY
		if (move_window(fp->fs, fp->dsect) != FR_OK)		/* Move sector window */
			ABORT(fp->fs, FR_DISK_ERR);
		mem_cpy(rbuff, &fp->fs->win.d8[fp->fptr % SS(fp->fs)], rcnt);	/* Pick partial sector */
#else
		mem_cpy(rbuff, &fp->buf.d8[fp->fptr % SS(fp->fs)], rcnt);	/* Pick partial sector */
 8006e9a:	68fa      	ldr	r2, [r7, #12]
 8006e9c:	2382      	movs	r3, #130	; 0x82
 8006e9e:	009b      	lsls	r3, r3, #2
 8006ea0:	58d3      	ldr	r3, [r2, r3]
 8006ea2:	05db      	lsls	r3, r3, #23
 8006ea4:	0ddb      	lsrs	r3, r3, #23
 8006ea6:	68fa      	ldr	r2, [r7, #12]
 8006ea8:	18d1      	adds	r1, r2, r3
 8006eaa:	6aba      	ldr	r2, [r7, #40]	; 0x28
 8006eac:	6a3b      	ldr	r3, [r7, #32]
 8006eae:	0018      	movs	r0, r3
 8006eb0:	f7fd fbf2 	bl	8004698 <mem_cpy>
		rbuff += rcnt, fp->fptr += rcnt, *br += rcnt, btr -= rcnt) {
 8006eb4:	6a3a      	ldr	r2, [r7, #32]
 8006eb6:	6abb      	ldr	r3, [r7, #40]	; 0x28
 8006eb8:	18d3      	adds	r3, r2, r3
 8006eba:	623b      	str	r3, [r7, #32]
 8006ebc:	68fa      	ldr	r2, [r7, #12]
 8006ebe:	2382      	movs	r3, #130	; 0x82
 8006ec0:	009b      	lsls	r3, r3, #2
 8006ec2:	58d2      	ldr	r2, [r2, r3]
 8006ec4:	6abb      	ldr	r3, [r7, #40]	; 0x28
 8006ec6:	18d1      	adds	r1, r2, r3
 8006ec8:	68fa      	ldr	r2, [r7, #12]
 8006eca:	2382      	movs	r3, #130	; 0x82
 8006ecc:	009b      	lsls	r3, r3, #2
 8006ece:	50d1      	str	r1, [r2, r3]
 8006ed0:	683b      	ldr	r3, [r7, #0]
 8006ed2:	681a      	ldr	r2, [r3, #0]
 8006ed4:	6abb      	ldr	r3, [r7, #40]	; 0x28
 8006ed6:	18d2      	adds	r2, r2, r3
 8006ed8:	683b      	ldr	r3, [r7, #0]
 8006eda:	601a      	str	r2, [r3, #0]
 8006edc:	687a      	ldr	r2, [r7, #4]
 8006ede:	6abb      	ldr	r3, [r7, #40]	; 0x28
 8006ee0:	1ad3      	subs	r3, r2, r3
 8006ee2:	607b      	str	r3, [r7, #4]
	for ( ;  btr;								/* Repeat until all data read */
 8006ee4:	687b      	ldr	r3, [r7, #4]
 8006ee6:	2b00      	cmp	r3, #0
 8006ee8:	d000      	beq.n	8006eec <f_read+0x318>
 8006eea:	e6b2      	b.n	8006c52 <f_read+0x7e>
#endif
	}

	LEAVE_FF(fp->fs, FR_OK);
 8006eec:	2300      	movs	r3, #0
}
 8006eee:	0018      	movs	r0, r3
 8006ef0:	46bd      	mov	sp, r7
 8006ef2:	b00c      	add	sp, #48	; 0x30
 8006ef4:	bdb0      	pop	{r4, r5, r7, pc}
 8006ef6:	46c0      	nop			; (mov r8, r8)
 8006ef8:	00000207 	.word	0x00000207
 8006efc:	00000206 	.word	0x00000206
 8006f00:	00000202 	.word	0x00000202
 8006f04:	00000201 	.word	0x00000201

08006f08 <f_sync>:
/*-----------------------------------------------------------------------*/

FRESULT f_sync (
	FIL* fp		/* Pointer to the file object */
)
{
 8006f08:	b5b0      	push	{r4, r5, r7, lr}
 8006f0a:	b086      	sub	sp, #24
 8006f0c:	af00      	add	r7, sp, #0
 8006f0e:	6078      	str	r0, [r7, #4]
	FRESULT res;
	DWORD tm;
	BYTE *dir;


	res = validate(fp);					/* Check validity of the object */
 8006f10:	2517      	movs	r5, #23
 8006f12:	197c      	adds	r4, r7, r5
 8006f14:	687b      	ldr	r3, [r7, #4]
 8006f16:	0018      	movs	r0, r3
 8006f18:	f7ff fb4a 	bl	80065b0 <validate>
 8006f1c:	0003      	movs	r3, r0
 8006f1e:	7023      	strb	r3, [r4, #0]
	if (res == FR_OK) {
 8006f20:	197b      	adds	r3, r7, r5
 8006f22:	781b      	ldrb	r3, [r3, #0]
 8006f24:	2b00      	cmp	r3, #0
 8006f26:	d000      	beq.n	8006f2a <f_sync+0x22>
 8006f28:	e0b9      	b.n	800709e <f_sync+0x196>
		if (fp->flag & FA__WRITTEN) {	/* Has the file been written? */
 8006f2a:	687b      	ldr	r3, [r7, #4]
 8006f2c:	4a5f      	ldr	r2, [pc, #380]	; (80070ac <f_sync+0x1a4>)
 8006f2e:	5c9b      	ldrb	r3, [r3, r2]
 8006f30:	001a      	movs	r2, r3
 8006f32:	2320      	movs	r3, #32
 8006f34:	4013      	ands	r3, r2
 8006f36:	d100      	bne.n	8006f3a <f_sync+0x32>
 8006f38:	e0b1      	b.n	800709e <f_sync+0x196>
			/* Write-back dirty buffer */
#if !_FS_TINY
			if (fp->flag & FA__DIRTY) {
 8006f3a:	687b      	ldr	r3, [r7, #4]
 8006f3c:	4a5b      	ldr	r2, [pc, #364]	; (80070ac <f_sync+0x1a4>)
 8006f3e:	5c9b      	ldrb	r3, [r3, r2]
 8006f40:	001a      	movs	r2, r3
 8006f42:	2340      	movs	r3, #64	; 0x40
 8006f44:	4013      	ands	r3, r2
 8006f46:	d01a      	beq.n	8006f7e <f_sync+0x76>
				if (disk_write(fp->fs->drv, fp->buf.d8, fp->dsect, 1) != RES_OK)
 8006f48:	687a      	ldr	r2, [r7, #4]
 8006f4a:	2380      	movs	r3, #128	; 0x80
 8006f4c:	009b      	lsls	r3, r3, #2
 8006f4e:	58d3      	ldr	r3, [r2, r3]
 8006f50:	4a57      	ldr	r2, [pc, #348]	; (80070b0 <f_sync+0x1a8>)
 8006f52:	5c98      	ldrb	r0, [r3, r2]
 8006f54:	6879      	ldr	r1, [r7, #4]
 8006f56:	687a      	ldr	r2, [r7, #4]
 8006f58:	2386      	movs	r3, #134	; 0x86
 8006f5a:	009b      	lsls	r3, r3, #2
 8006f5c:	58d2      	ldr	r2, [r2, r3]
 8006f5e:	2301      	movs	r3, #1
 8006f60:	f7fd fb4a 	bl	80045f8 <disk_write>
 8006f64:	1e03      	subs	r3, r0, #0
 8006f66:	d001      	beq.n	8006f6c <f_sync+0x64>
					LEAVE_FF(fp->fs, FR_DISK_ERR);
 8006f68:	2301      	movs	r3, #1
 8006f6a:	e09b      	b.n	80070a4 <f_sync+0x19c>
				fp->flag &= ~FA__DIRTY;
 8006f6c:	687b      	ldr	r3, [r7, #4]
 8006f6e:	4a4f      	ldr	r2, [pc, #316]	; (80070ac <f_sync+0x1a4>)
 8006f70:	5c9b      	ldrb	r3, [r3, r2]
 8006f72:	2240      	movs	r2, #64	; 0x40
 8006f74:	4393      	bics	r3, r2
 8006f76:	b2d9      	uxtb	r1, r3
 8006f78:	687b      	ldr	r3, [r7, #4]
 8006f7a:	4a4c      	ldr	r2, [pc, #304]	; (80070ac <f_sync+0x1a4>)
 8006f7c:	5499      	strb	r1, [r3, r2]
			}
#endif
			/* Update the directory entry */
			res = move_window(fp->fs, fp->dir_sect);
 8006f7e:	687a      	ldr	r2, [r7, #4]
 8006f80:	2380      	movs	r3, #128	; 0x80
 8006f82:	009b      	lsls	r3, r3, #2
 8006f84:	58d0      	ldr	r0, [r2, r3]
 8006f86:	687a      	ldr	r2, [r7, #4]
 8006f88:	2387      	movs	r3, #135	; 0x87
 8006f8a:	009b      	lsls	r3, r3, #2
 8006f8c:	58d3      	ldr	r3, [r2, r3]
 8006f8e:	2517      	movs	r5, #23
 8006f90:	197c      	adds	r4, r7, r5
 8006f92:	0019      	movs	r1, r3
 8006f94:	f7fd fe0c 	bl	8004bb0 <move_window>
 8006f98:	0003      	movs	r3, r0
 8006f9a:	7023      	strb	r3, [r4, #0]
			if (res == FR_OK) {
 8006f9c:	002c      	movs	r4, r5
 8006f9e:	193b      	adds	r3, r7, r4
 8006fa0:	781b      	ldrb	r3, [r3, #0]
 8006fa2:	2b00      	cmp	r3, #0
 8006fa4:	d17b      	bne.n	800709e <f_sync+0x196>
				dir = fp->dir_ptr;
 8006fa6:	687a      	ldr	r2, [r7, #4]
 8006fa8:	2388      	movs	r3, #136	; 0x88
 8006faa:	009b      	lsls	r3, r3, #2
 8006fac:	58d3      	ldr	r3, [r2, r3]
 8006fae:	613b      	str	r3, [r7, #16]
				dir[DIR_Attr] |= AM_ARC;					/* Set archive bit */
 8006fb0:	693b      	ldr	r3, [r7, #16]
 8006fb2:	330b      	adds	r3, #11
 8006fb4:	781a      	ldrb	r2, [r3, #0]
 8006fb6:	693b      	ldr	r3, [r7, #16]
 8006fb8:	330b      	adds	r3, #11
 8006fba:	2120      	movs	r1, #32
 8006fbc:	430a      	orrs	r2, r1
 8006fbe:	b2d2      	uxtb	r2, r2
 8006fc0:	701a      	strb	r2, [r3, #0]
				ST_DWORD(dir + DIR_FileSize, fp->fsize);	/* Update file size */
 8006fc2:	687a      	ldr	r2, [r7, #4]
 8006fc4:	2383      	movs	r3, #131	; 0x83
 8006fc6:	009b      	lsls	r3, r3, #2
 8006fc8:	58d2      	ldr	r2, [r2, r3]
 8006fca:	693b      	ldr	r3, [r7, #16]
 8006fcc:	331c      	adds	r3, #28
 8006fce:	b2d2      	uxtb	r2, r2
 8006fd0:	701a      	strb	r2, [r3, #0]
 8006fd2:	687a      	ldr	r2, [r7, #4]
 8006fd4:	2383      	movs	r3, #131	; 0x83
 8006fd6:	009b      	lsls	r3, r3, #2
 8006fd8:	58d3      	ldr	r3, [r2, r3]
 8006fda:	b29b      	uxth	r3, r3
 8006fdc:	0a1b      	lsrs	r3, r3, #8
 8006fde:	b29a      	uxth	r2, r3
 8006fe0:	693b      	ldr	r3, [r7, #16]
 8006fe2:	331d      	adds	r3, #29
 8006fe4:	b2d2      	uxtb	r2, r2
 8006fe6:	701a      	strb	r2, [r3, #0]
 8006fe8:	687a      	ldr	r2, [r7, #4]
 8006fea:	2383      	movs	r3, #131	; 0x83
 8006fec:	009b      	lsls	r3, r3, #2
 8006fee:	58d3      	ldr	r3, [r2, r3]
 8006ff0:	0c1a      	lsrs	r2, r3, #16
 8006ff2:	693b      	ldr	r3, [r7, #16]
 8006ff4:	331e      	adds	r3, #30
 8006ff6:	b2d2      	uxtb	r2, r2
 8006ff8:	701a      	strb	r2, [r3, #0]
 8006ffa:	687a      	ldr	r2, [r7, #4]
 8006ffc:	2383      	movs	r3, #131	; 0x83
 8006ffe:	009b      	lsls	r3, r3, #2
 8007000:	58d3      	ldr	r3, [r2, r3]
 8007002:	0e1a      	lsrs	r2, r3, #24
 8007004:	693b      	ldr	r3, [r7, #16]
 8007006:	331f      	adds	r3, #31
 8007008:	b2d2      	uxtb	r2, r2
 800700a:	701a      	strb	r2, [r3, #0]
				st_clust(dir, fp->sclust);					/* Update start cluster */
 800700c:	687a      	ldr	r2, [r7, #4]
 800700e:	2384      	movs	r3, #132	; 0x84
 8007010:	009b      	lsls	r3, r3, #2
 8007012:	58d2      	ldr	r2, [r2, r3]
 8007014:	693b      	ldr	r3, [r7, #16]
 8007016:	0011      	movs	r1, r2
 8007018:	0018      	movs	r0, r3
 800701a:	f7fe fca1 	bl	8005960 <st_clust>
				tm = GET_FATTIME();							/* Update updated time */
 800701e:	f7fa fe33 	bl	8001c88 <get_fattime>
 8007022:	0003      	movs	r3, r0
 8007024:	60fb      	str	r3, [r7, #12]
				ST_DWORD(dir + DIR_WrtTime, tm);
 8007026:	693b      	ldr	r3, [r7, #16]
 8007028:	3316      	adds	r3, #22
 800702a:	68fa      	ldr	r2, [r7, #12]
 800702c:	b2d2      	uxtb	r2, r2
 800702e:	701a      	strb	r2, [r3, #0]
 8007030:	68fb      	ldr	r3, [r7, #12]
 8007032:	b29b      	uxth	r3, r3
 8007034:	0a1b      	lsrs	r3, r3, #8
 8007036:	b29a      	uxth	r2, r3
 8007038:	693b      	ldr	r3, [r7, #16]
 800703a:	3317      	adds	r3, #23
 800703c:	b2d2      	uxtb	r2, r2
 800703e:	701a      	strb	r2, [r3, #0]
 8007040:	68fb      	ldr	r3, [r7, #12]
 8007042:	0c1a      	lsrs	r2, r3, #16
 8007044:	693b      	ldr	r3, [r7, #16]
 8007046:	3318      	adds	r3, #24
 8007048:	b2d2      	uxtb	r2, r2
 800704a:	701a      	strb	r2, [r3, #0]
 800704c:	68fb      	ldr	r3, [r7, #12]
 800704e:	0e1a      	lsrs	r2, r3, #24
 8007050:	693b      	ldr	r3, [r7, #16]
 8007052:	3319      	adds	r3, #25
 8007054:	b2d2      	uxtb	r2, r2
 8007056:	701a      	strb	r2, [r3, #0]
				ST_WORD(dir + DIR_LstAccDate, 0);
 8007058:	693b      	ldr	r3, [r7, #16]
 800705a:	3312      	adds	r3, #18
 800705c:	2200      	movs	r2, #0
 800705e:	701a      	strb	r2, [r3, #0]
 8007060:	693b      	ldr	r3, [r7, #16]
 8007062:	3313      	adds	r3, #19
 8007064:	2200      	movs	r2, #0
 8007066:	701a      	strb	r2, [r3, #0]
				fp->flag &= ~FA__WRITTEN;
 8007068:	687b      	ldr	r3, [r7, #4]
 800706a:	4a10      	ldr	r2, [pc, #64]	; (80070ac <f_sync+0x1a4>)
 800706c:	5c9b      	ldrb	r3, [r3, r2]
 800706e:	2220      	movs	r2, #32
 8007070:	4393      	bics	r3, r2
 8007072:	b2d9      	uxtb	r1, r3
 8007074:	687b      	ldr	r3, [r7, #4]
 8007076:	4a0d      	ldr	r2, [pc, #52]	; (80070ac <f_sync+0x1a4>)
 8007078:	5499      	strb	r1, [r3, r2]
				fp->fs->wflag = 1;
 800707a:	687a      	ldr	r2, [r7, #4]
 800707c:	2380      	movs	r3, #128	; 0x80
 800707e:	009b      	lsls	r3, r3, #2
 8007080:	58d2      	ldr	r2, [r2, r3]
 8007082:	2381      	movs	r3, #129	; 0x81
 8007084:	009b      	lsls	r3, r3, #2
 8007086:	2101      	movs	r1, #1
 8007088:	54d1      	strb	r1, [r2, r3]
				res = sync_fs(fp->fs);
 800708a:	687a      	ldr	r2, [r7, #4]
 800708c:	2380      	movs	r3, #128	; 0x80
 800708e:	009b      	lsls	r3, r3, #2
 8007090:	58d3      	ldr	r3, [r2, r3]
 8007092:	193c      	adds	r4, r7, r4
 8007094:	0018      	movs	r0, r3
 8007096:	f7fd fdc7 	bl	8004c28 <sync_fs>
 800709a:	0003      	movs	r3, r0
 800709c:	7023      	strb	r3, [r4, #0]
			}
		}
	}

	LEAVE_FF(fp->fs, res);
 800709e:	2317      	movs	r3, #23
 80070a0:	18fb      	adds	r3, r7, r3
 80070a2:	781b      	ldrb	r3, [r3, #0]
}
 80070a4:	0018      	movs	r0, r3
 80070a6:	46bd      	mov	sp, r7
 80070a8:	b006      	add	sp, #24
 80070aa:	bdb0      	pop	{r4, r5, r7, pc}
 80070ac:	00000206 	.word	0x00000206
 80070b0:	00000201 	.word	0x00000201

080070b4 <f_close>:
/*-----------------------------------------------------------------------*/

FRESULT f_close (
	FIL *fp		/* Pointer to the file object to be closed */
)
{
 80070b4:	b5b0      	push	{r4, r5, r7, lr}
 80070b6:	b084      	sub	sp, #16
 80070b8:	af00      	add	r7, sp, #0
 80070ba:	6078      	str	r0, [r7, #4]
	FRESULT res;


#if !_FS_READONLY
	res = f_sync(fp);					/* Flush cached data */
 80070bc:	250f      	movs	r5, #15
 80070be:	197c      	adds	r4, r7, r5
 80070c0:	687b      	ldr	r3, [r7, #4]
 80070c2:	0018      	movs	r0, r3
 80070c4:	f7ff ff20 	bl	8006f08 <f_sync>
 80070c8:	0003      	movs	r3, r0
 80070ca:	7023      	strb	r3, [r4, #0]
	if (res == FR_OK)
 80070cc:	197b      	adds	r3, r7, r5
 80070ce:	781b      	ldrb	r3, [r3, #0]
 80070d0:	2b00      	cmp	r3, #0
 80070d2:	d11f      	bne.n	8007114 <f_close+0x60>
#endif
	{
		res = validate(fp);				/* Lock volume */
 80070d4:	197c      	adds	r4, r7, r5
 80070d6:	687b      	ldr	r3, [r7, #4]
 80070d8:	0018      	movs	r0, r3
 80070da:	f7ff fa69 	bl	80065b0 <validate>
 80070de:	0003      	movs	r3, r0
 80070e0:	7023      	strb	r3, [r4, #0]
		if (res == FR_OK) {
 80070e2:	0029      	movs	r1, r5
 80070e4:	187b      	adds	r3, r7, r1
 80070e6:	781b      	ldrb	r3, [r3, #0]
 80070e8:	2b00      	cmp	r3, #0
 80070ea:	d113      	bne.n	8007114 <f_close+0x60>
#if _FS_REENTRANT
			FATFS *fs = fp->fs;
#endif
#if _FS_LOCK
			res = dec_lock(fp->lockid);	/* Decrement file open counter */
 80070ec:	687a      	ldr	r2, [r7, #4]
 80070ee:	238a      	movs	r3, #138	; 0x8a
 80070f0:	009b      	lsls	r3, r3, #2
 80070f2:	58d3      	ldr	r3, [r2, r3]
 80070f4:	000d      	movs	r5, r1
 80070f6:	187c      	adds	r4, r7, r1
 80070f8:	0018      	movs	r0, r3
 80070fa:	f7fd fc87 	bl	8004a0c <dec_lock>
 80070fe:	0003      	movs	r3, r0
 8007100:	7023      	strb	r3, [r4, #0]
			if (res == FR_OK)
 8007102:	197b      	adds	r3, r7, r5
 8007104:	781b      	ldrb	r3, [r3, #0]
 8007106:	2b00      	cmp	r3, #0
 8007108:	d104      	bne.n	8007114 <f_close+0x60>
#endif
				fp->fs = 0;				/* Invalidate file object */
 800710a:	687a      	ldr	r2, [r7, #4]
 800710c:	2380      	movs	r3, #128	; 0x80
 800710e:	009b      	lsls	r3, r3, #2
 8007110:	2100      	movs	r1, #0
 8007112:	50d1      	str	r1, [r2, r3]
#if _FS_REENTRANT
			unlock_fs(fs, FR_OK);		/* Unlock volume */
#endif
		}
	}
	return res;
 8007114:	230f      	movs	r3, #15
 8007116:	18fb      	adds	r3, r7, r3
 8007118:	781b      	ldrb	r3, [r3, #0]
}
 800711a:	0018      	movs	r0, r3
 800711c:	46bd      	mov	sp, r7
 800711e:	b004      	add	sp, #16
 8007120:	bdb0      	pop	{r4, r5, r7, pc}
	...

08007124 <f_lseek>:

FRESULT f_lseek (
	FIL* fp,		/* Pointer to the file object */
	DWORD ofs		/* File pointer from top of file */
)
{
 8007124:	b5b0      	push	{r4, r5, r7, lr}
 8007126:	b090      	sub	sp, #64	; 0x40
 8007128:	af00      	add	r7, sp, #0
 800712a:	6078      	str	r0, [r7, #4]
 800712c:	6039      	str	r1, [r7, #0]
#if _USE_FASTSEEK
	DWORD cl, pcl, ncl, tcl, dsc, tlen, ulen, *tbl;
#endif


	res = validate(fp);					/* Check validity of the object */
 800712e:	253f      	movs	r5, #63	; 0x3f
 8007130:	197c      	adds	r4, r7, r5
 8007132:	687b      	ldr	r3, [r7, #4]
 8007134:	0018      	movs	r0, r3
 8007136:	f7ff fa3b 	bl	80065b0 <validate>
 800713a:	0003      	movs	r3, r0
 800713c:	7023      	strb	r3, [r4, #0]
	if (res != FR_OK) LEAVE_FF(fp->fs, res);
 800713e:	197b      	adds	r3, r7, r5
 8007140:	781b      	ldrb	r3, [r3, #0]
 8007142:	2b00      	cmp	r3, #0
 8007144:	d002      	beq.n	800714c <f_lseek+0x28>
 8007146:	197b      	adds	r3, r7, r5
 8007148:	781b      	ldrb	r3, [r3, #0]
 800714a:	e28c      	b.n	8007666 <f_lseek+0x542>
	if (fp->err)						/* Check error */
 800714c:	687b      	ldr	r3, [r7, #4]
 800714e:	4ada      	ldr	r2, [pc, #872]	; (80074b8 <f_lseek+0x394>)
 8007150:	5c9b      	ldrb	r3, [r3, r2]
 8007152:	2b00      	cmp	r3, #0
 8007154:	d003      	beq.n	800715e <f_lseek+0x3a>
		LEAVE_FF(fp->fs, (FRESULT)fp->err);
 8007156:	687b      	ldr	r3, [r7, #4]
 8007158:	4ad7      	ldr	r2, [pc, #860]	; (80074b8 <f_lseek+0x394>)
 800715a:	5c9b      	ldrb	r3, [r3, r2]
 800715c:	e283      	b.n	8007666 <f_lseek+0x542>

#if _USE_FASTSEEK
	if (fp->cltbl) {	/* Fast seek */
 800715e:	687a      	ldr	r2, [r7, #4]
 8007160:	2389      	movs	r3, #137	; 0x89
 8007162:	009b      	lsls	r3, r3, #2
 8007164:	58d3      	ldr	r3, [r2, r3]
 8007166:	2b00      	cmp	r3, #0
 8007168:	d100      	bne.n	800716c <f_lseek+0x48>
 800716a:	e103      	b.n	8007374 <f_lseek+0x250>
		if (ofs == CREATE_LINKMAP) {	/* Create CLMT */
 800716c:	683b      	ldr	r3, [r7, #0]
 800716e:	3301      	adds	r3, #1
 8007170:	d16c      	bne.n	800724c <f_lseek+0x128>
			tbl = fp->cltbl;
 8007172:	687a      	ldr	r2, [r7, #4]
 8007174:	2389      	movs	r3, #137	; 0x89
 8007176:	009b      	lsls	r3, r3, #2
 8007178:	58d3      	ldr	r3, [r2, r3]
 800717a:	627b      	str	r3, [r7, #36]	; 0x24
			tlen = *tbl++; ulen = 2;	/* Given table size and required table size */
 800717c:	6a7b      	ldr	r3, [r7, #36]	; 0x24
 800717e:	1d1a      	adds	r2, r3, #4
 8007180:	627a      	str	r2, [r7, #36]	; 0x24
 8007182:	681b      	ldr	r3, [r3, #0]
 8007184:	617b      	str	r3, [r7, #20]
 8007186:	2302      	movs	r3, #2
 8007188:	62bb      	str	r3, [r7, #40]	; 0x28
			cl = fp->sclust;			/* Top of the chain */
 800718a:	687a      	ldr	r2, [r7, #4]
 800718c:	2384      	movs	r3, #132	; 0x84
 800718e:	009b      	lsls	r3, r3, #2
 8007190:	58d3      	ldr	r3, [r2, r3]
 8007192:	633b      	str	r3, [r7, #48]	; 0x30
			if (cl) {
 8007194:	6b3b      	ldr	r3, [r7, #48]	; 0x30
 8007196:	2b00      	cmp	r3, #0
 8007198:	d045      	beq.n	8007226 <f_lseek+0x102>
				do {
					/* Get a fragment */
					tcl = cl; ncl = 0; ulen += 2;	/* Top, length and used items */
 800719a:	6b3b      	ldr	r3, [r7, #48]	; 0x30
 800719c:	613b      	str	r3, [r7, #16]
 800719e:	2300      	movs	r3, #0
 80071a0:	62fb      	str	r3, [r7, #44]	; 0x2c
 80071a2:	6abb      	ldr	r3, [r7, #40]	; 0x28
 80071a4:	3302      	adds	r3, #2
 80071a6:	62bb      	str	r3, [r7, #40]	; 0x28
					do {
						pcl = cl; ncl++;
 80071a8:	6b3b      	ldr	r3, [r7, #48]	; 0x30
 80071aa:	60fb      	str	r3, [r7, #12]
 80071ac:	6afb      	ldr	r3, [r7, #44]	; 0x2c
 80071ae:	3301      	adds	r3, #1
 80071b0:	62fb      	str	r3, [r7, #44]	; 0x2c
						cl = get_fat(fp->fs, cl);
 80071b2:	687a      	ldr	r2, [r7, #4]
 80071b4:	2380      	movs	r3, #128	; 0x80
 80071b6:	009b      	lsls	r3, r3, #2
 80071b8:	58d3      	ldr	r3, [r2, r3]
 80071ba:	6b3a      	ldr	r2, [r7, #48]	; 0x30
 80071bc:	0011      	movs	r1, r2
 80071be:	0018      	movs	r0, r3
 80071c0:	f7fd fe2a 	bl	8004e18 <get_fat>
 80071c4:	0003      	movs	r3, r0
 80071c6:	633b      	str	r3, [r7, #48]	; 0x30
						if (cl <= 1) ABORT(fp->fs, FR_INT_ERR);
 80071c8:	6b3b      	ldr	r3, [r7, #48]	; 0x30
 80071ca:	2b01      	cmp	r3, #1
 80071cc:	d805      	bhi.n	80071da <f_lseek+0xb6>
 80071ce:	687b      	ldr	r3, [r7, #4]
 80071d0:	4ab9      	ldr	r2, [pc, #740]	; (80074b8 <f_lseek+0x394>)
 80071d2:	2102      	movs	r1, #2
 80071d4:	5499      	strb	r1, [r3, r2]
 80071d6:	2302      	movs	r3, #2
 80071d8:	e245      	b.n	8007666 <f_lseek+0x542>
						if (cl == 0xFFFFFFFF) ABORT(fp->fs, FR_DISK_ERR);
 80071da:	6b3b      	ldr	r3, [r7, #48]	; 0x30
 80071dc:	3301      	adds	r3, #1
 80071de:	d105      	bne.n	80071ec <f_lseek+0xc8>
 80071e0:	687b      	ldr	r3, [r7, #4]
 80071e2:	4ab5      	ldr	r2, [pc, #724]	; (80074b8 <f_lseek+0x394>)
 80071e4:	2101      	movs	r1, #1
 80071e6:	5499      	strb	r1, [r3, r2]
 80071e8:	2301      	movs	r3, #1
 80071ea:	e23c      	b.n	8007666 <f_lseek+0x542>
					} while (cl == pcl + 1);
 80071ec:	68fb      	ldr	r3, [r7, #12]
 80071ee:	3301      	adds	r3, #1
 80071f0:	6b3a      	ldr	r2, [r7, #48]	; 0x30
 80071f2:	429a      	cmp	r2, r3
 80071f4:	d0d8      	beq.n	80071a8 <f_lseek+0x84>
					if (ulen <= tlen) {		/* Store the length and top of the fragment */
 80071f6:	6aba      	ldr	r2, [r7, #40]	; 0x28
 80071f8:	697b      	ldr	r3, [r7, #20]
 80071fa:	429a      	cmp	r2, r3
 80071fc:	d809      	bhi.n	8007212 <f_lseek+0xee>
						*tbl++ = ncl; *tbl++ = tcl;
 80071fe:	6a7b      	ldr	r3, [r7, #36]	; 0x24
 8007200:	1d1a      	adds	r2, r3, #4
 8007202:	627a      	str	r2, [r7, #36]	; 0x24
 8007204:	6afa      	ldr	r2, [r7, #44]	; 0x2c
 8007206:	601a      	str	r2, [r3, #0]
 8007208:	6a7b      	ldr	r3, [r7, #36]	; 0x24
 800720a:	1d1a      	adds	r2, r3, #4
 800720c:	627a      	str	r2, [r7, #36]	; 0x24
 800720e:	693a      	ldr	r2, [r7, #16]
 8007210:	601a      	str	r2, [r3, #0]
					}
				} while (cl < fp->fs->n_fatent);	/* Repeat until end of chain */
 8007212:	687a      	ldr	r2, [r7, #4]
 8007214:	2380      	movs	r3, #128	; 0x80
 8007216:	009b      	lsls	r3, r3, #2
 8007218:	58d2      	ldr	r2, [r2, r3]
 800721a:	2385      	movs	r3, #133	; 0x85
 800721c:	009b      	lsls	r3, r3, #2
 800721e:	58d3      	ldr	r3, [r2, r3]
 8007220:	6b3a      	ldr	r2, [r7, #48]	; 0x30
 8007222:	429a      	cmp	r2, r3
 8007224:	d3b9      	bcc.n	800719a <f_lseek+0x76>
			}
			*fp->cltbl = ulen;	/* Number of items used */
 8007226:	687a      	ldr	r2, [r7, #4]
 8007228:	2389      	movs	r3, #137	; 0x89
 800722a:	009b      	lsls	r3, r3, #2
 800722c:	58d3      	ldr	r3, [r2, r3]
 800722e:	6aba      	ldr	r2, [r7, #40]	; 0x28
 8007230:	601a      	str	r2, [r3, #0]
			if (ulen <= tlen)
 8007232:	6aba      	ldr	r2, [r7, #40]	; 0x28
 8007234:	697b      	ldr	r3, [r7, #20]
 8007236:	429a      	cmp	r2, r3
 8007238:	d803      	bhi.n	8007242 <f_lseek+0x11e>
				*tbl = 0;		/* Terminate table */
 800723a:	6a7b      	ldr	r3, [r7, #36]	; 0x24
 800723c:	2200      	movs	r2, #0
 800723e:	601a      	str	r2, [r3, #0]
 8007240:	e20e      	b.n	8007660 <f_lseek+0x53c>
			else
				res = FR_NOT_ENOUGH_CORE;	/* Given table size is smaller than required */
 8007242:	233f      	movs	r3, #63	; 0x3f
 8007244:	18fb      	adds	r3, r7, r3
 8007246:	2211      	movs	r2, #17
 8007248:	701a      	strb	r2, [r3, #0]
 800724a:	e209      	b.n	8007660 <f_lseek+0x53c>

		} else {						/* Fast seek */
			if (ofs > fp->fsize)		/* Clip offset at the file size */
 800724c:	687a      	ldr	r2, [r7, #4]
 800724e:	2383      	movs	r3, #131	; 0x83
 8007250:	009b      	lsls	r3, r3, #2
 8007252:	58d3      	ldr	r3, [r2, r3]
 8007254:	683a      	ldr	r2, [r7, #0]
 8007256:	429a      	cmp	r2, r3
 8007258:	d904      	bls.n	8007264 <f_lseek+0x140>
				ofs = fp->fsize;
 800725a:	687a      	ldr	r2, [r7, #4]
 800725c:	2383      	movs	r3, #131	; 0x83
 800725e:	009b      	lsls	r3, r3, #2
 8007260:	58d3      	ldr	r3, [r2, r3]
 8007262:	603b      	str	r3, [r7, #0]
			fp->fptr = ofs;				/* Set file pointer */
 8007264:	687a      	ldr	r2, [r7, #4]
 8007266:	2382      	movs	r3, #130	; 0x82
 8007268:	009b      	lsls	r3, r3, #2
 800726a:	6839      	ldr	r1, [r7, #0]
 800726c:	50d1      	str	r1, [r2, r3]
			if (ofs) {
 800726e:	683b      	ldr	r3, [r7, #0]
 8007270:	2b00      	cmp	r3, #0
 8007272:	d100      	bne.n	8007276 <f_lseek+0x152>
 8007274:	e1f4      	b.n	8007660 <f_lseek+0x53c>
				fp->clust = clmt_clust(fp, ofs - 1);
 8007276:	683b      	ldr	r3, [r7, #0]
 8007278:	1e5a      	subs	r2, r3, #1
 800727a:	687b      	ldr	r3, [r7, #4]
 800727c:	0011      	movs	r1, r2
 800727e:	0018      	movs	r0, r3
 8007280:	f7fe f8e0 	bl	8005444 <clmt_clust>
 8007284:	0001      	movs	r1, r0
 8007286:	687a      	ldr	r2, [r7, #4]
 8007288:	2385      	movs	r3, #133	; 0x85
 800728a:	009b      	lsls	r3, r3, #2
 800728c:	50d1      	str	r1, [r2, r3]
				dsc = clust2sect(fp->fs, fp->clust);
 800728e:	687a      	ldr	r2, [r7, #4]
 8007290:	2380      	movs	r3, #128	; 0x80
 8007292:	009b      	lsls	r3, r3, #2
 8007294:	58d0      	ldr	r0, [r2, r3]
 8007296:	687a      	ldr	r2, [r7, #4]
 8007298:	2385      	movs	r3, #133	; 0x85
 800729a:	009b      	lsls	r3, r3, #2
 800729c:	58d3      	ldr	r3, [r2, r3]
 800729e:	0019      	movs	r1, r3
 80072a0:	f7fd fd96 	bl	8004dd0 <clust2sect>
 80072a4:	0003      	movs	r3, r0
 80072a6:	61bb      	str	r3, [r7, #24]
				if (!dsc) ABORT(fp->fs, FR_INT_ERR);
 80072a8:	69bb      	ldr	r3, [r7, #24]
 80072aa:	2b00      	cmp	r3, #0
 80072ac:	d105      	bne.n	80072ba <f_lseek+0x196>
 80072ae:	687b      	ldr	r3, [r7, #4]
 80072b0:	4a81      	ldr	r2, [pc, #516]	; (80074b8 <f_lseek+0x394>)
 80072b2:	2102      	movs	r1, #2
 80072b4:	5499      	strb	r1, [r3, r2]
 80072b6:	2302      	movs	r3, #2
 80072b8:	e1d5      	b.n	8007666 <f_lseek+0x542>
				dsc += (ofs - 1) / SS(fp->fs) & (fp->fs->csize - 1);
 80072ba:	683b      	ldr	r3, [r7, #0]
 80072bc:	3b01      	subs	r3, #1
 80072be:	0a5b      	lsrs	r3, r3, #9
 80072c0:	6879      	ldr	r1, [r7, #4]
 80072c2:	2280      	movs	r2, #128	; 0x80
 80072c4:	0092      	lsls	r2, r2, #2
 80072c6:	588a      	ldr	r2, [r1, r2]
 80072c8:	497c      	ldr	r1, [pc, #496]	; (80074bc <f_lseek+0x398>)
 80072ca:	5c52      	ldrb	r2, [r2, r1]
 80072cc:	3a01      	subs	r2, #1
 80072ce:	4013      	ands	r3, r2
 80072d0:	69ba      	ldr	r2, [r7, #24]
 80072d2:	18d3      	adds	r3, r2, r3
 80072d4:	61bb      	str	r3, [r7, #24]
				if (fp->fptr % SS(fp->fs) && dsc != fp->dsect) {	/* Refill sector cache if needed */
 80072d6:	687a      	ldr	r2, [r7, #4]
 80072d8:	2382      	movs	r3, #130	; 0x82
 80072da:	009b      	lsls	r3, r3, #2
 80072dc:	58d3      	ldr	r3, [r2, r3]
 80072de:	05db      	lsls	r3, r3, #23
 80072e0:	0ddb      	lsrs	r3, r3, #23
 80072e2:	d100      	bne.n	80072e6 <f_lseek+0x1c2>
 80072e4:	e1bc      	b.n	8007660 <f_lseek+0x53c>
 80072e6:	687a      	ldr	r2, [r7, #4]
 80072e8:	2386      	movs	r3, #134	; 0x86
 80072ea:	009b      	lsls	r3, r3, #2
 80072ec:	58d3      	ldr	r3, [r2, r3]
 80072ee:	69ba      	ldr	r2, [r7, #24]
 80072f0:	429a      	cmp	r2, r3
 80072f2:	d100      	bne.n	80072f6 <f_lseek+0x1d2>
 80072f4:	e1b4      	b.n	8007660 <f_lseek+0x53c>
#if !_FS_TINY
#if !_FS_READONLY
					if (fp->flag & FA__DIRTY) {		/* Write-back dirty sector cache */
 80072f6:	687b      	ldr	r3, [r7, #4]
 80072f8:	4a71      	ldr	r2, [pc, #452]	; (80074c0 <f_lseek+0x39c>)
 80072fa:	5c9b      	ldrb	r3, [r3, r2]
 80072fc:	001a      	movs	r2, r3
 80072fe:	2340      	movs	r3, #64	; 0x40
 8007300:	4013      	ands	r3, r2
 8007302:	d01e      	beq.n	8007342 <f_lseek+0x21e>
						if (disk_write(fp->fs->drv, fp->buf.d8, fp->dsect, 1) != RES_OK)
 8007304:	687a      	ldr	r2, [r7, #4]
 8007306:	2380      	movs	r3, #128	; 0x80
 8007308:	009b      	lsls	r3, r3, #2
 800730a:	58d3      	ldr	r3, [r2, r3]
 800730c:	4a6d      	ldr	r2, [pc, #436]	; (80074c4 <f_lseek+0x3a0>)
 800730e:	5c98      	ldrb	r0, [r3, r2]
 8007310:	6879      	ldr	r1, [r7, #4]
 8007312:	687a      	ldr	r2, [r7, #4]
 8007314:	2386      	movs	r3, #134	; 0x86
 8007316:	009b      	lsls	r3, r3, #2
 8007318:	58d2      	ldr	r2, [r2, r3]
 800731a:	2301      	movs	r3, #1
 800731c:	f7fd f96c 	bl	80045f8 <disk_write>
 8007320:	1e03      	subs	r3, r0, #0
 8007322:	d005      	beq.n	8007330 <f_lseek+0x20c>
							ABORT(fp->fs, FR_DISK_ERR);
 8007324:	687b      	ldr	r3, [r7, #4]
 8007326:	4a64      	ldr	r2, [pc, #400]	; (80074b8 <f_lseek+0x394>)
 8007328:	2101      	movs	r1, #1
 800732a:	5499      	strb	r1, [r3, r2]
 800732c:	2301      	movs	r3, #1
 800732e:	e19a      	b.n	8007666 <f_lseek+0x542>
						fp->flag &= ~FA__DIRTY;
 8007330:	687b      	ldr	r3, [r7, #4]
 8007332:	4a63      	ldr	r2, [pc, #396]	; (80074c0 <f_lseek+0x39c>)
 8007334:	5c9b      	ldrb	r3, [r3, r2]
 8007336:	2240      	movs	r2, #64	; 0x40
 8007338:	4393      	bics	r3, r2
 800733a:	b2d9      	uxtb	r1, r3
 800733c:	687b      	ldr	r3, [r7, #4]
 800733e:	4a60      	ldr	r2, [pc, #384]	; (80074c0 <f_lseek+0x39c>)
 8007340:	5499      	strb	r1, [r3, r2]
					}
#endif
					if (disk_read(fp->fs->drv, fp->buf.d8, dsc, 1) != RES_OK)	/* Load current sector */
 8007342:	687a      	ldr	r2, [r7, #4]
 8007344:	2380      	movs	r3, #128	; 0x80
 8007346:	009b      	lsls	r3, r3, #2
 8007348:	58d3      	ldr	r3, [r2, r3]
 800734a:	4a5e      	ldr	r2, [pc, #376]	; (80074c4 <f_lseek+0x3a0>)
 800734c:	5c98      	ldrb	r0, [r3, r2]
 800734e:	6879      	ldr	r1, [r7, #4]
 8007350:	69ba      	ldr	r2, [r7, #24]
 8007352:	2301      	movs	r3, #1
 8007354:	f7fd f928 	bl	80045a8 <disk_read>
 8007358:	1e03      	subs	r3, r0, #0
 800735a:	d005      	beq.n	8007368 <f_lseek+0x244>
						ABORT(fp->fs, FR_DISK_ERR);
 800735c:	687b      	ldr	r3, [r7, #4]
 800735e:	4a56      	ldr	r2, [pc, #344]	; (80074b8 <f_lseek+0x394>)
 8007360:	2101      	movs	r1, #1
 8007362:	5499      	strb	r1, [r3, r2]
 8007364:	2301      	movs	r3, #1
 8007366:	e17e      	b.n	8007666 <f_lseek+0x542>
#endif
					fp->dsect = dsc;
 8007368:	687a      	ldr	r2, [r7, #4]
 800736a:	2386      	movs	r3, #134	; 0x86
 800736c:	009b      	lsls	r3, r3, #2
 800736e:	69b9      	ldr	r1, [r7, #24]
 8007370:	50d1      	str	r1, [r2, r3]
 8007372:	e175      	b.n	8007660 <f_lseek+0x53c>
	} else
#endif

	/* Normal Seek */
	{
		if (ofs > fp->fsize					/* In read-only mode, clip offset with the file size */
 8007374:	687a      	ldr	r2, [r7, #4]
 8007376:	2383      	movs	r3, #131	; 0x83
 8007378:	009b      	lsls	r3, r3, #2
 800737a:	58d3      	ldr	r3, [r2, r3]
 800737c:	683a      	ldr	r2, [r7, #0]
 800737e:	429a      	cmp	r2, r3
 8007380:	d90b      	bls.n	800739a <f_lseek+0x276>
#if !_FS_READONLY
			 && !(fp->flag & FA_WRITE)
 8007382:	687b      	ldr	r3, [r7, #4]
 8007384:	4a4e      	ldr	r2, [pc, #312]	; (80074c0 <f_lseek+0x39c>)
 8007386:	5c9b      	ldrb	r3, [r3, r2]
 8007388:	001a      	movs	r2, r3
 800738a:	2302      	movs	r3, #2
 800738c:	4013      	ands	r3, r2
 800738e:	d104      	bne.n	800739a <f_lseek+0x276>
#endif
			) ofs = fp->fsize;
 8007390:	687a      	ldr	r2, [r7, #4]
 8007392:	2383      	movs	r3, #131	; 0x83
 8007394:	009b      	lsls	r3, r3, #2
 8007396:	58d3      	ldr	r3, [r2, r3]
 8007398:	603b      	str	r3, [r7, #0]

		ifptr = fp->fptr;
 800739a:	687a      	ldr	r2, [r7, #4]
 800739c:	2382      	movs	r3, #130	; 0x82
 800739e:	009b      	lsls	r3, r3, #2
 80073a0:	58d3      	ldr	r3, [r2, r3]
 80073a2:	623b      	str	r3, [r7, #32]
		fp->fptr = nsect = 0;
 80073a4:	2300      	movs	r3, #0
 80073a6:	637b      	str	r3, [r7, #52]	; 0x34
 80073a8:	687a      	ldr	r2, [r7, #4]
 80073aa:	2382      	movs	r3, #130	; 0x82
 80073ac:	009b      	lsls	r3, r3, #2
 80073ae:	6b79      	ldr	r1, [r7, #52]	; 0x34
 80073b0:	50d1      	str	r1, [r2, r3]
		if (ofs) {
 80073b2:	683b      	ldr	r3, [r7, #0]
 80073b4:	2b00      	cmp	r3, #0
 80073b6:	d100      	bne.n	80073ba <f_lseek+0x296>
 80073b8:	e0eb      	b.n	8007592 <f_lseek+0x46e>
			bcs = (DWORD)fp->fs->csize * SS(fp->fs);	/* Cluster size (byte) */
 80073ba:	687a      	ldr	r2, [r7, #4]
 80073bc:	2380      	movs	r3, #128	; 0x80
 80073be:	009b      	lsls	r3, r3, #2
 80073c0:	58d3      	ldr	r3, [r2, r3]
 80073c2:	4a3e      	ldr	r2, [pc, #248]	; (80074bc <f_lseek+0x398>)
 80073c4:	5c9b      	ldrb	r3, [r3, r2]
 80073c6:	025b      	lsls	r3, r3, #9
 80073c8:	61fb      	str	r3, [r7, #28]
			if (ifptr > 0 &&
 80073ca:	6a3b      	ldr	r3, [r7, #32]
 80073cc:	2b00      	cmp	r3, #0
 80073ce:	d027      	beq.n	8007420 <f_lseek+0x2fc>
				(ofs - 1) / bcs >= (ifptr - 1) / bcs) {	/* When seek to same or following cluster, */
 80073d0:	683b      	ldr	r3, [r7, #0]
 80073d2:	3b01      	subs	r3, #1
 80073d4:	69f9      	ldr	r1, [r7, #28]
 80073d6:	0018      	movs	r0, r3
 80073d8:	f7f8 fea8 	bl	800012c <__udivsi3>
 80073dc:	0003      	movs	r3, r0
 80073de:	001c      	movs	r4, r3
 80073e0:	6a3b      	ldr	r3, [r7, #32]
 80073e2:	3b01      	subs	r3, #1
 80073e4:	69f9      	ldr	r1, [r7, #28]
 80073e6:	0018      	movs	r0, r3
 80073e8:	f7f8 fea0 	bl	800012c <__udivsi3>
 80073ec:	0003      	movs	r3, r0
			if (ifptr > 0 &&
 80073ee:	429c      	cmp	r4, r3
 80073f0:	d316      	bcc.n	8007420 <f_lseek+0x2fc>
				fp->fptr = (ifptr - 1) & ~(bcs - 1);	/* start from the current cluster */
 80073f2:	6a3b      	ldr	r3, [r7, #32]
 80073f4:	3b01      	subs	r3, #1
 80073f6:	69fa      	ldr	r2, [r7, #28]
 80073f8:	4252      	negs	r2, r2
 80073fa:	401a      	ands	r2, r3
 80073fc:	0011      	movs	r1, r2
 80073fe:	687a      	ldr	r2, [r7, #4]
 8007400:	2382      	movs	r3, #130	; 0x82
 8007402:	009b      	lsls	r3, r3, #2
 8007404:	50d1      	str	r1, [r2, r3]
				ofs -= fp->fptr;
 8007406:	687a      	ldr	r2, [r7, #4]
 8007408:	2382      	movs	r3, #130	; 0x82
 800740a:	009b      	lsls	r3, r3, #2
 800740c:	58d3      	ldr	r3, [r2, r3]
 800740e:	683a      	ldr	r2, [r7, #0]
 8007410:	1ad3      	subs	r3, r2, r3
 8007412:	603b      	str	r3, [r7, #0]
				clst = fp->clust;
 8007414:	687a      	ldr	r2, [r7, #4]
 8007416:	2385      	movs	r3, #133	; 0x85
 8007418:	009b      	lsls	r3, r3, #2
 800741a:	58d3      	ldr	r3, [r2, r3]
 800741c:	63bb      	str	r3, [r7, #56]	; 0x38
 800741e:	e02d      	b.n	800747c <f_lseek+0x358>
			} else {									/* When seek to back cluster, */
				clst = fp->sclust;						/* start from the first cluster */
 8007420:	687a      	ldr	r2, [r7, #4]
 8007422:	2384      	movs	r3, #132	; 0x84
 8007424:	009b      	lsls	r3, r3, #2
 8007426:	58d3      	ldr	r3, [r2, r3]
 8007428:	63bb      	str	r3, [r7, #56]	; 0x38
#if !_FS_READONLY
				if (clst == 0) {						/* If no cluster chain, create a new chain */
 800742a:	6bbb      	ldr	r3, [r7, #56]	; 0x38
 800742c:	2b00      	cmp	r3, #0
 800742e:	d120      	bne.n	8007472 <f_lseek+0x34e>
					clst = create_chain(fp->fs, 0);
 8007430:	687a      	ldr	r2, [r7, #4]
 8007432:	2380      	movs	r3, #128	; 0x80
 8007434:	009b      	lsls	r3, r3, #2
 8007436:	58d3      	ldr	r3, [r2, r3]
 8007438:	2100      	movs	r1, #0
 800743a:	0018      	movs	r0, r3
 800743c:	f7fd ff4c 	bl	80052d8 <create_chain>
 8007440:	0003      	movs	r3, r0
 8007442:	63bb      	str	r3, [r7, #56]	; 0x38
					if (clst == 1) ABORT(fp->fs, FR_INT_ERR);
 8007444:	6bbb      	ldr	r3, [r7, #56]	; 0x38
 8007446:	2b01      	cmp	r3, #1
 8007448:	d105      	bne.n	8007456 <f_lseek+0x332>
 800744a:	687b      	ldr	r3, [r7, #4]
 800744c:	4a1a      	ldr	r2, [pc, #104]	; (80074b8 <f_lseek+0x394>)
 800744e:	2102      	movs	r1, #2
 8007450:	5499      	strb	r1, [r3, r2]
 8007452:	2302      	movs	r3, #2
 8007454:	e107      	b.n	8007666 <f_lseek+0x542>
					if (clst == 0xFFFFFFFF) ABORT(fp->fs, FR_DISK_ERR);
 8007456:	6bbb      	ldr	r3, [r7, #56]	; 0x38
 8007458:	3301      	adds	r3, #1
 800745a:	d105      	bne.n	8007468 <f_lseek+0x344>
 800745c:	687b      	ldr	r3, [r7, #4]
 800745e:	4a16      	ldr	r2, [pc, #88]	; (80074b8 <f_lseek+0x394>)
 8007460:	2101      	movs	r1, #1
 8007462:	5499      	strb	r1, [r3, r2]
 8007464:	2301      	movs	r3, #1
 8007466:	e0fe      	b.n	8007666 <f_lseek+0x542>
					fp->sclust = clst;
 8007468:	687a      	ldr	r2, [r7, #4]
 800746a:	2384      	movs	r3, #132	; 0x84
 800746c:	009b      	lsls	r3, r3, #2
 800746e:	6bb9      	ldr	r1, [r7, #56]	; 0x38
 8007470:	50d1      	str	r1, [r2, r3]
				}
#endif
				fp->clust = clst;
 8007472:	687a      	ldr	r2, [r7, #4]
 8007474:	2385      	movs	r3, #133	; 0x85
 8007476:	009b      	lsls	r3, r3, #2
 8007478:	6bb9      	ldr	r1, [r7, #56]	; 0x38
 800747a:	50d1      	str	r1, [r2, r3]
			}
			if (clst != 0) {
 800747c:	6bbb      	ldr	r3, [r7, #56]	; 0x38
 800747e:	2b00      	cmp	r3, #0
 8007480:	d100      	bne.n	8007484 <f_lseek+0x360>
 8007482:	e086      	b.n	8007592 <f_lseek+0x46e>
				while (ofs > bcs) {						/* Cluster following loop */
 8007484:	e05a      	b.n	800753c <f_lseek+0x418>
#if !_FS_READONLY
					if (fp->flag & FA_WRITE) {			/* Check if in write mode or not */
 8007486:	687b      	ldr	r3, [r7, #4]
 8007488:	4a0d      	ldr	r2, [pc, #52]	; (80074c0 <f_lseek+0x39c>)
 800748a:	5c9b      	ldrb	r3, [r3, r2]
 800748c:	001a      	movs	r2, r3
 800748e:	2302      	movs	r3, #2
 8007490:	4013      	ands	r3, r2
 8007492:	d019      	beq.n	80074c8 <f_lseek+0x3a4>
						clst = create_chain(fp->fs, clst);	/* Force stretch if in write mode */
 8007494:	687a      	ldr	r2, [r7, #4]
 8007496:	2380      	movs	r3, #128	; 0x80
 8007498:	009b      	lsls	r3, r3, #2
 800749a:	58d3      	ldr	r3, [r2, r3]
 800749c:	6bba      	ldr	r2, [r7, #56]	; 0x38
 800749e:	0011      	movs	r1, r2
 80074a0:	0018      	movs	r0, r3
 80074a2:	f7fd ff19 	bl	80052d8 <create_chain>
 80074a6:	0003      	movs	r3, r0
 80074a8:	63bb      	str	r3, [r7, #56]	; 0x38
						if (clst == 0) {				/* When disk gets full, clip file size */
 80074aa:	6bbb      	ldr	r3, [r7, #56]	; 0x38
 80074ac:	2b00      	cmp	r3, #0
 80074ae:	d116      	bne.n	80074de <f_lseek+0x3ba>
							ofs = bcs; break;
 80074b0:	69fb      	ldr	r3, [r7, #28]
 80074b2:	603b      	str	r3, [r7, #0]
 80074b4:	e046      	b.n	8007544 <f_lseek+0x420>
 80074b6:	46c0      	nop			; (mov r8, r8)
 80074b8:	00000207 	.word	0x00000207
 80074bc:	00000202 	.word	0x00000202
 80074c0:	00000206 	.word	0x00000206
 80074c4:	00000201 	.word	0x00000201
						}
					} else
#endif
						clst = get_fat(fp->fs, clst);	/* Follow cluster chain if not in write mode */
 80074c8:	687a      	ldr	r2, [r7, #4]
 80074ca:	2380      	movs	r3, #128	; 0x80
 80074cc:	009b      	lsls	r3, r3, #2
 80074ce:	58d3      	ldr	r3, [r2, r3]
 80074d0:	6bba      	ldr	r2, [r7, #56]	; 0x38
 80074d2:	0011      	movs	r1, r2
 80074d4:	0018      	movs	r0, r3
 80074d6:	f7fd fc9f 	bl	8004e18 <get_fat>
 80074da:	0003      	movs	r3, r0
 80074dc:	63bb      	str	r3, [r7, #56]	; 0x38
					if (clst == 0xFFFFFFFF) ABORT(fp->fs, FR_DISK_ERR);
 80074de:	6bbb      	ldr	r3, [r7, #56]	; 0x38
 80074e0:	3301      	adds	r3, #1
 80074e2:	d105      	bne.n	80074f0 <f_lseek+0x3cc>
 80074e4:	687b      	ldr	r3, [r7, #4]
 80074e6:	4a62      	ldr	r2, [pc, #392]	; (8007670 <f_lseek+0x54c>)
 80074e8:	2101      	movs	r1, #1
 80074ea:	5499      	strb	r1, [r3, r2]
 80074ec:	2301      	movs	r3, #1
 80074ee:	e0ba      	b.n	8007666 <f_lseek+0x542>
					if (clst <= 1 || clst >= fp->fs->n_fatent) ABORT(fp->fs, FR_INT_ERR);
 80074f0:	6bbb      	ldr	r3, [r7, #56]	; 0x38
 80074f2:	2b01      	cmp	r3, #1
 80074f4:	d909      	bls.n	800750a <f_lseek+0x3e6>
 80074f6:	687a      	ldr	r2, [r7, #4]
 80074f8:	2380      	movs	r3, #128	; 0x80
 80074fa:	009b      	lsls	r3, r3, #2
 80074fc:	58d2      	ldr	r2, [r2, r3]
 80074fe:	2385      	movs	r3, #133	; 0x85
 8007500:	009b      	lsls	r3, r3, #2
 8007502:	58d3      	ldr	r3, [r2, r3]
 8007504:	6bba      	ldr	r2, [r7, #56]	; 0x38
 8007506:	429a      	cmp	r2, r3
 8007508:	d305      	bcc.n	8007516 <f_lseek+0x3f2>
 800750a:	687b      	ldr	r3, [r7, #4]
 800750c:	4a58      	ldr	r2, [pc, #352]	; (8007670 <f_lseek+0x54c>)
 800750e:	2102      	movs	r1, #2
 8007510:	5499      	strb	r1, [r3, r2]
 8007512:	2302      	movs	r3, #2
 8007514:	e0a7      	b.n	8007666 <f_lseek+0x542>
					fp->clust = clst;
 8007516:	687a      	ldr	r2, [r7, #4]
 8007518:	2385      	movs	r3, #133	; 0x85
 800751a:	009b      	lsls	r3, r3, #2
 800751c:	6bb9      	ldr	r1, [r7, #56]	; 0x38
 800751e:	50d1      	str	r1, [r2, r3]
					fp->fptr += bcs;
 8007520:	687a      	ldr	r2, [r7, #4]
 8007522:	2382      	movs	r3, #130	; 0x82
 8007524:	009b      	lsls	r3, r3, #2
 8007526:	58d2      	ldr	r2, [r2, r3]
 8007528:	69fb      	ldr	r3, [r7, #28]
 800752a:	18d1      	adds	r1, r2, r3
 800752c:	687a      	ldr	r2, [r7, #4]
 800752e:	2382      	movs	r3, #130	; 0x82
 8007530:	009b      	lsls	r3, r3, #2
 8007532:	50d1      	str	r1, [r2, r3]
					ofs -= bcs;
 8007534:	683a      	ldr	r2, [r7, #0]
 8007536:	69fb      	ldr	r3, [r7, #28]
 8007538:	1ad3      	subs	r3, r2, r3
 800753a:	603b      	str	r3, [r7, #0]
				while (ofs > bcs) {						/* Cluster following loop */
 800753c:	683a      	ldr	r2, [r7, #0]
 800753e:	69fb      	ldr	r3, [r7, #28]
 8007540:	429a      	cmp	r2, r3
 8007542:	d8a0      	bhi.n	8007486 <f_lseek+0x362>
				}
				fp->fptr += ofs;
 8007544:	687a      	ldr	r2, [r7, #4]
 8007546:	2382      	movs	r3, #130	; 0x82
 8007548:	009b      	lsls	r3, r3, #2
 800754a:	58d2      	ldr	r2, [r2, r3]
 800754c:	683b      	ldr	r3, [r7, #0]
 800754e:	18d1      	adds	r1, r2, r3
 8007550:	687a      	ldr	r2, [r7, #4]
 8007552:	2382      	movs	r3, #130	; 0x82
 8007554:	009b      	lsls	r3, r3, #2
 8007556:	50d1      	str	r1, [r2, r3]
				if (ofs % SS(fp->fs)) {
 8007558:	683b      	ldr	r3, [r7, #0]
 800755a:	05db      	lsls	r3, r3, #23
 800755c:	0ddb      	lsrs	r3, r3, #23
 800755e:	d018      	beq.n	8007592 <f_lseek+0x46e>
					nsect = clust2sect(fp->fs, clst);	/* Current sector */
 8007560:	687a      	ldr	r2, [r7, #4]
 8007562:	2380      	movs	r3, #128	; 0x80
 8007564:	009b      	lsls	r3, r3, #2
 8007566:	58d3      	ldr	r3, [r2, r3]
 8007568:	6bba      	ldr	r2, [r7, #56]	; 0x38
 800756a:	0011      	movs	r1, r2
 800756c:	0018      	movs	r0, r3
 800756e:	f7fd fc2f 	bl	8004dd0 <clust2sect>
 8007572:	0003      	movs	r3, r0
 8007574:	637b      	str	r3, [r7, #52]	; 0x34
					if (!nsect) ABORT(fp->fs, FR_INT_ERR);
 8007576:	6b7b      	ldr	r3, [r7, #52]	; 0x34
 8007578:	2b00      	cmp	r3, #0
 800757a:	d105      	bne.n	8007588 <f_lseek+0x464>
 800757c:	687b      	ldr	r3, [r7, #4]
 800757e:	4a3c      	ldr	r2, [pc, #240]	; (8007670 <f_lseek+0x54c>)
 8007580:	2102      	movs	r1, #2
 8007582:	5499      	strb	r1, [r3, r2]
 8007584:	2302      	movs	r3, #2
 8007586:	e06e      	b.n	8007666 <f_lseek+0x542>
					nsect += ofs / SS(fp->fs);
 8007588:	683b      	ldr	r3, [r7, #0]
 800758a:	0a5b      	lsrs	r3, r3, #9
 800758c:	6b7a      	ldr	r2, [r7, #52]	; 0x34
 800758e:	18d3      	adds	r3, r2, r3
 8007590:	637b      	str	r3, [r7, #52]	; 0x34
				}
			}
		}
		if (fp->fptr % SS(fp->fs) && nsect != fp->dsect) {	/* Fill sector cache if needed */
 8007592:	687a      	ldr	r2, [r7, #4]
 8007594:	2382      	movs	r3, #130	; 0x82
 8007596:	009b      	lsls	r3, r3, #2
 8007598:	58d3      	ldr	r3, [r2, r3]
 800759a:	05db      	lsls	r3, r3, #23
 800759c:	0ddb      	lsrs	r3, r3, #23
 800759e:	d044      	beq.n	800762a <f_lseek+0x506>
 80075a0:	687a      	ldr	r2, [r7, #4]
 80075a2:	2386      	movs	r3, #134	; 0x86
 80075a4:	009b      	lsls	r3, r3, #2
 80075a6:	58d3      	ldr	r3, [r2, r3]
 80075a8:	6b7a      	ldr	r2, [r7, #52]	; 0x34
 80075aa:	429a      	cmp	r2, r3
 80075ac:	d03d      	beq.n	800762a <f_lseek+0x506>
#if !_FS_TINY
#if !_FS_READONLY
			if (fp->flag & FA__DIRTY) {			/* Write-back dirty sector cache */
 80075ae:	687b      	ldr	r3, [r7, #4]
 80075b0:	4a30      	ldr	r2, [pc, #192]	; (8007674 <f_lseek+0x550>)
 80075b2:	5c9b      	ldrb	r3, [r3, r2]
 80075b4:	001a      	movs	r2, r3
 80075b6:	2340      	movs	r3, #64	; 0x40
 80075b8:	4013      	ands	r3, r2
 80075ba:	d01e      	beq.n	80075fa <f_lseek+0x4d6>
				if (disk_write(fp->fs->drv, fp->buf.d8, fp->dsect, 1) != RES_OK)
 80075bc:	687a      	ldr	r2, [r7, #4]
 80075be:	2380      	movs	r3, #128	; 0x80
 80075c0:	009b      	lsls	r3, r3, #2
 80075c2:	58d3      	ldr	r3, [r2, r3]
 80075c4:	4a2c      	ldr	r2, [pc, #176]	; (8007678 <f_lseek+0x554>)
 80075c6:	5c98      	ldrb	r0, [r3, r2]
 80075c8:	6879      	ldr	r1, [r7, #4]
 80075ca:	687a      	ldr	r2, [r7, #4]
 80075cc:	2386      	movs	r3, #134	; 0x86
 80075ce:	009b      	lsls	r3, r3, #2
 80075d0:	58d2      	ldr	r2, [r2, r3]
 80075d2:	2301      	movs	r3, #1
 80075d4:	f7fd f810 	bl	80045f8 <disk_write>
 80075d8:	1e03      	subs	r3, r0, #0
 80075da:	d005      	beq.n	80075e8 <f_lseek+0x4c4>
					ABORT(fp->fs, FR_DISK_ERR);
 80075dc:	687b      	ldr	r3, [r7, #4]
 80075de:	4a24      	ldr	r2, [pc, #144]	; (8007670 <f_lseek+0x54c>)
 80075e0:	2101      	movs	r1, #1
 80075e2:	5499      	strb	r1, [r3, r2]
 80075e4:	2301      	movs	r3, #1
 80075e6:	e03e      	b.n	8007666 <f_lseek+0x542>
				fp->flag &= ~FA__DIRTY;
 80075e8:	687b      	ldr	r3, [r7, #4]
 80075ea:	4a22      	ldr	r2, [pc, #136]	; (8007674 <f_lseek+0x550>)
 80075ec:	5c9b      	ldrb	r3, [r3, r2]
 80075ee:	2240      	movs	r2, #64	; 0x40
 80075f0:	4393      	bics	r3, r2
 80075f2:	b2d9      	uxtb	r1, r3
 80075f4:	687b      	ldr	r3, [r7, #4]
 80075f6:	4a1f      	ldr	r2, [pc, #124]	; (8007674 <f_lseek+0x550>)
 80075f8:	5499      	strb	r1, [r3, r2]
			}
#endif
			if (disk_read(fp->fs->drv, fp->buf.d8, nsect, 1) != RES_OK)	/* Fill sector cache */
 80075fa:	687a      	ldr	r2, [r7, #4]
 80075fc:	2380      	movs	r3, #128	; 0x80
 80075fe:	009b      	lsls	r3, r3, #2
 8007600:	58d3      	ldr	r3, [r2, r3]
 8007602:	4a1d      	ldr	r2, [pc, #116]	; (8007678 <f_lseek+0x554>)
 8007604:	5c98      	ldrb	r0, [r3, r2]
 8007606:	6879      	ldr	r1, [r7, #4]
 8007608:	6b7a      	ldr	r2, [r7, #52]	; 0x34
 800760a:	2301      	movs	r3, #1
 800760c:	f7fc ffcc 	bl	80045a8 <disk_read>
 8007610:	1e03      	subs	r3, r0, #0
 8007612:	d005      	beq.n	8007620 <f_lseek+0x4fc>
				ABORT(fp->fs, FR_DISK_ERR);
 8007614:	687b      	ldr	r3, [r7, #4]
 8007616:	4a16      	ldr	r2, [pc, #88]	; (8007670 <f_lseek+0x54c>)
 8007618:	2101      	movs	r1, #1
 800761a:	5499      	strb	r1, [r3, r2]
 800761c:	2301      	movs	r3, #1
 800761e:	e022      	b.n	8007666 <f_lseek+0x542>
#endif
			fp->dsect = nsect;
 8007620:	687a      	ldr	r2, [r7, #4]
 8007622:	2386      	movs	r3, #134	; 0x86
 8007624:	009b      	lsls	r3, r3, #2
 8007626:	6b79      	ldr	r1, [r7, #52]	; 0x34
 8007628:	50d1      	str	r1, [r2, r3]
		}
#if !_FS_READONLY
		if (fp->fptr > fp->fsize) {			/* Set file change flag if the file size is extended */
 800762a:	687a      	ldr	r2, [r7, #4]
 800762c:	2382      	movs	r3, #130	; 0x82
 800762e:	009b      	lsls	r3, r3, #2
 8007630:	58d2      	ldr	r2, [r2, r3]
 8007632:	6879      	ldr	r1, [r7, #4]
 8007634:	2383      	movs	r3, #131	; 0x83
 8007636:	009b      	lsls	r3, r3, #2
 8007638:	58cb      	ldr	r3, [r1, r3]
 800763a:	429a      	cmp	r2, r3
 800763c:	d910      	bls.n	8007660 <f_lseek+0x53c>
			fp->fsize = fp->fptr;
 800763e:	687a      	ldr	r2, [r7, #4]
 8007640:	2382      	movs	r3, #130	; 0x82
 8007642:	009b      	lsls	r3, r3, #2
 8007644:	58d1      	ldr	r1, [r2, r3]
 8007646:	687a      	ldr	r2, [r7, #4]
 8007648:	2383      	movs	r3, #131	; 0x83
 800764a:	009b      	lsls	r3, r3, #2
 800764c:	50d1      	str	r1, [r2, r3]
			fp->flag |= FA__WRITTEN;
 800764e:	687b      	ldr	r3, [r7, #4]
 8007650:	4a08      	ldr	r2, [pc, #32]	; (8007674 <f_lseek+0x550>)
 8007652:	5c9b      	ldrb	r3, [r3, r2]
 8007654:	2220      	movs	r2, #32
 8007656:	4313      	orrs	r3, r2
 8007658:	b2d9      	uxtb	r1, r3
 800765a:	687b      	ldr	r3, [r7, #4]
 800765c:	4a05      	ldr	r2, [pc, #20]	; (8007674 <f_lseek+0x550>)
 800765e:	5499      	strb	r1, [r3, r2]
		}
#endif
	}

	LEAVE_FF(fp->fs, res);
 8007660:	233f      	movs	r3, #63	; 0x3f
 8007662:	18fb      	adds	r3, r7, r3
 8007664:	781b      	ldrb	r3, [r3, #0]
}
 8007666:	0018      	movs	r0, r3
 8007668:	46bd      	mov	sp, r7
 800766a:	b010      	add	sp, #64	; 0x40
 800766c:	bdb0      	pop	{r4, r5, r7, pc}
 800766e:	46c0      	nop			; (mov r8, r8)
 8007670:	00000207 	.word	0x00000207
 8007674:	00000206 	.word	0x00000206
 8007678:	00000201 	.word	0x00000201

0800767c <f_getfree>:
FRESULT f_getfree (
	const TCHAR* path,	/* Path name of the logical drive number */
	DWORD* nclst,		/* Pointer to a variable to return number of free clusters */
	FATFS** fatfs		/* Pointer to return pointer to corresponding file system object */
)
{
 800767c:	b5b0      	push	{r4, r5, r7, lr}
 800767e:	b08e      	sub	sp, #56	; 0x38
 8007680:	af00      	add	r7, sp, #0
 8007682:	60f8      	str	r0, [r7, #12]
 8007684:	60b9      	str	r1, [r7, #8]
 8007686:	607a      	str	r2, [r7, #4]
	UINT i;
	BYTE fat, *p;


	/* Get logical drive number */
	res = find_volume(fatfs, &path, 0);
 8007688:	2537      	movs	r5, #55	; 0x37
 800768a:	197c      	adds	r4, r7, r5
 800768c:	230c      	movs	r3, #12
 800768e:	18f9      	adds	r1, r7, r3
 8007690:	687b      	ldr	r3, [r7, #4]
 8007692:	2200      	movs	r2, #0
 8007694:	0018      	movs	r0, r3
 8007696:	f7fe fc6d 	bl	8005f74 <find_volume>
 800769a:	0003      	movs	r3, r0
 800769c:	7023      	strb	r3, [r4, #0]
	fs = *fatfs;
 800769e:	687b      	ldr	r3, [r7, #4]
 80076a0:	681b      	ldr	r3, [r3, #0]
 80076a2:	61fb      	str	r3, [r7, #28]
	if (res == FR_OK) {
 80076a4:	197b      	adds	r3, r7, r5
 80076a6:	781b      	ldrb	r3, [r3, #0]
 80076a8:	2b00      	cmp	r3, #0
 80076aa:	d000      	beq.n	80076ae <f_getfree+0x32>
 80076ac:	e0c0      	b.n	8007830 <f_getfree+0x1b4>
		/* If free_clust is valid, return it without full cluster scan */
		if (fs->free_clust <= fs->n_fatent - 2) {
 80076ae:	69fa      	ldr	r2, [r7, #28]
 80076b0:	2384      	movs	r3, #132	; 0x84
 80076b2:	009b      	lsls	r3, r3, #2
 80076b4:	58d2      	ldr	r2, [r2, r3]
 80076b6:	69f9      	ldr	r1, [r7, #28]
 80076b8:	2385      	movs	r3, #133	; 0x85
 80076ba:	009b      	lsls	r3, r3, #2
 80076bc:	58cb      	ldr	r3, [r1, r3]
 80076be:	3b02      	subs	r3, #2
 80076c0:	429a      	cmp	r2, r3
 80076c2:	d806      	bhi.n	80076d2 <f_getfree+0x56>
			*nclst = fs->free_clust;
 80076c4:	69fa      	ldr	r2, [r7, #28]
 80076c6:	2384      	movs	r3, #132	; 0x84
 80076c8:	009b      	lsls	r3, r3, #2
 80076ca:	58d2      	ldr	r2, [r2, r3]
 80076cc:	68bb      	ldr	r3, [r7, #8]
 80076ce:	601a      	str	r2, [r3, #0]
 80076d0:	e0ae      	b.n	8007830 <f_getfree+0x1b4>
		} else {
			/* Get number of free clusters */
			fat = fs->fs_type;
 80076d2:	201b      	movs	r0, #27
 80076d4:	183b      	adds	r3, r7, r0
 80076d6:	69f9      	ldr	r1, [r7, #28]
 80076d8:	2280      	movs	r2, #128	; 0x80
 80076da:	0092      	lsls	r2, r2, #2
 80076dc:	5c8a      	ldrb	r2, [r1, r2]
 80076de:	701a      	strb	r2, [r3, #0]
			n = 0;
 80076e0:	2300      	movs	r3, #0
 80076e2:	633b      	str	r3, [r7, #48]	; 0x30
			if (fat == FS_FAT12) {
 80076e4:	183b      	adds	r3, r7, r0
 80076e6:	781b      	ldrb	r3, [r3, #0]
 80076e8:	2b01      	cmp	r3, #1
 80076ea:	d12a      	bne.n	8007742 <f_getfree+0xc6>
				clst = 2;
 80076ec:	2302      	movs	r3, #2
 80076ee:	62fb      	str	r3, [r7, #44]	; 0x2c
				do {
					stat = get_fat(fs, clst);
 80076f0:	6afa      	ldr	r2, [r7, #44]	; 0x2c
 80076f2:	69fb      	ldr	r3, [r7, #28]
 80076f4:	0011      	movs	r1, r2
 80076f6:	0018      	movs	r0, r3
 80076f8:	f7fd fb8e 	bl	8004e18 <get_fat>
 80076fc:	0003      	movs	r3, r0
 80076fe:	617b      	str	r3, [r7, #20]
					if (stat == 0xFFFFFFFF) { res = FR_DISK_ERR; break; }
 8007700:	697b      	ldr	r3, [r7, #20]
 8007702:	3301      	adds	r3, #1
 8007704:	d104      	bne.n	8007710 <f_getfree+0x94>
 8007706:	2337      	movs	r3, #55	; 0x37
 8007708:	18fb      	adds	r3, r7, r3
 800770a:	2201      	movs	r2, #1
 800770c:	701a      	strb	r2, [r3, #0]
 800770e:	e07e      	b.n	800780e <f_getfree+0x192>
					if (stat == 1) { res = FR_INT_ERR; break; }
 8007710:	697b      	ldr	r3, [r7, #20]
 8007712:	2b01      	cmp	r3, #1
 8007714:	d104      	bne.n	8007720 <f_getfree+0xa4>
 8007716:	2337      	movs	r3, #55	; 0x37
 8007718:	18fb      	adds	r3, r7, r3
 800771a:	2202      	movs	r2, #2
 800771c:	701a      	strb	r2, [r3, #0]
 800771e:	e076      	b.n	800780e <f_getfree+0x192>
					if (stat == 0) n++;
 8007720:	697b      	ldr	r3, [r7, #20]
 8007722:	2b00      	cmp	r3, #0
 8007724:	d102      	bne.n	800772c <f_getfree+0xb0>
 8007726:	6b3b      	ldr	r3, [r7, #48]	; 0x30
 8007728:	3301      	adds	r3, #1
 800772a:	633b      	str	r3, [r7, #48]	; 0x30
				} while (++clst < fs->n_fatent);
 800772c:	6afb      	ldr	r3, [r7, #44]	; 0x2c
 800772e:	3301      	adds	r3, #1
 8007730:	62fb      	str	r3, [r7, #44]	; 0x2c
 8007732:	69fa      	ldr	r2, [r7, #28]
 8007734:	2385      	movs	r3, #133	; 0x85
 8007736:	009b      	lsls	r3, r3, #2
 8007738:	58d3      	ldr	r3, [r2, r3]
 800773a:	6afa      	ldr	r2, [r7, #44]	; 0x2c
 800773c:	429a      	cmp	r2, r3
 800773e:	d3d7      	bcc.n	80076f0 <f_getfree+0x74>
 8007740:	e065      	b.n	800780e <f_getfree+0x192>
			} else {
				clst = fs->n_fatent;
 8007742:	69fa      	ldr	r2, [r7, #28]
 8007744:	2385      	movs	r3, #133	; 0x85
 8007746:	009b      	lsls	r3, r3, #2
 8007748:	58d3      	ldr	r3, [r2, r3]
 800774a:	62fb      	str	r3, [r7, #44]	; 0x2c
				sect = fs->fatbase;
 800774c:	69fa      	ldr	r2, [r7, #28]
 800774e:	2388      	movs	r3, #136	; 0x88
 8007750:	009b      	lsls	r3, r3, #2
 8007752:	58d3      	ldr	r3, [r2, r3]
 8007754:	62bb      	str	r3, [r7, #40]	; 0x28
				i = 0; p = 0;
 8007756:	2300      	movs	r3, #0
 8007758:	627b      	str	r3, [r7, #36]	; 0x24
 800775a:	2300      	movs	r3, #0
 800775c:	623b      	str	r3, [r7, #32]
				do {
					if (!i) {
 800775e:	6a7b      	ldr	r3, [r7, #36]	; 0x24
 8007760:	2b00      	cmp	r3, #0
 8007762:	d114      	bne.n	800778e <f_getfree+0x112>
						res = move_window(fs, sect++);
 8007764:	6abb      	ldr	r3, [r7, #40]	; 0x28
 8007766:	1c5a      	adds	r2, r3, #1
 8007768:	62ba      	str	r2, [r7, #40]	; 0x28
 800776a:	2537      	movs	r5, #55	; 0x37
 800776c:	197c      	adds	r4, r7, r5
 800776e:	69fa      	ldr	r2, [r7, #28]
 8007770:	0019      	movs	r1, r3
 8007772:	0010      	movs	r0, r2
 8007774:	f7fd fa1c 	bl	8004bb0 <move_window>
 8007778:	0003      	movs	r3, r0
 800777a:	7023      	strb	r3, [r4, #0]
						if (res != FR_OK) break;
 800777c:	197b      	adds	r3, r7, r5
 800777e:	781b      	ldrb	r3, [r3, #0]
 8007780:	2b00      	cmp	r3, #0
 8007782:	d143      	bne.n	800780c <f_getfree+0x190>
						p = fs->win.d8;
 8007784:	69fb      	ldr	r3, [r7, #28]
 8007786:	623b      	str	r3, [r7, #32]
						i = SS(fs);
 8007788:	2380      	movs	r3, #128	; 0x80
 800778a:	009b      	lsls	r3, r3, #2
 800778c:	627b      	str	r3, [r7, #36]	; 0x24
					}
					if (fat == FS_FAT16) {
 800778e:	231b      	movs	r3, #27
 8007790:	18fb      	adds	r3, r7, r3
 8007792:	781b      	ldrb	r3, [r3, #0]
 8007794:	2b02      	cmp	r3, #2
 8007796:	d115      	bne.n	80077c4 <f_getfree+0x148>
						if (LD_WORD(p) == 0) n++;
 8007798:	6a3b      	ldr	r3, [r7, #32]
 800779a:	3301      	adds	r3, #1
 800779c:	781b      	ldrb	r3, [r3, #0]
 800779e:	021b      	lsls	r3, r3, #8
 80077a0:	b21a      	sxth	r2, r3
 80077a2:	6a3b      	ldr	r3, [r7, #32]
 80077a4:	781b      	ldrb	r3, [r3, #0]
 80077a6:	b21b      	sxth	r3, r3
 80077a8:	4313      	orrs	r3, r2
 80077aa:	b21b      	sxth	r3, r3
 80077ac:	2b00      	cmp	r3, #0
 80077ae:	d102      	bne.n	80077b6 <f_getfree+0x13a>
 80077b0:	6b3b      	ldr	r3, [r7, #48]	; 0x30
 80077b2:	3301      	adds	r3, #1
 80077b4:	633b      	str	r3, [r7, #48]	; 0x30
						p += 2; i -= 2;
 80077b6:	6a3b      	ldr	r3, [r7, #32]
 80077b8:	3302      	adds	r3, #2
 80077ba:	623b      	str	r3, [r7, #32]
 80077bc:	6a7b      	ldr	r3, [r7, #36]	; 0x24
 80077be:	3b02      	subs	r3, #2
 80077c0:	627b      	str	r3, [r7, #36]	; 0x24
 80077c2:	e01c      	b.n	80077fe <f_getfree+0x182>
					} else {
						if ((LD_DWORD(p) & 0x0FFFFFFF) == 0) n++;
 80077c4:	6a3b      	ldr	r3, [r7, #32]
 80077c6:	3303      	adds	r3, #3
 80077c8:	781b      	ldrb	r3, [r3, #0]
 80077ca:	061a      	lsls	r2, r3, #24
 80077cc:	6a3b      	ldr	r3, [r7, #32]
 80077ce:	3302      	adds	r3, #2
 80077d0:	781b      	ldrb	r3, [r3, #0]
 80077d2:	041b      	lsls	r3, r3, #16
 80077d4:	4313      	orrs	r3, r2
 80077d6:	6a3a      	ldr	r2, [r7, #32]
 80077d8:	3201      	adds	r2, #1
 80077da:	7812      	ldrb	r2, [r2, #0]
 80077dc:	0212      	lsls	r2, r2, #8
 80077de:	4313      	orrs	r3, r2
 80077e0:	6a3a      	ldr	r2, [r7, #32]
 80077e2:	7812      	ldrb	r2, [r2, #0]
 80077e4:	4313      	orrs	r3, r2
 80077e6:	011b      	lsls	r3, r3, #4
 80077e8:	091b      	lsrs	r3, r3, #4
 80077ea:	d102      	bne.n	80077f2 <f_getfree+0x176>
 80077ec:	6b3b      	ldr	r3, [r7, #48]	; 0x30
 80077ee:	3301      	adds	r3, #1
 80077f0:	633b      	str	r3, [r7, #48]	; 0x30
						p += 4; i -= 4;
 80077f2:	6a3b      	ldr	r3, [r7, #32]
 80077f4:	3304      	adds	r3, #4
 80077f6:	623b      	str	r3, [r7, #32]
 80077f8:	6a7b      	ldr	r3, [r7, #36]	; 0x24
 80077fa:	3b04      	subs	r3, #4
 80077fc:	627b      	str	r3, [r7, #36]	; 0x24
					}
				} while (--clst);
 80077fe:	6afb      	ldr	r3, [r7, #44]	; 0x2c
 8007800:	3b01      	subs	r3, #1
 8007802:	62fb      	str	r3, [r7, #44]	; 0x2c
 8007804:	6afb      	ldr	r3, [r7, #44]	; 0x2c
 8007806:	2b00      	cmp	r3, #0
 8007808:	d1a9      	bne.n	800775e <f_getfree+0xe2>
 800780a:	e000      	b.n	800780e <f_getfree+0x192>
						if (res != FR_OK) break;
 800780c:	46c0      	nop			; (mov r8, r8)
			}
			fs->free_clust = n;
 800780e:	69fa      	ldr	r2, [r7, #28]
 8007810:	2384      	movs	r3, #132	; 0x84
 8007812:	009b      	lsls	r3, r3, #2
 8007814:	6b39      	ldr	r1, [r7, #48]	; 0x30
 8007816:	50d1      	str	r1, [r2, r3]
			fs->fsi_flag |= 1;
 8007818:	69fb      	ldr	r3, [r7, #28]
 800781a:	4a09      	ldr	r2, [pc, #36]	; (8007840 <f_getfree+0x1c4>)
 800781c:	5c9b      	ldrb	r3, [r3, r2]
 800781e:	2201      	movs	r2, #1
 8007820:	4313      	orrs	r3, r2
 8007822:	b2d9      	uxtb	r1, r3
 8007824:	69fb      	ldr	r3, [r7, #28]
 8007826:	4a06      	ldr	r2, [pc, #24]	; (8007840 <f_getfree+0x1c4>)
 8007828:	5499      	strb	r1, [r3, r2]
			*nclst = n;
 800782a:	68bb      	ldr	r3, [r7, #8]
 800782c:	6b3a      	ldr	r2, [r7, #48]	; 0x30
 800782e:	601a      	str	r2, [r3, #0]
		}
	}
	LEAVE_FF(fs, res);
 8007830:	2337      	movs	r3, #55	; 0x37
 8007832:	18fb      	adds	r3, r7, r3
 8007834:	781b      	ldrb	r3, [r3, #0]
}
 8007836:	0018      	movs	r0, r3
 8007838:	46bd      	mov	sp, r7
 800783a:	b00e      	add	sp, #56	; 0x38
 800783c:	bdb0      	pop	{r4, r5, r7, pc}
 800783e:	46c0      	nop			; (mov r8, r8)
 8007840:	00000205 	.word	0x00000205

08007844 <f_gets>:
TCHAR* f_gets (
	TCHAR* buff,	/* Pointer to the string buffer to read */
	int len,		/* Size of string buffer (characters) */
	FIL* fp			/* Pointer to the file object */
)
{
 8007844:	b590      	push	{r4, r7, lr}
 8007846:	b089      	sub	sp, #36	; 0x24
 8007848:	af00      	add	r7, sp, #0
 800784a:	60f8      	str	r0, [r7, #12]
 800784c:	60b9      	str	r1, [r7, #8]
 800784e:	607a      	str	r2, [r7, #4]
	int n = 0;
 8007850:	2300      	movs	r3, #0
 8007852:	61fb      	str	r3, [r7, #28]
	TCHAR c, *p = buff;
 8007854:	68fb      	ldr	r3, [r7, #12]
 8007856:	61bb      	str	r3, [r7, #24]
	BYTE s[2];
	UINT rc;


	while (n < len - 1) {	/* Read characters until buffer gets filled */
 8007858:	e022      	b.n	80078a0 <f_gets+0x5c>
		}
		c = ff_convert(c, 1);	/* OEM -> Unicode */
		if (!c) c = '?';
#endif
#else						/* Read a character without conversion */
		f_read(fp, s, 1, &rc);
 800785a:	2310      	movs	r3, #16
 800785c:	18fb      	adds	r3, r7, r3
 800785e:	2414      	movs	r4, #20
 8007860:	1939      	adds	r1, r7, r4
 8007862:	6878      	ldr	r0, [r7, #4]
 8007864:	2201      	movs	r2, #1
 8007866:	f7ff f9b5 	bl	8006bd4 <f_read>
		if (rc != 1) break;
 800786a:	693b      	ldr	r3, [r7, #16]
 800786c:	2b01      	cmp	r3, #1
 800786e:	d11d      	bne.n	80078ac <f_gets+0x68>
		c = s[0];
 8007870:	2117      	movs	r1, #23
 8007872:	187b      	adds	r3, r7, r1
 8007874:	193a      	adds	r2, r7, r4
 8007876:	7812      	ldrb	r2, [r2, #0]
 8007878:	701a      	strb	r2, [r3, #0]
#endif
		if (_USE_STRFUNC == 2 && c == '\r') continue;	/* Strip '\r' */
 800787a:	187b      	adds	r3, r7, r1
 800787c:	781b      	ldrb	r3, [r3, #0]
 800787e:	2b0d      	cmp	r3, #13
 8007880:	d100      	bne.n	8007884 <f_gets+0x40>
 8007882:	e00d      	b.n	80078a0 <f_gets+0x5c>
		*p++ = c;
 8007884:	69bb      	ldr	r3, [r7, #24]
 8007886:	1c5a      	adds	r2, r3, #1
 8007888:	61ba      	str	r2, [r7, #24]
 800788a:	2117      	movs	r1, #23
 800788c:	187a      	adds	r2, r7, r1
 800788e:	7812      	ldrb	r2, [r2, #0]
 8007890:	701a      	strb	r2, [r3, #0]
		n++;
 8007892:	69fb      	ldr	r3, [r7, #28]
 8007894:	3301      	adds	r3, #1
 8007896:	61fb      	str	r3, [r7, #28]
		if (c == '\n') break;		/* Break on EOL */
 8007898:	187b      	adds	r3, r7, r1
 800789a:	781b      	ldrb	r3, [r3, #0]
 800789c:	2b0a      	cmp	r3, #10
 800789e:	d007      	beq.n	80078b0 <f_gets+0x6c>
	while (n < len - 1) {	/* Read characters until buffer gets filled */
 80078a0:	68bb      	ldr	r3, [r7, #8]
 80078a2:	3b01      	subs	r3, #1
 80078a4:	69fa      	ldr	r2, [r7, #28]
 80078a6:	429a      	cmp	r2, r3
 80078a8:	dbd7      	blt.n	800785a <f_gets+0x16>
 80078aa:	e002      	b.n	80078b2 <f_gets+0x6e>
		if (rc != 1) break;
 80078ac:	46c0      	nop			; (mov r8, r8)
 80078ae:	e000      	b.n	80078b2 <f_gets+0x6e>
		if (c == '\n') break;		/* Break on EOL */
 80078b0:	46c0      	nop			; (mov r8, r8)
	}
	*p = 0;
 80078b2:	69bb      	ldr	r3, [r7, #24]
 80078b4:	2200      	movs	r2, #0
 80078b6:	701a      	strb	r2, [r3, #0]
	return n ? buff : 0;			/* When no data read (eof or error), return with error. */
 80078b8:	69fb      	ldr	r3, [r7, #28]
 80078ba:	2b00      	cmp	r3, #0
 80078bc:	d001      	beq.n	80078c2 <f_gets+0x7e>
 80078be:	68fb      	ldr	r3, [r7, #12]
 80078c0:	e000      	b.n	80078c4 <f_gets+0x80>
 80078c2:	2300      	movs	r3, #0
}
 80078c4:	0018      	movs	r0, r3
 80078c6:	46bd      	mov	sp, r7
 80078c8:	b009      	add	sp, #36	; 0x24
 80078ca:	bd90      	pop	{r4, r7, pc}

080078cc <FATFS_LinkDriverEx>:
  * @param  lun : only used for USB Key Disk to add multi-lun management
            else the paramter must be equal to 0
  * @retval Returns 0 in case of success, otherwise 1.
  */
uint8_t FATFS_LinkDriverEx(Diskio_drvTypeDef *drv, char *path, uint8_t lun)
{
 80078cc:	b590      	push	{r4, r7, lr}
 80078ce:	b087      	sub	sp, #28
 80078d0:	af00      	add	r7, sp, #0
 80078d2:	60f8      	str	r0, [r7, #12]
 80078d4:	60b9      	str	r1, [r7, #8]
 80078d6:	1dfb      	adds	r3, r7, #7
 80078d8:	701a      	strb	r2, [r3, #0]
  uint8_t ret = 1;
 80078da:	2417      	movs	r4, #23
 80078dc:	193b      	adds	r3, r7, r4
 80078de:	2201      	movs	r2, #1
 80078e0:	701a      	strb	r2, [r3, #0]
  uint8_t DiskNum = 0;
 80078e2:	2016      	movs	r0, #22
 80078e4:	183b      	adds	r3, r7, r0
 80078e6:	2200      	movs	r2, #0
 80078e8:	701a      	strb	r2, [r3, #0]
  
  if(disk.nbr <= _VOLUMES)
 80078ea:	4b21      	ldr	r3, [pc, #132]	; (8007970 <FATFS_LinkDriverEx+0xa4>)
 80078ec:	7a5b      	ldrb	r3, [r3, #9]
 80078ee:	b2db      	uxtb	r3, r3
 80078f0:	2b01      	cmp	r3, #1
 80078f2:	d836      	bhi.n	8007962 <FATFS_LinkDriverEx+0x96>
  {
    disk.is_initialized[disk.nbr] = 0;
 80078f4:	4b1e      	ldr	r3, [pc, #120]	; (8007970 <FATFS_LinkDriverEx+0xa4>)
 80078f6:	7a5b      	ldrb	r3, [r3, #9]
 80078f8:	b2db      	uxtb	r3, r3
 80078fa:	001a      	movs	r2, r3
 80078fc:	4b1c      	ldr	r3, [pc, #112]	; (8007970 <FATFS_LinkDriverEx+0xa4>)
 80078fe:	2100      	movs	r1, #0
 8007900:	5499      	strb	r1, [r3, r2]
    disk.drv[disk.nbr] = drv;  
 8007902:	4b1b      	ldr	r3, [pc, #108]	; (8007970 <FATFS_LinkDriverEx+0xa4>)
 8007904:	7a5b      	ldrb	r3, [r3, #9]
 8007906:	b2db      	uxtb	r3, r3
 8007908:	4a19      	ldr	r2, [pc, #100]	; (8007970 <FATFS_LinkDriverEx+0xa4>)
 800790a:	009b      	lsls	r3, r3, #2
 800790c:	18d3      	adds	r3, r2, r3
 800790e:	3304      	adds	r3, #4
 8007910:	68fa      	ldr	r2, [r7, #12]
 8007912:	601a      	str	r2, [r3, #0]
    disk.lun[disk.nbr] = lun;  
 8007914:	4b16      	ldr	r3, [pc, #88]	; (8007970 <FATFS_LinkDriverEx+0xa4>)
 8007916:	7a5b      	ldrb	r3, [r3, #9]
 8007918:	b2db      	uxtb	r3, r3
 800791a:	001a      	movs	r2, r3
 800791c:	4b14      	ldr	r3, [pc, #80]	; (8007970 <FATFS_LinkDriverEx+0xa4>)
 800791e:	189b      	adds	r3, r3, r2
 8007920:	1dfa      	adds	r2, r7, #7
 8007922:	7812      	ldrb	r2, [r2, #0]
 8007924:	721a      	strb	r2, [r3, #8]
    DiskNum = disk.nbr++;
 8007926:	4b12      	ldr	r3, [pc, #72]	; (8007970 <FATFS_LinkDriverEx+0xa4>)
 8007928:	7a5b      	ldrb	r3, [r3, #9]
 800792a:	b2db      	uxtb	r3, r3
 800792c:	1c5a      	adds	r2, r3, #1
 800792e:	b2d1      	uxtb	r1, r2
 8007930:	4a0f      	ldr	r2, [pc, #60]	; (8007970 <FATFS_LinkDriverEx+0xa4>)
 8007932:	7251      	strb	r1, [r2, #9]
 8007934:	183a      	adds	r2, r7, r0
 8007936:	7013      	strb	r3, [r2, #0]
    path[0] = DiskNum + '0';
 8007938:	183b      	adds	r3, r7, r0
 800793a:	781b      	ldrb	r3, [r3, #0]
 800793c:	3330      	adds	r3, #48	; 0x30
 800793e:	b2da      	uxtb	r2, r3
 8007940:	68bb      	ldr	r3, [r7, #8]
 8007942:	701a      	strb	r2, [r3, #0]
    path[1] = ':';
 8007944:	68bb      	ldr	r3, [r7, #8]
 8007946:	3301      	adds	r3, #1
 8007948:	223a      	movs	r2, #58	; 0x3a
 800794a:	701a      	strb	r2, [r3, #0]
    path[2] = '/';
 800794c:	68bb      	ldr	r3, [r7, #8]
 800794e:	3302      	adds	r3, #2
 8007950:	222f      	movs	r2, #47	; 0x2f
 8007952:	701a      	strb	r2, [r3, #0]
    path[3] = 0;
 8007954:	68bb      	ldr	r3, [r7, #8]
 8007956:	3303      	adds	r3, #3
 8007958:	2200      	movs	r2, #0
 800795a:	701a      	strb	r2, [r3, #0]
    ret = 0;
 800795c:	193b      	adds	r3, r7, r4
 800795e:	2200      	movs	r2, #0
 8007960:	701a      	strb	r2, [r3, #0]
  }
  
  return ret;
 8007962:	2317      	movs	r3, #23
 8007964:	18fb      	adds	r3, r7, r3
 8007966:	781b      	ldrb	r3, [r3, #0]
}
 8007968:	0018      	movs	r0, r3
 800796a:	46bd      	mov	sp, r7
 800796c:	b007      	add	sp, #28
 800796e:	bd90      	pop	{r4, r7, pc}
 8007970:	200006fc 	.word	0x200006fc

08007974 <FATFS_LinkDriver>:
  * @param  drv: pointer to the disk IO Driver structure
  * @param  path: pointer to the logical drive path 
  * @retval Returns 0 in case of success, otherwise 1.
  */
uint8_t FATFS_LinkDriver(Diskio_drvTypeDef *drv, char *path)
{
 8007974:	b580      	push	{r7, lr}
 8007976:	b082      	sub	sp, #8
 8007978:	af00      	add	r7, sp, #0
 800797a:	6078      	str	r0, [r7, #4]
 800797c:	6039      	str	r1, [r7, #0]
  return FATFS_LinkDriverEx(drv, path, 0);
 800797e:	6839      	ldr	r1, [r7, #0]
 8007980:	687b      	ldr	r3, [r7, #4]
 8007982:	2200      	movs	r2, #0
 8007984:	0018      	movs	r0, r3
 8007986:	f7ff ffa1 	bl	80078cc <FATFS_LinkDriverEx>
 800798a:	0003      	movs	r3, r0
}
 800798c:	0018      	movs	r0, r3
 800798e:	46bd      	mov	sp, r7
 8007990:	b002      	add	sp, #8
 8007992:	bd80      	pop	{r7, pc}

08007994 <__errno>:
 8007994:	4b01      	ldr	r3, [pc, #4]	; (800799c <__errno+0x8>)
 8007996:	6818      	ldr	r0, [r3, #0]
 8007998:	4770      	bx	lr
 800799a:	46c0      	nop			; (mov r8, r8)
 800799c:	20000064 	.word	0x20000064

080079a0 <__libc_init_array>:
 80079a0:	b570      	push	{r4, r5, r6, lr}
 80079a2:	2600      	movs	r6, #0
 80079a4:	4d0c      	ldr	r5, [pc, #48]	; (80079d8 <__libc_init_array+0x38>)
 80079a6:	4c0d      	ldr	r4, [pc, #52]	; (80079dc <__libc_init_array+0x3c>)
 80079a8:	1b64      	subs	r4, r4, r5
 80079aa:	10a4      	asrs	r4, r4, #2
 80079ac:	42a6      	cmp	r6, r4
 80079ae:	d109      	bne.n	80079c4 <__libc_init_array+0x24>
 80079b0:	2600      	movs	r6, #0
 80079b2:	f000 fcb7 	bl	8008324 <_init>
 80079b6:	4d0a      	ldr	r5, [pc, #40]	; (80079e0 <__libc_init_array+0x40>)
 80079b8:	4c0a      	ldr	r4, [pc, #40]	; (80079e4 <__libc_init_array+0x44>)
 80079ba:	1b64      	subs	r4, r4, r5
 80079bc:	10a4      	asrs	r4, r4, #2
 80079be:	42a6      	cmp	r6, r4
 80079c0:	d105      	bne.n	80079ce <__libc_init_array+0x2e>
 80079c2:	bd70      	pop	{r4, r5, r6, pc}
 80079c4:	00b3      	lsls	r3, r6, #2
 80079c6:	58eb      	ldr	r3, [r5, r3]
 80079c8:	4798      	blx	r3
 80079ca:	3601      	adds	r6, #1
 80079cc:	e7ee      	b.n	80079ac <__libc_init_array+0xc>
 80079ce:	00b3      	lsls	r3, r6, #2
 80079d0:	58eb      	ldr	r3, [r5, r3]
 80079d2:	4798      	blx	r3
 80079d4:	3601      	adds	r6, #1
 80079d6:	e7f2      	b.n	80079be <__libc_init_array+0x1e>
 80079d8:	08008a5c 	.word	0x08008a5c
 80079dc:	08008a5c 	.word	0x08008a5c
 80079e0:	08008a5c 	.word	0x08008a5c
 80079e4:	08008a60 	.word	0x08008a60

080079e8 <memset>:
 80079e8:	0003      	movs	r3, r0
 80079ea:	1882      	adds	r2, r0, r2
 80079ec:	4293      	cmp	r3, r2
 80079ee:	d100      	bne.n	80079f2 <memset+0xa>
 80079f0:	4770      	bx	lr
 80079f2:	7019      	strb	r1, [r3, #0]
 80079f4:	3301      	adds	r3, #1
 80079f6:	e7f9      	b.n	80079ec <memset+0x4>

080079f8 <strncpy>:
 80079f8:	0003      	movs	r3, r0
 80079fa:	b530      	push	{r4, r5, lr}
 80079fc:	001d      	movs	r5, r3
 80079fe:	2a00      	cmp	r2, #0
 8007a00:	d006      	beq.n	8007a10 <strncpy+0x18>
 8007a02:	780c      	ldrb	r4, [r1, #0]
 8007a04:	3a01      	subs	r2, #1
 8007a06:	3301      	adds	r3, #1
 8007a08:	702c      	strb	r4, [r5, #0]
 8007a0a:	3101      	adds	r1, #1
 8007a0c:	2c00      	cmp	r4, #0
 8007a0e:	d1f5      	bne.n	80079fc <strncpy+0x4>
 8007a10:	2100      	movs	r1, #0
 8007a12:	189a      	adds	r2, r3, r2
 8007a14:	4293      	cmp	r3, r2
 8007a16:	d100      	bne.n	8007a1a <strncpy+0x22>
 8007a18:	bd30      	pop	{r4, r5, pc}
 8007a1a:	7019      	strb	r1, [r3, #0]
 8007a1c:	3301      	adds	r3, #1
 8007a1e:	e7f9      	b.n	8007a14 <strncpy+0x1c>

08007a20 <_vsniprintf_r>:
 8007a20:	b530      	push	{r4, r5, lr}
 8007a22:	0014      	movs	r4, r2
 8007a24:	0005      	movs	r5, r0
 8007a26:	001a      	movs	r2, r3
 8007a28:	b09b      	sub	sp, #108	; 0x6c
 8007a2a:	2c00      	cmp	r4, #0
 8007a2c:	da05      	bge.n	8007a3a <_vsniprintf_r+0x1a>
 8007a2e:	238b      	movs	r3, #139	; 0x8b
 8007a30:	6003      	str	r3, [r0, #0]
 8007a32:	2001      	movs	r0, #1
 8007a34:	4240      	negs	r0, r0
 8007a36:	b01b      	add	sp, #108	; 0x6c
 8007a38:	bd30      	pop	{r4, r5, pc}
 8007a3a:	2382      	movs	r3, #130	; 0x82
 8007a3c:	4668      	mov	r0, sp
 8007a3e:	009b      	lsls	r3, r3, #2
 8007a40:	8183      	strh	r3, [r0, #12]
 8007a42:	2300      	movs	r3, #0
 8007a44:	9100      	str	r1, [sp, #0]
 8007a46:	9104      	str	r1, [sp, #16]
 8007a48:	429c      	cmp	r4, r3
 8007a4a:	d000      	beq.n	8007a4e <_vsniprintf_r+0x2e>
 8007a4c:	1e63      	subs	r3, r4, #1
 8007a4e:	9302      	str	r3, [sp, #8]
 8007a50:	9305      	str	r3, [sp, #20]
 8007a52:	2301      	movs	r3, #1
 8007a54:	4669      	mov	r1, sp
 8007a56:	425b      	negs	r3, r3
 8007a58:	81cb      	strh	r3, [r1, #14]
 8007a5a:	0028      	movs	r0, r5
 8007a5c:	9b1e      	ldr	r3, [sp, #120]	; 0x78
 8007a5e:	f000 f879 	bl	8007b54 <_svfiprintf_r>
 8007a62:	1c43      	adds	r3, r0, #1
 8007a64:	da01      	bge.n	8007a6a <_vsniprintf_r+0x4a>
 8007a66:	238b      	movs	r3, #139	; 0x8b
 8007a68:	602b      	str	r3, [r5, #0]
 8007a6a:	2c00      	cmp	r4, #0
 8007a6c:	d0e3      	beq.n	8007a36 <_vsniprintf_r+0x16>
 8007a6e:	2300      	movs	r3, #0
 8007a70:	9a00      	ldr	r2, [sp, #0]
 8007a72:	7013      	strb	r3, [r2, #0]
 8007a74:	e7df      	b.n	8007a36 <_vsniprintf_r+0x16>
	...

08007a78 <vsniprintf>:
 8007a78:	b507      	push	{r0, r1, r2, lr}
 8007a7a:	9300      	str	r3, [sp, #0]
 8007a7c:	0013      	movs	r3, r2
 8007a7e:	000a      	movs	r2, r1
 8007a80:	0001      	movs	r1, r0
 8007a82:	4802      	ldr	r0, [pc, #8]	; (8007a8c <vsniprintf+0x14>)
 8007a84:	6800      	ldr	r0, [r0, #0]
 8007a86:	f7ff ffcb 	bl	8007a20 <_vsniprintf_r>
 8007a8a:	bd0e      	pop	{r1, r2, r3, pc}
 8007a8c:	20000064 	.word	0x20000064

08007a90 <__ssputs_r>:
 8007a90:	b5f0      	push	{r4, r5, r6, r7, lr}
 8007a92:	688e      	ldr	r6, [r1, #8]
 8007a94:	b085      	sub	sp, #20
 8007a96:	0007      	movs	r7, r0
 8007a98:	000c      	movs	r4, r1
 8007a9a:	9203      	str	r2, [sp, #12]
 8007a9c:	9301      	str	r3, [sp, #4]
 8007a9e:	429e      	cmp	r6, r3
 8007aa0:	d83c      	bhi.n	8007b1c <__ssputs_r+0x8c>
 8007aa2:	2390      	movs	r3, #144	; 0x90
 8007aa4:	898a      	ldrh	r2, [r1, #12]
 8007aa6:	00db      	lsls	r3, r3, #3
 8007aa8:	421a      	tst	r2, r3
 8007aaa:	d034      	beq.n	8007b16 <__ssputs_r+0x86>
 8007aac:	6909      	ldr	r1, [r1, #16]
 8007aae:	6823      	ldr	r3, [r4, #0]
 8007ab0:	6960      	ldr	r0, [r4, #20]
 8007ab2:	1a5b      	subs	r3, r3, r1
 8007ab4:	9302      	str	r3, [sp, #8]
 8007ab6:	2303      	movs	r3, #3
 8007ab8:	4343      	muls	r3, r0
 8007aba:	0fdd      	lsrs	r5, r3, #31
 8007abc:	18ed      	adds	r5, r5, r3
 8007abe:	9b01      	ldr	r3, [sp, #4]
 8007ac0:	9802      	ldr	r0, [sp, #8]
 8007ac2:	3301      	adds	r3, #1
 8007ac4:	181b      	adds	r3, r3, r0
 8007ac6:	106d      	asrs	r5, r5, #1
 8007ac8:	42ab      	cmp	r3, r5
 8007aca:	d900      	bls.n	8007ace <__ssputs_r+0x3e>
 8007acc:	001d      	movs	r5, r3
 8007ace:	0553      	lsls	r3, r2, #21
 8007ad0:	d532      	bpl.n	8007b38 <__ssputs_r+0xa8>
 8007ad2:	0029      	movs	r1, r5
 8007ad4:	0038      	movs	r0, r7
 8007ad6:	f000 fb53 	bl	8008180 <_malloc_r>
 8007ada:	1e06      	subs	r6, r0, #0
 8007adc:	d109      	bne.n	8007af2 <__ssputs_r+0x62>
 8007ade:	230c      	movs	r3, #12
 8007ae0:	603b      	str	r3, [r7, #0]
 8007ae2:	2340      	movs	r3, #64	; 0x40
 8007ae4:	2001      	movs	r0, #1
 8007ae6:	89a2      	ldrh	r2, [r4, #12]
 8007ae8:	4240      	negs	r0, r0
 8007aea:	4313      	orrs	r3, r2
 8007aec:	81a3      	strh	r3, [r4, #12]
 8007aee:	b005      	add	sp, #20
 8007af0:	bdf0      	pop	{r4, r5, r6, r7, pc}
 8007af2:	9a02      	ldr	r2, [sp, #8]
 8007af4:	6921      	ldr	r1, [r4, #16]
 8007af6:	f000 faba 	bl	800806e <memcpy>
 8007afa:	89a3      	ldrh	r3, [r4, #12]
 8007afc:	4a14      	ldr	r2, [pc, #80]	; (8007b50 <__ssputs_r+0xc0>)
 8007afe:	401a      	ands	r2, r3
 8007b00:	2380      	movs	r3, #128	; 0x80
 8007b02:	4313      	orrs	r3, r2
 8007b04:	81a3      	strh	r3, [r4, #12]
 8007b06:	9b02      	ldr	r3, [sp, #8]
 8007b08:	6126      	str	r6, [r4, #16]
 8007b0a:	18f6      	adds	r6, r6, r3
 8007b0c:	6026      	str	r6, [r4, #0]
 8007b0e:	6165      	str	r5, [r4, #20]
 8007b10:	9e01      	ldr	r6, [sp, #4]
 8007b12:	1aed      	subs	r5, r5, r3
 8007b14:	60a5      	str	r5, [r4, #8]
 8007b16:	9b01      	ldr	r3, [sp, #4]
 8007b18:	429e      	cmp	r6, r3
 8007b1a:	d900      	bls.n	8007b1e <__ssputs_r+0x8e>
 8007b1c:	9e01      	ldr	r6, [sp, #4]
 8007b1e:	0032      	movs	r2, r6
 8007b20:	9903      	ldr	r1, [sp, #12]
 8007b22:	6820      	ldr	r0, [r4, #0]
 8007b24:	f000 faac 	bl	8008080 <memmove>
 8007b28:	68a3      	ldr	r3, [r4, #8]
 8007b2a:	2000      	movs	r0, #0
 8007b2c:	1b9b      	subs	r3, r3, r6
 8007b2e:	60a3      	str	r3, [r4, #8]
 8007b30:	6823      	ldr	r3, [r4, #0]
 8007b32:	199e      	adds	r6, r3, r6
 8007b34:	6026      	str	r6, [r4, #0]
 8007b36:	e7da      	b.n	8007aee <__ssputs_r+0x5e>
 8007b38:	002a      	movs	r2, r5
 8007b3a:	0038      	movs	r0, r7
 8007b3c:	f000 fb96 	bl	800826c <_realloc_r>
 8007b40:	1e06      	subs	r6, r0, #0
 8007b42:	d1e0      	bne.n	8007b06 <__ssputs_r+0x76>
 8007b44:	0038      	movs	r0, r7
 8007b46:	6921      	ldr	r1, [r4, #16]
 8007b48:	f000 faae 	bl	80080a8 <_free_r>
 8007b4c:	e7c7      	b.n	8007ade <__ssputs_r+0x4e>
 8007b4e:	46c0      	nop			; (mov r8, r8)
 8007b50:	fffffb7f 	.word	0xfffffb7f

08007b54 <_svfiprintf_r>:
 8007b54:	b5f0      	push	{r4, r5, r6, r7, lr}
 8007b56:	b0a1      	sub	sp, #132	; 0x84
 8007b58:	9003      	str	r0, [sp, #12]
 8007b5a:	001d      	movs	r5, r3
 8007b5c:	898b      	ldrh	r3, [r1, #12]
 8007b5e:	000f      	movs	r7, r1
 8007b60:	0016      	movs	r6, r2
 8007b62:	061b      	lsls	r3, r3, #24
 8007b64:	d511      	bpl.n	8007b8a <_svfiprintf_r+0x36>
 8007b66:	690b      	ldr	r3, [r1, #16]
 8007b68:	2b00      	cmp	r3, #0
 8007b6a:	d10e      	bne.n	8007b8a <_svfiprintf_r+0x36>
 8007b6c:	2140      	movs	r1, #64	; 0x40
 8007b6e:	f000 fb07 	bl	8008180 <_malloc_r>
 8007b72:	6038      	str	r0, [r7, #0]
 8007b74:	6138      	str	r0, [r7, #16]
 8007b76:	2800      	cmp	r0, #0
 8007b78:	d105      	bne.n	8007b86 <_svfiprintf_r+0x32>
 8007b7a:	230c      	movs	r3, #12
 8007b7c:	9a03      	ldr	r2, [sp, #12]
 8007b7e:	3801      	subs	r0, #1
 8007b80:	6013      	str	r3, [r2, #0]
 8007b82:	b021      	add	sp, #132	; 0x84
 8007b84:	bdf0      	pop	{r4, r5, r6, r7, pc}
 8007b86:	2340      	movs	r3, #64	; 0x40
 8007b88:	617b      	str	r3, [r7, #20]
 8007b8a:	2300      	movs	r3, #0
 8007b8c:	ac08      	add	r4, sp, #32
 8007b8e:	6163      	str	r3, [r4, #20]
 8007b90:	3320      	adds	r3, #32
 8007b92:	7663      	strb	r3, [r4, #25]
 8007b94:	3310      	adds	r3, #16
 8007b96:	76a3      	strb	r3, [r4, #26]
 8007b98:	9507      	str	r5, [sp, #28]
 8007b9a:	0035      	movs	r5, r6
 8007b9c:	782b      	ldrb	r3, [r5, #0]
 8007b9e:	2b00      	cmp	r3, #0
 8007ba0:	d001      	beq.n	8007ba6 <_svfiprintf_r+0x52>
 8007ba2:	2b25      	cmp	r3, #37	; 0x25
 8007ba4:	d147      	bne.n	8007c36 <_svfiprintf_r+0xe2>
 8007ba6:	1bab      	subs	r3, r5, r6
 8007ba8:	9305      	str	r3, [sp, #20]
 8007baa:	42b5      	cmp	r5, r6
 8007bac:	d00c      	beq.n	8007bc8 <_svfiprintf_r+0x74>
 8007bae:	0032      	movs	r2, r6
 8007bb0:	0039      	movs	r1, r7
 8007bb2:	9803      	ldr	r0, [sp, #12]
 8007bb4:	f7ff ff6c 	bl	8007a90 <__ssputs_r>
 8007bb8:	1c43      	adds	r3, r0, #1
 8007bba:	d100      	bne.n	8007bbe <_svfiprintf_r+0x6a>
 8007bbc:	e0ae      	b.n	8007d1c <_svfiprintf_r+0x1c8>
 8007bbe:	6962      	ldr	r2, [r4, #20]
 8007bc0:	9b05      	ldr	r3, [sp, #20]
 8007bc2:	4694      	mov	ip, r2
 8007bc4:	4463      	add	r3, ip
 8007bc6:	6163      	str	r3, [r4, #20]
 8007bc8:	782b      	ldrb	r3, [r5, #0]
 8007bca:	2b00      	cmp	r3, #0
 8007bcc:	d100      	bne.n	8007bd0 <_svfiprintf_r+0x7c>
 8007bce:	e0a5      	b.n	8007d1c <_svfiprintf_r+0x1c8>
 8007bd0:	2201      	movs	r2, #1
 8007bd2:	2300      	movs	r3, #0
 8007bd4:	4252      	negs	r2, r2
 8007bd6:	6062      	str	r2, [r4, #4]
 8007bd8:	a904      	add	r1, sp, #16
 8007bda:	3254      	adds	r2, #84	; 0x54
 8007bdc:	1852      	adds	r2, r2, r1
 8007bde:	1c6e      	adds	r6, r5, #1
 8007be0:	6023      	str	r3, [r4, #0]
 8007be2:	60e3      	str	r3, [r4, #12]
 8007be4:	60a3      	str	r3, [r4, #8]
 8007be6:	7013      	strb	r3, [r2, #0]
 8007be8:	65a3      	str	r3, [r4, #88]	; 0x58
 8007bea:	2205      	movs	r2, #5
 8007bec:	7831      	ldrb	r1, [r6, #0]
 8007bee:	4854      	ldr	r0, [pc, #336]	; (8007d40 <_svfiprintf_r+0x1ec>)
 8007bf0:	f000 fa32 	bl	8008058 <memchr>
 8007bf4:	1c75      	adds	r5, r6, #1
 8007bf6:	2800      	cmp	r0, #0
 8007bf8:	d11f      	bne.n	8007c3a <_svfiprintf_r+0xe6>
 8007bfa:	6822      	ldr	r2, [r4, #0]
 8007bfc:	06d3      	lsls	r3, r2, #27
 8007bfe:	d504      	bpl.n	8007c0a <_svfiprintf_r+0xb6>
 8007c00:	2353      	movs	r3, #83	; 0x53
 8007c02:	a904      	add	r1, sp, #16
 8007c04:	185b      	adds	r3, r3, r1
 8007c06:	2120      	movs	r1, #32
 8007c08:	7019      	strb	r1, [r3, #0]
 8007c0a:	0713      	lsls	r3, r2, #28
 8007c0c:	d504      	bpl.n	8007c18 <_svfiprintf_r+0xc4>
 8007c0e:	2353      	movs	r3, #83	; 0x53
 8007c10:	a904      	add	r1, sp, #16
 8007c12:	185b      	adds	r3, r3, r1
 8007c14:	212b      	movs	r1, #43	; 0x2b
 8007c16:	7019      	strb	r1, [r3, #0]
 8007c18:	7833      	ldrb	r3, [r6, #0]
 8007c1a:	2b2a      	cmp	r3, #42	; 0x2a
 8007c1c:	d016      	beq.n	8007c4c <_svfiprintf_r+0xf8>
 8007c1e:	0035      	movs	r5, r6
 8007c20:	2100      	movs	r1, #0
 8007c22:	200a      	movs	r0, #10
 8007c24:	68e3      	ldr	r3, [r4, #12]
 8007c26:	782a      	ldrb	r2, [r5, #0]
 8007c28:	1c6e      	adds	r6, r5, #1
 8007c2a:	3a30      	subs	r2, #48	; 0x30
 8007c2c:	2a09      	cmp	r2, #9
 8007c2e:	d94e      	bls.n	8007cce <_svfiprintf_r+0x17a>
 8007c30:	2900      	cmp	r1, #0
 8007c32:	d111      	bne.n	8007c58 <_svfiprintf_r+0x104>
 8007c34:	e017      	b.n	8007c66 <_svfiprintf_r+0x112>
 8007c36:	3501      	adds	r5, #1
 8007c38:	e7b0      	b.n	8007b9c <_svfiprintf_r+0x48>
 8007c3a:	4b41      	ldr	r3, [pc, #260]	; (8007d40 <_svfiprintf_r+0x1ec>)
 8007c3c:	6822      	ldr	r2, [r4, #0]
 8007c3e:	1ac0      	subs	r0, r0, r3
 8007c40:	2301      	movs	r3, #1
 8007c42:	4083      	lsls	r3, r0
 8007c44:	4313      	orrs	r3, r2
 8007c46:	002e      	movs	r6, r5
 8007c48:	6023      	str	r3, [r4, #0]
 8007c4a:	e7ce      	b.n	8007bea <_svfiprintf_r+0x96>
 8007c4c:	9b07      	ldr	r3, [sp, #28]
 8007c4e:	1d19      	adds	r1, r3, #4
 8007c50:	681b      	ldr	r3, [r3, #0]
 8007c52:	9107      	str	r1, [sp, #28]
 8007c54:	2b00      	cmp	r3, #0
 8007c56:	db01      	blt.n	8007c5c <_svfiprintf_r+0x108>
 8007c58:	930b      	str	r3, [sp, #44]	; 0x2c
 8007c5a:	e004      	b.n	8007c66 <_svfiprintf_r+0x112>
 8007c5c:	425b      	negs	r3, r3
 8007c5e:	60e3      	str	r3, [r4, #12]
 8007c60:	2302      	movs	r3, #2
 8007c62:	4313      	orrs	r3, r2
 8007c64:	6023      	str	r3, [r4, #0]
 8007c66:	782b      	ldrb	r3, [r5, #0]
 8007c68:	2b2e      	cmp	r3, #46	; 0x2e
 8007c6a:	d10a      	bne.n	8007c82 <_svfiprintf_r+0x12e>
 8007c6c:	786b      	ldrb	r3, [r5, #1]
 8007c6e:	2b2a      	cmp	r3, #42	; 0x2a
 8007c70:	d135      	bne.n	8007cde <_svfiprintf_r+0x18a>
 8007c72:	9b07      	ldr	r3, [sp, #28]
 8007c74:	3502      	adds	r5, #2
 8007c76:	1d1a      	adds	r2, r3, #4
 8007c78:	681b      	ldr	r3, [r3, #0]
 8007c7a:	9207      	str	r2, [sp, #28]
 8007c7c:	2b00      	cmp	r3, #0
 8007c7e:	db2b      	blt.n	8007cd8 <_svfiprintf_r+0x184>
 8007c80:	9309      	str	r3, [sp, #36]	; 0x24
 8007c82:	4e30      	ldr	r6, [pc, #192]	; (8007d44 <_svfiprintf_r+0x1f0>)
 8007c84:	2203      	movs	r2, #3
 8007c86:	0030      	movs	r0, r6
 8007c88:	7829      	ldrb	r1, [r5, #0]
 8007c8a:	f000 f9e5 	bl	8008058 <memchr>
 8007c8e:	2800      	cmp	r0, #0
 8007c90:	d006      	beq.n	8007ca0 <_svfiprintf_r+0x14c>
 8007c92:	2340      	movs	r3, #64	; 0x40
 8007c94:	1b80      	subs	r0, r0, r6
 8007c96:	4083      	lsls	r3, r0
 8007c98:	6822      	ldr	r2, [r4, #0]
 8007c9a:	3501      	adds	r5, #1
 8007c9c:	4313      	orrs	r3, r2
 8007c9e:	6023      	str	r3, [r4, #0]
 8007ca0:	7829      	ldrb	r1, [r5, #0]
 8007ca2:	2206      	movs	r2, #6
 8007ca4:	4828      	ldr	r0, [pc, #160]	; (8007d48 <_svfiprintf_r+0x1f4>)
 8007ca6:	1c6e      	adds	r6, r5, #1
 8007ca8:	7621      	strb	r1, [r4, #24]
 8007caa:	f000 f9d5 	bl	8008058 <memchr>
 8007cae:	2800      	cmp	r0, #0
 8007cb0:	d03c      	beq.n	8007d2c <_svfiprintf_r+0x1d8>
 8007cb2:	4b26      	ldr	r3, [pc, #152]	; (8007d4c <_svfiprintf_r+0x1f8>)
 8007cb4:	2b00      	cmp	r3, #0
 8007cb6:	d125      	bne.n	8007d04 <_svfiprintf_r+0x1b0>
 8007cb8:	2207      	movs	r2, #7
 8007cba:	9b07      	ldr	r3, [sp, #28]
 8007cbc:	3307      	adds	r3, #7
 8007cbe:	4393      	bics	r3, r2
 8007cc0:	3308      	adds	r3, #8
 8007cc2:	9307      	str	r3, [sp, #28]
 8007cc4:	6963      	ldr	r3, [r4, #20]
 8007cc6:	9a04      	ldr	r2, [sp, #16]
 8007cc8:	189b      	adds	r3, r3, r2
 8007cca:	6163      	str	r3, [r4, #20]
 8007ccc:	e765      	b.n	8007b9a <_svfiprintf_r+0x46>
 8007cce:	4343      	muls	r3, r0
 8007cd0:	0035      	movs	r5, r6
 8007cd2:	2101      	movs	r1, #1
 8007cd4:	189b      	adds	r3, r3, r2
 8007cd6:	e7a6      	b.n	8007c26 <_svfiprintf_r+0xd2>
 8007cd8:	2301      	movs	r3, #1
 8007cda:	425b      	negs	r3, r3
 8007cdc:	e7d0      	b.n	8007c80 <_svfiprintf_r+0x12c>
 8007cde:	2300      	movs	r3, #0
 8007ce0:	200a      	movs	r0, #10
 8007ce2:	001a      	movs	r2, r3
 8007ce4:	3501      	adds	r5, #1
 8007ce6:	6063      	str	r3, [r4, #4]
 8007ce8:	7829      	ldrb	r1, [r5, #0]
 8007cea:	1c6e      	adds	r6, r5, #1
 8007cec:	3930      	subs	r1, #48	; 0x30
 8007cee:	2909      	cmp	r1, #9
 8007cf0:	d903      	bls.n	8007cfa <_svfiprintf_r+0x1a6>
 8007cf2:	2b00      	cmp	r3, #0
 8007cf4:	d0c5      	beq.n	8007c82 <_svfiprintf_r+0x12e>
 8007cf6:	9209      	str	r2, [sp, #36]	; 0x24
 8007cf8:	e7c3      	b.n	8007c82 <_svfiprintf_r+0x12e>
 8007cfa:	4342      	muls	r2, r0
 8007cfc:	0035      	movs	r5, r6
 8007cfe:	2301      	movs	r3, #1
 8007d00:	1852      	adds	r2, r2, r1
 8007d02:	e7f1      	b.n	8007ce8 <_svfiprintf_r+0x194>
 8007d04:	ab07      	add	r3, sp, #28
 8007d06:	9300      	str	r3, [sp, #0]
 8007d08:	003a      	movs	r2, r7
 8007d0a:	0021      	movs	r1, r4
 8007d0c:	4b10      	ldr	r3, [pc, #64]	; (8007d50 <_svfiprintf_r+0x1fc>)
 8007d0e:	9803      	ldr	r0, [sp, #12]
 8007d10:	e000      	b.n	8007d14 <_svfiprintf_r+0x1c0>
 8007d12:	bf00      	nop
 8007d14:	9004      	str	r0, [sp, #16]
 8007d16:	9b04      	ldr	r3, [sp, #16]
 8007d18:	3301      	adds	r3, #1
 8007d1a:	d1d3      	bne.n	8007cc4 <_svfiprintf_r+0x170>
 8007d1c:	89bb      	ldrh	r3, [r7, #12]
 8007d1e:	980d      	ldr	r0, [sp, #52]	; 0x34
 8007d20:	065b      	lsls	r3, r3, #25
 8007d22:	d400      	bmi.n	8007d26 <_svfiprintf_r+0x1d2>
 8007d24:	e72d      	b.n	8007b82 <_svfiprintf_r+0x2e>
 8007d26:	2001      	movs	r0, #1
 8007d28:	4240      	negs	r0, r0
 8007d2a:	e72a      	b.n	8007b82 <_svfiprintf_r+0x2e>
 8007d2c:	ab07      	add	r3, sp, #28
 8007d2e:	9300      	str	r3, [sp, #0]
 8007d30:	003a      	movs	r2, r7
 8007d32:	0021      	movs	r1, r4
 8007d34:	4b06      	ldr	r3, [pc, #24]	; (8007d50 <_svfiprintf_r+0x1fc>)
 8007d36:	9803      	ldr	r0, [sp, #12]
 8007d38:	f000 f87c 	bl	8007e34 <_printf_i>
 8007d3c:	e7ea      	b.n	8007d14 <_svfiprintf_r+0x1c0>
 8007d3e:	46c0      	nop			; (mov r8, r8)
 8007d40:	08008a28 	.word	0x08008a28
 8007d44:	08008a2e 	.word	0x08008a2e
 8007d48:	08008a32 	.word	0x08008a32
 8007d4c:	00000000 	.word	0x00000000
 8007d50:	08007a91 	.word	0x08007a91

08007d54 <_printf_common>:
 8007d54:	b5f7      	push	{r0, r1, r2, r4, r5, r6, r7, lr}
 8007d56:	0015      	movs	r5, r2
 8007d58:	9301      	str	r3, [sp, #4]
 8007d5a:	688a      	ldr	r2, [r1, #8]
 8007d5c:	690b      	ldr	r3, [r1, #16]
 8007d5e:	000c      	movs	r4, r1
 8007d60:	9000      	str	r0, [sp, #0]
 8007d62:	4293      	cmp	r3, r2
 8007d64:	da00      	bge.n	8007d68 <_printf_common+0x14>
 8007d66:	0013      	movs	r3, r2
 8007d68:	0022      	movs	r2, r4
 8007d6a:	602b      	str	r3, [r5, #0]
 8007d6c:	3243      	adds	r2, #67	; 0x43
 8007d6e:	7812      	ldrb	r2, [r2, #0]
 8007d70:	2a00      	cmp	r2, #0
 8007d72:	d001      	beq.n	8007d78 <_printf_common+0x24>
 8007d74:	3301      	adds	r3, #1
 8007d76:	602b      	str	r3, [r5, #0]
 8007d78:	6823      	ldr	r3, [r4, #0]
 8007d7a:	069b      	lsls	r3, r3, #26
 8007d7c:	d502      	bpl.n	8007d84 <_printf_common+0x30>
 8007d7e:	682b      	ldr	r3, [r5, #0]
 8007d80:	3302      	adds	r3, #2
 8007d82:	602b      	str	r3, [r5, #0]
 8007d84:	6822      	ldr	r2, [r4, #0]
 8007d86:	2306      	movs	r3, #6
 8007d88:	0017      	movs	r7, r2
 8007d8a:	401f      	ands	r7, r3
 8007d8c:	421a      	tst	r2, r3
 8007d8e:	d027      	beq.n	8007de0 <_printf_common+0x8c>
 8007d90:	0023      	movs	r3, r4
 8007d92:	3343      	adds	r3, #67	; 0x43
 8007d94:	781b      	ldrb	r3, [r3, #0]
 8007d96:	1e5a      	subs	r2, r3, #1
 8007d98:	4193      	sbcs	r3, r2
 8007d9a:	6822      	ldr	r2, [r4, #0]
 8007d9c:	0692      	lsls	r2, r2, #26
 8007d9e:	d430      	bmi.n	8007e02 <_printf_common+0xae>
 8007da0:	0022      	movs	r2, r4
 8007da2:	9901      	ldr	r1, [sp, #4]
 8007da4:	9800      	ldr	r0, [sp, #0]
 8007da6:	9e08      	ldr	r6, [sp, #32]
 8007da8:	3243      	adds	r2, #67	; 0x43
 8007daa:	47b0      	blx	r6
 8007dac:	1c43      	adds	r3, r0, #1
 8007dae:	d025      	beq.n	8007dfc <_printf_common+0xa8>
 8007db0:	2306      	movs	r3, #6
 8007db2:	6820      	ldr	r0, [r4, #0]
 8007db4:	682a      	ldr	r2, [r5, #0]
 8007db6:	68e1      	ldr	r1, [r4, #12]
 8007db8:	2500      	movs	r5, #0
 8007dba:	4003      	ands	r3, r0
 8007dbc:	2b04      	cmp	r3, #4
 8007dbe:	d103      	bne.n	8007dc8 <_printf_common+0x74>
 8007dc0:	1a8d      	subs	r5, r1, r2
 8007dc2:	43eb      	mvns	r3, r5
 8007dc4:	17db      	asrs	r3, r3, #31
 8007dc6:	401d      	ands	r5, r3
 8007dc8:	68a3      	ldr	r3, [r4, #8]
 8007dca:	6922      	ldr	r2, [r4, #16]
 8007dcc:	4293      	cmp	r3, r2
 8007dce:	dd01      	ble.n	8007dd4 <_printf_common+0x80>
 8007dd0:	1a9b      	subs	r3, r3, r2
 8007dd2:	18ed      	adds	r5, r5, r3
 8007dd4:	2700      	movs	r7, #0
 8007dd6:	42bd      	cmp	r5, r7
 8007dd8:	d120      	bne.n	8007e1c <_printf_common+0xc8>
 8007dda:	2000      	movs	r0, #0
 8007ddc:	e010      	b.n	8007e00 <_printf_common+0xac>
 8007dde:	3701      	adds	r7, #1
 8007de0:	68e3      	ldr	r3, [r4, #12]
 8007de2:	682a      	ldr	r2, [r5, #0]
 8007de4:	1a9b      	subs	r3, r3, r2
 8007de6:	42bb      	cmp	r3, r7
 8007de8:	ddd2      	ble.n	8007d90 <_printf_common+0x3c>
 8007dea:	0022      	movs	r2, r4
 8007dec:	2301      	movs	r3, #1
 8007dee:	9901      	ldr	r1, [sp, #4]
 8007df0:	9800      	ldr	r0, [sp, #0]
 8007df2:	9e08      	ldr	r6, [sp, #32]
 8007df4:	3219      	adds	r2, #25
 8007df6:	47b0      	blx	r6
 8007df8:	1c43      	adds	r3, r0, #1
 8007dfa:	d1f0      	bne.n	8007dde <_printf_common+0x8a>
 8007dfc:	2001      	movs	r0, #1
 8007dfe:	4240      	negs	r0, r0
 8007e00:	bdfe      	pop	{r1, r2, r3, r4, r5, r6, r7, pc}
 8007e02:	2030      	movs	r0, #48	; 0x30
 8007e04:	18e1      	adds	r1, r4, r3
 8007e06:	3143      	adds	r1, #67	; 0x43
 8007e08:	7008      	strb	r0, [r1, #0]
 8007e0a:	0021      	movs	r1, r4
 8007e0c:	1c5a      	adds	r2, r3, #1
 8007e0e:	3145      	adds	r1, #69	; 0x45
 8007e10:	7809      	ldrb	r1, [r1, #0]
 8007e12:	18a2      	adds	r2, r4, r2
 8007e14:	3243      	adds	r2, #67	; 0x43
 8007e16:	3302      	adds	r3, #2
 8007e18:	7011      	strb	r1, [r2, #0]
 8007e1a:	e7c1      	b.n	8007da0 <_printf_common+0x4c>
 8007e1c:	0022      	movs	r2, r4
 8007e1e:	2301      	movs	r3, #1
 8007e20:	9901      	ldr	r1, [sp, #4]
 8007e22:	9800      	ldr	r0, [sp, #0]
 8007e24:	9e08      	ldr	r6, [sp, #32]
 8007e26:	321a      	adds	r2, #26
 8007e28:	47b0      	blx	r6
 8007e2a:	1c43      	adds	r3, r0, #1
 8007e2c:	d0e6      	beq.n	8007dfc <_printf_common+0xa8>
 8007e2e:	3701      	adds	r7, #1
 8007e30:	e7d1      	b.n	8007dd6 <_printf_common+0x82>
	...

08007e34 <_printf_i>:
 8007e34:	b5f0      	push	{r4, r5, r6, r7, lr}
 8007e36:	b08b      	sub	sp, #44	; 0x2c
 8007e38:	9206      	str	r2, [sp, #24]
 8007e3a:	000a      	movs	r2, r1
 8007e3c:	3243      	adds	r2, #67	; 0x43
 8007e3e:	9307      	str	r3, [sp, #28]
 8007e40:	9005      	str	r0, [sp, #20]
 8007e42:	9204      	str	r2, [sp, #16]
 8007e44:	7e0a      	ldrb	r2, [r1, #24]
 8007e46:	000c      	movs	r4, r1
 8007e48:	9b10      	ldr	r3, [sp, #64]	; 0x40
 8007e4a:	2a78      	cmp	r2, #120	; 0x78
 8007e4c:	d807      	bhi.n	8007e5e <_printf_i+0x2a>
 8007e4e:	2a62      	cmp	r2, #98	; 0x62
 8007e50:	d809      	bhi.n	8007e66 <_printf_i+0x32>
 8007e52:	2a00      	cmp	r2, #0
 8007e54:	d100      	bne.n	8007e58 <_printf_i+0x24>
 8007e56:	e0c1      	b.n	8007fdc <_printf_i+0x1a8>
 8007e58:	2a58      	cmp	r2, #88	; 0x58
 8007e5a:	d100      	bne.n	8007e5e <_printf_i+0x2a>
 8007e5c:	e08c      	b.n	8007f78 <_printf_i+0x144>
 8007e5e:	0026      	movs	r6, r4
 8007e60:	3642      	adds	r6, #66	; 0x42
 8007e62:	7032      	strb	r2, [r6, #0]
 8007e64:	e022      	b.n	8007eac <_printf_i+0x78>
 8007e66:	0010      	movs	r0, r2
 8007e68:	3863      	subs	r0, #99	; 0x63
 8007e6a:	2815      	cmp	r0, #21
 8007e6c:	d8f7      	bhi.n	8007e5e <_printf_i+0x2a>
 8007e6e:	f7f8 f953 	bl	8000118 <__gnu_thumb1_case_shi>
 8007e72:	0016      	.short	0x0016
 8007e74:	fff6001f 	.word	0xfff6001f
 8007e78:	fff6fff6 	.word	0xfff6fff6
 8007e7c:	001ffff6 	.word	0x001ffff6
 8007e80:	fff6fff6 	.word	0xfff6fff6
 8007e84:	fff6fff6 	.word	0xfff6fff6
 8007e88:	003600a8 	.word	0x003600a8
 8007e8c:	fff6009a 	.word	0xfff6009a
 8007e90:	00b9fff6 	.word	0x00b9fff6
 8007e94:	0036fff6 	.word	0x0036fff6
 8007e98:	fff6fff6 	.word	0xfff6fff6
 8007e9c:	009e      	.short	0x009e
 8007e9e:	0026      	movs	r6, r4
 8007ea0:	681a      	ldr	r2, [r3, #0]
 8007ea2:	3642      	adds	r6, #66	; 0x42
 8007ea4:	1d11      	adds	r1, r2, #4
 8007ea6:	6019      	str	r1, [r3, #0]
 8007ea8:	6813      	ldr	r3, [r2, #0]
 8007eaa:	7033      	strb	r3, [r6, #0]
 8007eac:	2301      	movs	r3, #1
 8007eae:	e0a7      	b.n	8008000 <_printf_i+0x1cc>
 8007eb0:	6808      	ldr	r0, [r1, #0]
 8007eb2:	6819      	ldr	r1, [r3, #0]
 8007eb4:	1d0a      	adds	r2, r1, #4
 8007eb6:	0605      	lsls	r5, r0, #24
 8007eb8:	d50b      	bpl.n	8007ed2 <_printf_i+0x9e>
 8007eba:	680d      	ldr	r5, [r1, #0]
 8007ebc:	601a      	str	r2, [r3, #0]
 8007ebe:	2d00      	cmp	r5, #0
 8007ec0:	da03      	bge.n	8007eca <_printf_i+0x96>
 8007ec2:	232d      	movs	r3, #45	; 0x2d
 8007ec4:	9a04      	ldr	r2, [sp, #16]
 8007ec6:	426d      	negs	r5, r5
 8007ec8:	7013      	strb	r3, [r2, #0]
 8007eca:	4b61      	ldr	r3, [pc, #388]	; (8008050 <_printf_i+0x21c>)
 8007ecc:	270a      	movs	r7, #10
 8007ece:	9303      	str	r3, [sp, #12]
 8007ed0:	e01b      	b.n	8007f0a <_printf_i+0xd6>
 8007ed2:	680d      	ldr	r5, [r1, #0]
 8007ed4:	601a      	str	r2, [r3, #0]
 8007ed6:	0641      	lsls	r1, r0, #25
 8007ed8:	d5f1      	bpl.n	8007ebe <_printf_i+0x8a>
 8007eda:	b22d      	sxth	r5, r5
 8007edc:	e7ef      	b.n	8007ebe <_printf_i+0x8a>
 8007ede:	680d      	ldr	r5, [r1, #0]
 8007ee0:	6819      	ldr	r1, [r3, #0]
 8007ee2:	1d08      	adds	r0, r1, #4
 8007ee4:	6018      	str	r0, [r3, #0]
 8007ee6:	062e      	lsls	r6, r5, #24
 8007ee8:	d501      	bpl.n	8007eee <_printf_i+0xba>
 8007eea:	680d      	ldr	r5, [r1, #0]
 8007eec:	e003      	b.n	8007ef6 <_printf_i+0xc2>
 8007eee:	066d      	lsls	r5, r5, #25
 8007ef0:	d5fb      	bpl.n	8007eea <_printf_i+0xb6>
 8007ef2:	680d      	ldr	r5, [r1, #0]
 8007ef4:	b2ad      	uxth	r5, r5
 8007ef6:	4b56      	ldr	r3, [pc, #344]	; (8008050 <_printf_i+0x21c>)
 8007ef8:	2708      	movs	r7, #8
 8007efa:	9303      	str	r3, [sp, #12]
 8007efc:	2a6f      	cmp	r2, #111	; 0x6f
 8007efe:	d000      	beq.n	8007f02 <_printf_i+0xce>
 8007f00:	3702      	adds	r7, #2
 8007f02:	0023      	movs	r3, r4
 8007f04:	2200      	movs	r2, #0
 8007f06:	3343      	adds	r3, #67	; 0x43
 8007f08:	701a      	strb	r2, [r3, #0]
 8007f0a:	6863      	ldr	r3, [r4, #4]
 8007f0c:	60a3      	str	r3, [r4, #8]
 8007f0e:	2b00      	cmp	r3, #0
 8007f10:	db03      	blt.n	8007f1a <_printf_i+0xe6>
 8007f12:	2204      	movs	r2, #4
 8007f14:	6821      	ldr	r1, [r4, #0]
 8007f16:	4391      	bics	r1, r2
 8007f18:	6021      	str	r1, [r4, #0]
 8007f1a:	2d00      	cmp	r5, #0
 8007f1c:	d102      	bne.n	8007f24 <_printf_i+0xf0>
 8007f1e:	9e04      	ldr	r6, [sp, #16]
 8007f20:	2b00      	cmp	r3, #0
 8007f22:	d00c      	beq.n	8007f3e <_printf_i+0x10a>
 8007f24:	9e04      	ldr	r6, [sp, #16]
 8007f26:	0028      	movs	r0, r5
 8007f28:	0039      	movs	r1, r7
 8007f2a:	f7f8 f985 	bl	8000238 <__aeabi_uidivmod>
 8007f2e:	9b03      	ldr	r3, [sp, #12]
 8007f30:	3e01      	subs	r6, #1
 8007f32:	5c5b      	ldrb	r3, [r3, r1]
 8007f34:	7033      	strb	r3, [r6, #0]
 8007f36:	002b      	movs	r3, r5
 8007f38:	0005      	movs	r5, r0
 8007f3a:	429f      	cmp	r7, r3
 8007f3c:	d9f3      	bls.n	8007f26 <_printf_i+0xf2>
 8007f3e:	2f08      	cmp	r7, #8
 8007f40:	d109      	bne.n	8007f56 <_printf_i+0x122>
 8007f42:	6823      	ldr	r3, [r4, #0]
 8007f44:	07db      	lsls	r3, r3, #31
 8007f46:	d506      	bpl.n	8007f56 <_printf_i+0x122>
 8007f48:	6863      	ldr	r3, [r4, #4]
 8007f4a:	6922      	ldr	r2, [r4, #16]
 8007f4c:	4293      	cmp	r3, r2
 8007f4e:	dc02      	bgt.n	8007f56 <_printf_i+0x122>
 8007f50:	2330      	movs	r3, #48	; 0x30
 8007f52:	3e01      	subs	r6, #1
 8007f54:	7033      	strb	r3, [r6, #0]
 8007f56:	9b04      	ldr	r3, [sp, #16]
 8007f58:	1b9b      	subs	r3, r3, r6
 8007f5a:	6123      	str	r3, [r4, #16]
 8007f5c:	9b07      	ldr	r3, [sp, #28]
 8007f5e:	0021      	movs	r1, r4
 8007f60:	9300      	str	r3, [sp, #0]
 8007f62:	9805      	ldr	r0, [sp, #20]
 8007f64:	9b06      	ldr	r3, [sp, #24]
 8007f66:	aa09      	add	r2, sp, #36	; 0x24
 8007f68:	f7ff fef4 	bl	8007d54 <_printf_common>
 8007f6c:	1c43      	adds	r3, r0, #1
 8007f6e:	d14c      	bne.n	800800a <_printf_i+0x1d6>
 8007f70:	2001      	movs	r0, #1
 8007f72:	4240      	negs	r0, r0
 8007f74:	b00b      	add	sp, #44	; 0x2c
 8007f76:	bdf0      	pop	{r4, r5, r6, r7, pc}
 8007f78:	3145      	adds	r1, #69	; 0x45
 8007f7a:	700a      	strb	r2, [r1, #0]
 8007f7c:	4a34      	ldr	r2, [pc, #208]	; (8008050 <_printf_i+0x21c>)
 8007f7e:	9203      	str	r2, [sp, #12]
 8007f80:	681a      	ldr	r2, [r3, #0]
 8007f82:	6821      	ldr	r1, [r4, #0]
 8007f84:	ca20      	ldmia	r2!, {r5}
 8007f86:	601a      	str	r2, [r3, #0]
 8007f88:	0608      	lsls	r0, r1, #24
 8007f8a:	d516      	bpl.n	8007fba <_printf_i+0x186>
 8007f8c:	07cb      	lsls	r3, r1, #31
 8007f8e:	d502      	bpl.n	8007f96 <_printf_i+0x162>
 8007f90:	2320      	movs	r3, #32
 8007f92:	4319      	orrs	r1, r3
 8007f94:	6021      	str	r1, [r4, #0]
 8007f96:	2710      	movs	r7, #16
 8007f98:	2d00      	cmp	r5, #0
 8007f9a:	d1b2      	bne.n	8007f02 <_printf_i+0xce>
 8007f9c:	2320      	movs	r3, #32
 8007f9e:	6822      	ldr	r2, [r4, #0]
 8007fa0:	439a      	bics	r2, r3
 8007fa2:	6022      	str	r2, [r4, #0]
 8007fa4:	e7ad      	b.n	8007f02 <_printf_i+0xce>
 8007fa6:	2220      	movs	r2, #32
 8007fa8:	6809      	ldr	r1, [r1, #0]
 8007faa:	430a      	orrs	r2, r1
 8007fac:	6022      	str	r2, [r4, #0]
 8007fae:	0022      	movs	r2, r4
 8007fb0:	2178      	movs	r1, #120	; 0x78
 8007fb2:	3245      	adds	r2, #69	; 0x45
 8007fb4:	7011      	strb	r1, [r2, #0]
 8007fb6:	4a27      	ldr	r2, [pc, #156]	; (8008054 <_printf_i+0x220>)
 8007fb8:	e7e1      	b.n	8007f7e <_printf_i+0x14a>
 8007fba:	0648      	lsls	r0, r1, #25
 8007fbc:	d5e6      	bpl.n	8007f8c <_printf_i+0x158>
 8007fbe:	b2ad      	uxth	r5, r5
 8007fc0:	e7e4      	b.n	8007f8c <_printf_i+0x158>
 8007fc2:	681a      	ldr	r2, [r3, #0]
 8007fc4:	680d      	ldr	r5, [r1, #0]
 8007fc6:	1d10      	adds	r0, r2, #4
 8007fc8:	6949      	ldr	r1, [r1, #20]
 8007fca:	6018      	str	r0, [r3, #0]
 8007fcc:	6813      	ldr	r3, [r2, #0]
 8007fce:	062e      	lsls	r6, r5, #24
 8007fd0:	d501      	bpl.n	8007fd6 <_printf_i+0x1a2>
 8007fd2:	6019      	str	r1, [r3, #0]
 8007fd4:	e002      	b.n	8007fdc <_printf_i+0x1a8>
 8007fd6:	066d      	lsls	r5, r5, #25
 8007fd8:	d5fb      	bpl.n	8007fd2 <_printf_i+0x19e>
 8007fda:	8019      	strh	r1, [r3, #0]
 8007fdc:	2300      	movs	r3, #0
 8007fde:	9e04      	ldr	r6, [sp, #16]
 8007fe0:	6123      	str	r3, [r4, #16]
 8007fe2:	e7bb      	b.n	8007f5c <_printf_i+0x128>
 8007fe4:	681a      	ldr	r2, [r3, #0]
 8007fe6:	1d11      	adds	r1, r2, #4
 8007fe8:	6019      	str	r1, [r3, #0]
 8007fea:	6816      	ldr	r6, [r2, #0]
 8007fec:	2100      	movs	r1, #0
 8007fee:	0030      	movs	r0, r6
 8007ff0:	6862      	ldr	r2, [r4, #4]
 8007ff2:	f000 f831 	bl	8008058 <memchr>
 8007ff6:	2800      	cmp	r0, #0
 8007ff8:	d001      	beq.n	8007ffe <_printf_i+0x1ca>
 8007ffa:	1b80      	subs	r0, r0, r6
 8007ffc:	6060      	str	r0, [r4, #4]
 8007ffe:	6863      	ldr	r3, [r4, #4]
 8008000:	6123      	str	r3, [r4, #16]
 8008002:	2300      	movs	r3, #0
 8008004:	9a04      	ldr	r2, [sp, #16]
 8008006:	7013      	strb	r3, [r2, #0]
 8008008:	e7a8      	b.n	8007f5c <_printf_i+0x128>
 800800a:	6923      	ldr	r3, [r4, #16]
 800800c:	0032      	movs	r2, r6
 800800e:	9906      	ldr	r1, [sp, #24]
 8008010:	9805      	ldr	r0, [sp, #20]
 8008012:	9d07      	ldr	r5, [sp, #28]
 8008014:	47a8      	blx	r5
 8008016:	1c43      	adds	r3, r0, #1
 8008018:	d0aa      	beq.n	8007f70 <_printf_i+0x13c>
 800801a:	6823      	ldr	r3, [r4, #0]
 800801c:	079b      	lsls	r3, r3, #30
 800801e:	d415      	bmi.n	800804c <_printf_i+0x218>
 8008020:	9b09      	ldr	r3, [sp, #36]	; 0x24
 8008022:	68e0      	ldr	r0, [r4, #12]
 8008024:	4298      	cmp	r0, r3
 8008026:	daa5      	bge.n	8007f74 <_printf_i+0x140>
 8008028:	0018      	movs	r0, r3
 800802a:	e7a3      	b.n	8007f74 <_printf_i+0x140>
 800802c:	0022      	movs	r2, r4
 800802e:	2301      	movs	r3, #1
 8008030:	9906      	ldr	r1, [sp, #24]
 8008032:	9805      	ldr	r0, [sp, #20]
 8008034:	9e07      	ldr	r6, [sp, #28]
 8008036:	3219      	adds	r2, #25
 8008038:	47b0      	blx	r6
 800803a:	1c43      	adds	r3, r0, #1
 800803c:	d098      	beq.n	8007f70 <_printf_i+0x13c>
 800803e:	3501      	adds	r5, #1
 8008040:	68e3      	ldr	r3, [r4, #12]
 8008042:	9a09      	ldr	r2, [sp, #36]	; 0x24
 8008044:	1a9b      	subs	r3, r3, r2
 8008046:	42ab      	cmp	r3, r5
 8008048:	dcf0      	bgt.n	800802c <_printf_i+0x1f8>
 800804a:	e7e9      	b.n	8008020 <_printf_i+0x1ec>
 800804c:	2500      	movs	r5, #0
 800804e:	e7f7      	b.n	8008040 <_printf_i+0x20c>
 8008050:	08008a39 	.word	0x08008a39
 8008054:	08008a4a 	.word	0x08008a4a

08008058 <memchr>:
 8008058:	b2c9      	uxtb	r1, r1
 800805a:	1882      	adds	r2, r0, r2
 800805c:	4290      	cmp	r0, r2
 800805e:	d101      	bne.n	8008064 <memchr+0xc>
 8008060:	2000      	movs	r0, #0
 8008062:	4770      	bx	lr
 8008064:	7803      	ldrb	r3, [r0, #0]
 8008066:	428b      	cmp	r3, r1
 8008068:	d0fb      	beq.n	8008062 <memchr+0xa>
 800806a:	3001      	adds	r0, #1
 800806c:	e7f6      	b.n	800805c <memchr+0x4>

0800806e <memcpy>:
 800806e:	2300      	movs	r3, #0
 8008070:	b510      	push	{r4, lr}
 8008072:	429a      	cmp	r2, r3
 8008074:	d100      	bne.n	8008078 <memcpy+0xa>
 8008076:	bd10      	pop	{r4, pc}
 8008078:	5ccc      	ldrb	r4, [r1, r3]
 800807a:	54c4      	strb	r4, [r0, r3]
 800807c:	3301      	adds	r3, #1
 800807e:	e7f8      	b.n	8008072 <memcpy+0x4>

08008080 <memmove>:
 8008080:	b510      	push	{r4, lr}
 8008082:	4288      	cmp	r0, r1
 8008084:	d902      	bls.n	800808c <memmove+0xc>
 8008086:	188b      	adds	r3, r1, r2
 8008088:	4298      	cmp	r0, r3
 800808a:	d303      	bcc.n	8008094 <memmove+0x14>
 800808c:	2300      	movs	r3, #0
 800808e:	e007      	b.n	80080a0 <memmove+0x20>
 8008090:	5c8b      	ldrb	r3, [r1, r2]
 8008092:	5483      	strb	r3, [r0, r2]
 8008094:	3a01      	subs	r2, #1
 8008096:	d2fb      	bcs.n	8008090 <memmove+0x10>
 8008098:	bd10      	pop	{r4, pc}
 800809a:	5ccc      	ldrb	r4, [r1, r3]
 800809c:	54c4      	strb	r4, [r0, r3]
 800809e:	3301      	adds	r3, #1
 80080a0:	429a      	cmp	r2, r3
 80080a2:	d1fa      	bne.n	800809a <memmove+0x1a>
 80080a4:	e7f8      	b.n	8008098 <memmove+0x18>
	...

080080a8 <_free_r>:
 80080a8:	b570      	push	{r4, r5, r6, lr}
 80080aa:	0005      	movs	r5, r0
 80080ac:	2900      	cmp	r1, #0
 80080ae:	d010      	beq.n	80080d2 <_free_r+0x2a>
 80080b0:	1f0c      	subs	r4, r1, #4
 80080b2:	6823      	ldr	r3, [r4, #0]
 80080b4:	2b00      	cmp	r3, #0
 80080b6:	da00      	bge.n	80080ba <_free_r+0x12>
 80080b8:	18e4      	adds	r4, r4, r3
 80080ba:	0028      	movs	r0, r5
 80080bc:	f000 f918 	bl	80082f0 <__malloc_lock>
 80080c0:	4a1d      	ldr	r2, [pc, #116]	; (8008138 <_free_r+0x90>)
 80080c2:	6813      	ldr	r3, [r2, #0]
 80080c4:	2b00      	cmp	r3, #0
 80080c6:	d105      	bne.n	80080d4 <_free_r+0x2c>
 80080c8:	6063      	str	r3, [r4, #4]
 80080ca:	6014      	str	r4, [r2, #0]
 80080cc:	0028      	movs	r0, r5
 80080ce:	f000 f917 	bl	8008300 <__malloc_unlock>
 80080d2:	bd70      	pop	{r4, r5, r6, pc}
 80080d4:	42a3      	cmp	r3, r4
 80080d6:	d908      	bls.n	80080ea <_free_r+0x42>
 80080d8:	6821      	ldr	r1, [r4, #0]
 80080da:	1860      	adds	r0, r4, r1
 80080dc:	4283      	cmp	r3, r0
 80080de:	d1f3      	bne.n	80080c8 <_free_r+0x20>
 80080e0:	6818      	ldr	r0, [r3, #0]
 80080e2:	685b      	ldr	r3, [r3, #4]
 80080e4:	1841      	adds	r1, r0, r1
 80080e6:	6021      	str	r1, [r4, #0]
 80080e8:	e7ee      	b.n	80080c8 <_free_r+0x20>
 80080ea:	001a      	movs	r2, r3
 80080ec:	685b      	ldr	r3, [r3, #4]
 80080ee:	2b00      	cmp	r3, #0
 80080f0:	d001      	beq.n	80080f6 <_free_r+0x4e>
 80080f2:	42a3      	cmp	r3, r4
 80080f4:	d9f9      	bls.n	80080ea <_free_r+0x42>
 80080f6:	6811      	ldr	r1, [r2, #0]
 80080f8:	1850      	adds	r0, r2, r1
 80080fa:	42a0      	cmp	r0, r4
 80080fc:	d10b      	bne.n	8008116 <_free_r+0x6e>
 80080fe:	6820      	ldr	r0, [r4, #0]
 8008100:	1809      	adds	r1, r1, r0
 8008102:	1850      	adds	r0, r2, r1
 8008104:	6011      	str	r1, [r2, #0]
 8008106:	4283      	cmp	r3, r0
 8008108:	d1e0      	bne.n	80080cc <_free_r+0x24>
 800810a:	6818      	ldr	r0, [r3, #0]
 800810c:	685b      	ldr	r3, [r3, #4]
 800810e:	1841      	adds	r1, r0, r1
 8008110:	6011      	str	r1, [r2, #0]
 8008112:	6053      	str	r3, [r2, #4]
 8008114:	e7da      	b.n	80080cc <_free_r+0x24>
 8008116:	42a0      	cmp	r0, r4
 8008118:	d902      	bls.n	8008120 <_free_r+0x78>
 800811a:	230c      	movs	r3, #12
 800811c:	602b      	str	r3, [r5, #0]
 800811e:	e7d5      	b.n	80080cc <_free_r+0x24>
 8008120:	6821      	ldr	r1, [r4, #0]
 8008122:	1860      	adds	r0, r4, r1
 8008124:	4283      	cmp	r3, r0
 8008126:	d103      	bne.n	8008130 <_free_r+0x88>
 8008128:	6818      	ldr	r0, [r3, #0]
 800812a:	685b      	ldr	r3, [r3, #4]
 800812c:	1841      	adds	r1, r0, r1
 800812e:	6021      	str	r1, [r4, #0]
 8008130:	6063      	str	r3, [r4, #4]
 8008132:	6054      	str	r4, [r2, #4]
 8008134:	e7ca      	b.n	80080cc <_free_r+0x24>
 8008136:	46c0      	nop			; (mov r8, r8)
 8008138:	20000708 	.word	0x20000708

0800813c <sbrk_aligned>:
 800813c:	b570      	push	{r4, r5, r6, lr}
 800813e:	4e0f      	ldr	r6, [pc, #60]	; (800817c <sbrk_aligned+0x40>)
 8008140:	000d      	movs	r5, r1
 8008142:	6831      	ldr	r1, [r6, #0]
 8008144:	0004      	movs	r4, r0
 8008146:	2900      	cmp	r1, #0
 8008148:	d102      	bne.n	8008150 <sbrk_aligned+0x14>
 800814a:	f000 f8bf 	bl	80082cc <_sbrk_r>
 800814e:	6030      	str	r0, [r6, #0]
 8008150:	0029      	movs	r1, r5
 8008152:	0020      	movs	r0, r4
 8008154:	f000 f8ba 	bl	80082cc <_sbrk_r>
 8008158:	1c43      	adds	r3, r0, #1
 800815a:	d00a      	beq.n	8008172 <sbrk_aligned+0x36>
 800815c:	2303      	movs	r3, #3
 800815e:	1cc5      	adds	r5, r0, #3
 8008160:	439d      	bics	r5, r3
 8008162:	42a8      	cmp	r0, r5
 8008164:	d007      	beq.n	8008176 <sbrk_aligned+0x3a>
 8008166:	1a29      	subs	r1, r5, r0
 8008168:	0020      	movs	r0, r4
 800816a:	f000 f8af 	bl	80082cc <_sbrk_r>
 800816e:	1c43      	adds	r3, r0, #1
 8008170:	d101      	bne.n	8008176 <sbrk_aligned+0x3a>
 8008172:	2501      	movs	r5, #1
 8008174:	426d      	negs	r5, r5
 8008176:	0028      	movs	r0, r5
 8008178:	bd70      	pop	{r4, r5, r6, pc}
 800817a:	46c0      	nop			; (mov r8, r8)
 800817c:	2000070c 	.word	0x2000070c

08008180 <_malloc_r>:
 8008180:	b5f7      	push	{r0, r1, r2, r4, r5, r6, r7, lr}
 8008182:	2203      	movs	r2, #3
 8008184:	1ccb      	adds	r3, r1, #3
 8008186:	4393      	bics	r3, r2
 8008188:	3308      	adds	r3, #8
 800818a:	0006      	movs	r6, r0
 800818c:	001f      	movs	r7, r3
 800818e:	2b0c      	cmp	r3, #12
 8008190:	d232      	bcs.n	80081f8 <_malloc_r+0x78>
 8008192:	270c      	movs	r7, #12
 8008194:	42b9      	cmp	r1, r7
 8008196:	d831      	bhi.n	80081fc <_malloc_r+0x7c>
 8008198:	0030      	movs	r0, r6
 800819a:	f000 f8a9 	bl	80082f0 <__malloc_lock>
 800819e:	4d32      	ldr	r5, [pc, #200]	; (8008268 <_malloc_r+0xe8>)
 80081a0:	682b      	ldr	r3, [r5, #0]
 80081a2:	001c      	movs	r4, r3
 80081a4:	2c00      	cmp	r4, #0
 80081a6:	d12e      	bne.n	8008206 <_malloc_r+0x86>
 80081a8:	0039      	movs	r1, r7
 80081aa:	0030      	movs	r0, r6
 80081ac:	f7ff ffc6 	bl	800813c <sbrk_aligned>
 80081b0:	0004      	movs	r4, r0
 80081b2:	1c43      	adds	r3, r0, #1
 80081b4:	d11e      	bne.n	80081f4 <_malloc_r+0x74>
 80081b6:	682c      	ldr	r4, [r5, #0]
 80081b8:	0025      	movs	r5, r4
 80081ba:	2d00      	cmp	r5, #0
 80081bc:	d14a      	bne.n	8008254 <_malloc_r+0xd4>
 80081be:	6823      	ldr	r3, [r4, #0]
 80081c0:	0029      	movs	r1, r5
 80081c2:	18e3      	adds	r3, r4, r3
 80081c4:	0030      	movs	r0, r6
 80081c6:	9301      	str	r3, [sp, #4]
 80081c8:	f000 f880 	bl	80082cc <_sbrk_r>
 80081cc:	9b01      	ldr	r3, [sp, #4]
 80081ce:	4283      	cmp	r3, r0
 80081d0:	d143      	bne.n	800825a <_malloc_r+0xda>
 80081d2:	6823      	ldr	r3, [r4, #0]
 80081d4:	3703      	adds	r7, #3
 80081d6:	1aff      	subs	r7, r7, r3
 80081d8:	2303      	movs	r3, #3
 80081da:	439f      	bics	r7, r3
 80081dc:	3708      	adds	r7, #8
 80081de:	2f0c      	cmp	r7, #12
 80081e0:	d200      	bcs.n	80081e4 <_malloc_r+0x64>
 80081e2:	270c      	movs	r7, #12
 80081e4:	0039      	movs	r1, r7
 80081e6:	0030      	movs	r0, r6
 80081e8:	f7ff ffa8 	bl	800813c <sbrk_aligned>
 80081ec:	1c43      	adds	r3, r0, #1
 80081ee:	d034      	beq.n	800825a <_malloc_r+0xda>
 80081f0:	6823      	ldr	r3, [r4, #0]
 80081f2:	19df      	adds	r7, r3, r7
 80081f4:	6027      	str	r7, [r4, #0]
 80081f6:	e013      	b.n	8008220 <_malloc_r+0xa0>
 80081f8:	2b00      	cmp	r3, #0
 80081fa:	dacb      	bge.n	8008194 <_malloc_r+0x14>
 80081fc:	230c      	movs	r3, #12
 80081fe:	2500      	movs	r5, #0
 8008200:	6033      	str	r3, [r6, #0]
 8008202:	0028      	movs	r0, r5
 8008204:	bdfe      	pop	{r1, r2, r3, r4, r5, r6, r7, pc}
 8008206:	6822      	ldr	r2, [r4, #0]
 8008208:	1bd1      	subs	r1, r2, r7
 800820a:	d420      	bmi.n	800824e <_malloc_r+0xce>
 800820c:	290b      	cmp	r1, #11
 800820e:	d917      	bls.n	8008240 <_malloc_r+0xc0>
 8008210:	19e2      	adds	r2, r4, r7
 8008212:	6027      	str	r7, [r4, #0]
 8008214:	42a3      	cmp	r3, r4
 8008216:	d111      	bne.n	800823c <_malloc_r+0xbc>
 8008218:	602a      	str	r2, [r5, #0]
 800821a:	6863      	ldr	r3, [r4, #4]
 800821c:	6011      	str	r1, [r2, #0]
 800821e:	6053      	str	r3, [r2, #4]
 8008220:	0030      	movs	r0, r6
 8008222:	0025      	movs	r5, r4
 8008224:	f000 f86c 	bl	8008300 <__malloc_unlock>
 8008228:	2207      	movs	r2, #7
 800822a:	350b      	adds	r5, #11
 800822c:	1d23      	adds	r3, r4, #4
 800822e:	4395      	bics	r5, r2
 8008230:	1aea      	subs	r2, r5, r3
 8008232:	429d      	cmp	r5, r3
 8008234:	d0e5      	beq.n	8008202 <_malloc_r+0x82>
 8008236:	1b5b      	subs	r3, r3, r5
 8008238:	50a3      	str	r3, [r4, r2]
 800823a:	e7e2      	b.n	8008202 <_malloc_r+0x82>
 800823c:	605a      	str	r2, [r3, #4]
 800823e:	e7ec      	b.n	800821a <_malloc_r+0x9a>
 8008240:	6862      	ldr	r2, [r4, #4]
 8008242:	42a3      	cmp	r3, r4
 8008244:	d101      	bne.n	800824a <_malloc_r+0xca>
 8008246:	602a      	str	r2, [r5, #0]
 8008248:	e7ea      	b.n	8008220 <_malloc_r+0xa0>
 800824a:	605a      	str	r2, [r3, #4]
 800824c:	e7e8      	b.n	8008220 <_malloc_r+0xa0>
 800824e:	0023      	movs	r3, r4
 8008250:	6864      	ldr	r4, [r4, #4]
 8008252:	e7a7      	b.n	80081a4 <_malloc_r+0x24>
 8008254:	002c      	movs	r4, r5
 8008256:	686d      	ldr	r5, [r5, #4]
 8008258:	e7af      	b.n	80081ba <_malloc_r+0x3a>
 800825a:	230c      	movs	r3, #12
 800825c:	0030      	movs	r0, r6
 800825e:	6033      	str	r3, [r6, #0]
 8008260:	f000 f84e 	bl	8008300 <__malloc_unlock>
 8008264:	e7cd      	b.n	8008202 <_malloc_r+0x82>
 8008266:	46c0      	nop			; (mov r8, r8)
 8008268:	20000708 	.word	0x20000708

0800826c <_realloc_r>:
 800826c:	b5f7      	push	{r0, r1, r2, r4, r5, r6, r7, lr}
 800826e:	0007      	movs	r7, r0
 8008270:	000e      	movs	r6, r1
 8008272:	0014      	movs	r4, r2
 8008274:	2900      	cmp	r1, #0
 8008276:	d105      	bne.n	8008284 <_realloc_r+0x18>
 8008278:	0011      	movs	r1, r2
 800827a:	f7ff ff81 	bl	8008180 <_malloc_r>
 800827e:	0005      	movs	r5, r0
 8008280:	0028      	movs	r0, r5
 8008282:	bdfe      	pop	{r1, r2, r3, r4, r5, r6, r7, pc}
 8008284:	2a00      	cmp	r2, #0
 8008286:	d103      	bne.n	8008290 <_realloc_r+0x24>
 8008288:	f7ff ff0e 	bl	80080a8 <_free_r>
 800828c:	0025      	movs	r5, r4
 800828e:	e7f7      	b.n	8008280 <_realloc_r+0x14>
 8008290:	f000 f83e 	bl	8008310 <_malloc_usable_size_r>
 8008294:	9001      	str	r0, [sp, #4]
 8008296:	4284      	cmp	r4, r0
 8008298:	d803      	bhi.n	80082a2 <_realloc_r+0x36>
 800829a:	0035      	movs	r5, r6
 800829c:	0843      	lsrs	r3, r0, #1
 800829e:	42a3      	cmp	r3, r4
 80082a0:	d3ee      	bcc.n	8008280 <_realloc_r+0x14>
 80082a2:	0021      	movs	r1, r4
 80082a4:	0038      	movs	r0, r7
 80082a6:	f7ff ff6b 	bl	8008180 <_malloc_r>
 80082aa:	1e05      	subs	r5, r0, #0
 80082ac:	d0e8      	beq.n	8008280 <_realloc_r+0x14>
 80082ae:	9b01      	ldr	r3, [sp, #4]
 80082b0:	0022      	movs	r2, r4
 80082b2:	429c      	cmp	r4, r3
 80082b4:	d900      	bls.n	80082b8 <_realloc_r+0x4c>
 80082b6:	001a      	movs	r2, r3
 80082b8:	0031      	movs	r1, r6
 80082ba:	0028      	movs	r0, r5
 80082bc:	f7ff fed7 	bl	800806e <memcpy>
 80082c0:	0031      	movs	r1, r6
 80082c2:	0038      	movs	r0, r7
 80082c4:	f7ff fef0 	bl	80080a8 <_free_r>
 80082c8:	e7da      	b.n	8008280 <_realloc_r+0x14>
	...

080082cc <_sbrk_r>:
 80082cc:	2300      	movs	r3, #0
 80082ce:	b570      	push	{r4, r5, r6, lr}
 80082d0:	4d06      	ldr	r5, [pc, #24]	; (80082ec <_sbrk_r+0x20>)
 80082d2:	0004      	movs	r4, r0
 80082d4:	0008      	movs	r0, r1
 80082d6:	602b      	str	r3, [r5, #0]
 80082d8:	f7f8 f95c 	bl	8000594 <_sbrk>
 80082dc:	1c43      	adds	r3, r0, #1
 80082de:	d103      	bne.n	80082e8 <_sbrk_r+0x1c>
 80082e0:	682b      	ldr	r3, [r5, #0]
 80082e2:	2b00      	cmp	r3, #0
 80082e4:	d000      	beq.n	80082e8 <_sbrk_r+0x1c>
 80082e6:	6023      	str	r3, [r4, #0]
 80082e8:	bd70      	pop	{r4, r5, r6, pc}
 80082ea:	46c0      	nop			; (mov r8, r8)
 80082ec:	20000710 	.word	0x20000710

080082f0 <__malloc_lock>:
 80082f0:	b510      	push	{r4, lr}
 80082f2:	4802      	ldr	r0, [pc, #8]	; (80082fc <__malloc_lock+0xc>)
 80082f4:	f000 f814 	bl	8008320 <__retarget_lock_acquire_recursive>
 80082f8:	bd10      	pop	{r4, pc}
 80082fa:	46c0      	nop			; (mov r8, r8)
 80082fc:	20000714 	.word	0x20000714

08008300 <__malloc_unlock>:
 8008300:	b510      	push	{r4, lr}
 8008302:	4802      	ldr	r0, [pc, #8]	; (800830c <__malloc_unlock+0xc>)
 8008304:	f000 f80d 	bl	8008322 <__retarget_lock_release_recursive>
 8008308:	bd10      	pop	{r4, pc}
 800830a:	46c0      	nop			; (mov r8, r8)
 800830c:	20000714 	.word	0x20000714

08008310 <_malloc_usable_size_r>:
 8008310:	1f0b      	subs	r3, r1, #4
 8008312:	681b      	ldr	r3, [r3, #0]
 8008314:	1f18      	subs	r0, r3, #4
 8008316:	2b00      	cmp	r3, #0
 8008318:	da01      	bge.n	800831e <_malloc_usable_size_r+0xe>
 800831a:	580b      	ldr	r3, [r1, r0]
 800831c:	18c0      	adds	r0, r0, r3
 800831e:	4770      	bx	lr

08008320 <__retarget_lock_acquire_recursive>:
 8008320:	4770      	bx	lr

08008322 <__retarget_lock_release_recursive>:
 8008322:	4770      	bx	lr

08008324 <_init>:
 8008324:	b5f8      	push	{r3, r4, r5, r6, r7, lr}
 8008326:	46c0      	nop			; (mov r8, r8)
 8008328:	bcf8      	pop	{r3, r4, r5, r6, r7}
 800832a:	bc08      	pop	{r3}
 800832c:	469e      	mov	lr, r3
 800832e:	4770      	bx	lr

08008330 <_fini>:
 8008330:	b5f8      	push	{r3, r4, r5, r6, r7, lr}
 8008332:	46c0      	nop			; (mov r8, r8)
 8008334:	bcf8      	pop	{r3, r4, r5, r6, r7}
 8008336:	bc08      	pop	{r3}
 8008338:	469e      	mov	lr, r3
 800833a:	4770      	bx	lr
